ccollections
defaultdict
p1
(c__builtin__
int
p2
tRp3
S'aio-libs~aioredi'
p4
cnumpy.core.multiarray
scalar
p5
(cnumpy
dtype
p6
(S'f8'
I0
I1
tRp7
(I3
S'<'
NNNI-1
I-1
I0
tbS'\x83\xdb>Q\x06q(@'
tRp8
sS'pycqa~astroid'
p9
g5
(g7
S'\x0cr98:\x7f/@'
tRp10
sS'nilearn~nilearn'
p11
g5
(g7
S'\xa0\x92L\xf3\xc2\x84O@'
tRp12
sS'idan~oauthlib'
p13
g5
(g7
S'\xa5\x0c\x93\x87\x0c\xb6,@'
tRp14
s.