(lp1
ccollections
OrderedDict
p2
((lp3
(lp4
S'burst_id'
p5
aI0
aa(lp6
S'burst_start'
p7
acdatetime
datetime
p8
(S'\x07\xde\x05\x1a\x00\x00\x00\x00\x00\x00'
tRp9
aa(lp10
S'burst_end'
p11
ag8
(S'\x07\xde\x05\x1a\x00\x00\x00\x00\x00\x00'
tRp12
aa(lp13
S'burst_duration_days'
p14
aI1
aa(lp15
S'total_activity'
p16
aI2
aa(lp17
S'num_files (Change Size)'
p18
aI1
aa(lp19
S'file_modules (#Teams)'
p20
aI1
aa(lp21
S'total_num_issues'
p22
aI6
aa(lp23
S'issues_opened'
p24
aI6
aa(lp25
S'issues_closed'
p26
aI0
aa(lp27
S'avg_res_time_hours'
p28
aF0
aa(lp29
S'efficiency'
p30
aF0
aa(lp31
S'issue_per_person (Team Load)'
p32
aF6
aa(lp33
S'activity_per_person'
p34
aF0.66666666666666663
aa(lp35
S'committing_users'
p36
aI1
aa(lp37
S'commenting_users'
p38
aI3
aa(lp39
S'total_actors'
p40
aI3
aa(lp41
S'component_experience'
p42
aF0
aa(lp43
S'tenure'
p44
aF0
aa(lp45
S'structural_congruence_fct'
p46
aS'NA'
p47
aa(lp48
S'mr_congruence_fct'
p49
ag47
aa(lp50
S'users_to_coordinate'
p51
a(lp52
S'popravich'
p53
aaatRp54
ag2
((lp55
(lp56
g5
aI1
aa(lp57
g7
ag8
(S'\x07\xde\x06\x11\x00\x00\x00\x00\x00\x00'
tRp58
aa(lp59
g11
ag8
(S'\x07\xde\x06\x11\x00\x00\x00\x00\x00\x00'
tRp60
aa(lp61
g14
aI1
aa(lp62
g16
aI7
aa(lp63
g18
aI2
aa(lp64
g20
aI1
aa(lp65
g22
aI1
aa(lp66
g24
aI1
aa(lp67
g26
aI0
aa(lp68
g28
aF0
aa(lp69
g30
aF0
aa(lp70
g32
aF1
aa(lp71
g34
aF2.3333333333333335
aa(lp72
g36
aI1
aa(lp73
g38
aI3
aa(lp74
g40
aI3
aa(lp75
g42
aF0
aa(lp76
g44
aF0
aa(lp77
g46
ag47
aa(lp78
g49
ag47
aa(lp79
g51
a(lp80
S'jettify'
p81
aaatRp82
ag2
((lp83
(lp84
g5
aI2
aa(lp85
g7
ag8
(S'\x07\xde\x07\x04\x00\x00\x00\x00\x00\x00'
tRp86
aa(lp87
g11
ag8
(S'\x07\xde\x07\x04\x00\x00\x00\x00\x00\x00'
tRp88
aa(lp89
g14
aI1
aa(lp90
g16
aI12
aa(lp91
g18
aI23
aa(lp92
g20
aI3
aa(lp93
g22
aI3
aa(lp94
g24
aI2
aa(lp95
g26
aI2
aa(lp96
g28
aF3.2298611111111111
aa(lp97
g30
aF1
aa(lp98
g32
aF1.5
aa(lp99
g34
aF6
aa(lp100
g36
aI2
aa(lp101
g38
aI2
aa(lp102
g40
aI2
aa(lp103
g42
aF0.84782608695652173
aa(lp104
g44
aF28
aa(lp105
g46
aF1
aa(lp106
g49
aF1
aa(lp107
g51
ac__builtin__
set
p108
((lp109
S'jettify'
p110
aS'popravich'
p111
atRp112
aatRp113
ag2
((lp114
(lp115
g5
aI3
aa(lp116
g7
ag8
(S'\x07\xde\x07\x08\x00\x00\x00\x00\x00\x00'
tRp117
aa(lp118
g11
ag8
(S'\x07\xde\x07\x08\x00\x00\x00\x00\x00\x00'
tRp119
aa(lp120
g14
aI1
aa(lp121
g16
aI3
aa(lp122
g18
aI3
aa(lp123
g20
aI2
aa(lp124
g22
aI1
aa(lp125
g24
aI0
aa(lp126
g26
aI1
aa(lp127
g28
aF6.7219444444444445
aa(lp128
g30
aF1
aa(lp129
g32
aF1
aa(lp130
g34
aF1.5
aa(lp131
g36
aI1
aa(lp132
g38
aI2
aa(lp133
g40
aI2
aa(lp134
g42
aF0
aa(lp135
g44
aF43
aa(lp136
g46
ag47
aa(lp137
g49
ag47
aa(lp138
g51
a(lp139
S'popravich'
p140
aaatRp141
ag2
((lp142
(lp143
g5
aI4
aa(lp144
g7
ag8
(S'\x07\xde\x07\x10\x00\x00\x00\x00\x00\x00'
tRp145
aa(lp146
g11
ag8
(S'\x07\xde\x07\x12\x00\x00\x00\x00\x00\x00'
tRp147
aa(lp148
g14
aI3
aa(lp149
g16
aI22
aa(lp150
g18
aI17
aa(lp151
g20
aI2
aa(lp152
g22
aI3
aa(lp153
g24
aI2
aa(lp154
g26
aI2
aa(lp155
g28
aF32.997916666666669
aa(lp156
g30
aF1
aa(lp157
g32
aF1.5
aa(lp158
g34
aF11
aa(lp159
g36
aI2
aa(lp160
g38
aI2
aa(lp161
g40
aI2
aa(lp162
g42
aF1.5588235294117647
aa(lp163
g44
aF42
aa(lp164
g46
aF1
aa(lp165
g49
aF1
aa(lp166
g51
ag108
((lp167
S'jettify'
p168
aS'popravich'
p169
atRp170
aatRp171
ag2
((lp172
(lp173
g5
aI7
aa(lp174
g7
ag8
(S'\x07\xde\x0b\n\x00\x00\x00\x00\x00\x00'
tRp175
aa(lp176
g11
ag8
(S'\x07\xde\x0b\n\x00\x00\x00\x00\x00\x00'
tRp177
aa(lp178
g14
aI1
aa(lp179
g16
aI6
aa(lp180
g18
aI6
aa(lp181
g20
aI2
aa(lp182
g22
aI2
aa(lp183
g24
aI1
aa(lp184
g26
aI2
aa(lp185
g28
aF8.1006944444444446
aa(lp186
g30
aF1
aa(lp187
g32
aF1
aa(lp188
g34
aF3
aa(lp189
g36
aI2
aa(lp190
g38
aI2
aa(lp191
g40
aI2
aa(lp192
g42
aF4.666666666666667
aa(lp193
g44
aF139.5
aa(lp194
g46
aF1
aa(lp195
g49
aF1
aa(lp196
g51
ag108
((lp197
S'popravich'
p198
aS'tailhook'
p199
atRp200
aatRp201
ag2
((lp202
(lp203
g5
aI9
aa(lp204
g7
ag8
(S'\x07\xdf\x07\x07\x00\x00\x00\x00\x00\x00'
tRp205
aa(lp206
g11
ag8
(S'\x07\xdf\x07\x07\x00\x00\x00\x00\x00\x00'
tRp207
aa(lp208
g14
aI1
aa(lp209
g16
aI18
aa(lp210
g18
aI17
aa(lp211
g20
aI3
aa(lp212
g22
aI2
aa(lp213
g24
aI1
aa(lp214
g26
aI2
aa(lp215
g28
aF4.6025
aa(lp216
g30
aF2
aa(lp217
g32
aF2
aa(lp218
g34
aF18
aa(lp219
g36
aI1
aa(lp220
g38
aI1
aa(lp221
g40
aI1
aa(lp222
g42
aF0
aa(lp223
g44
aF407
aa(lp224
g46
ag47
aa(lp225
g49
ag47
aa(lp226
g51
a(lp227
S'popravich'
p228
aaatRp229
ag2
((lp230
(lp231
g5
aI10
aa(lp232
g7
ag8
(S'\x07\xdf\x07\x1c\x00\x00\x00\x00\x00\x00'
tRp233
aa(lp234
g11
ag8
(S'\x07\xdf\x07\x1c\x00\x00\x00\x00\x00\x00'
tRp235
aa(lp236
g14
aI1
aa(lp237
g16
aI12
aa(lp238
g18
aI6
aa(lp239
g20
aI2
aa(lp240
g22
aI6
aa(lp241
g24
aI5
aa(lp242
g26
aI4
aa(lp243
g28
aF2.8584027777777781
aa(lp244
g30
aF1
aa(lp245
g32
aF1.5
aa(lp246
g34
aF3
aa(lp247
g36
aI4
aa(lp248
g38
aI4
aa(lp249
g40
aI4
aa(lp250
g42
aF1.2916666666666667
aa(lp251
g44
aF332.33333333333331
aa(lp252
g46
aF1
aa(lp253
g49
aF0.66666666666666663
aa(lp254
g51
ag108
((lp255
S'asvetlov'
p256
aS'kernel0'
p257
aS'popravich'
p258
aS'krkd'
p259
atRp260
aatRp261
ag2
((lp262
(lp263
g5
aI11
aa(lp264
g7
ag8
(S'\x07\xdf\x08\x19\x00\x00\x00\x00\x00\x00'
tRp265
aa(lp266
g11
ag8
(S'\x07\xdf\x08\x19\x00\x00\x00\x00\x00\x00'
tRp267
aa(lp268
g14
aI1
aa(lp269
g16
aI15
aa(lp270
g18
aI4
aa(lp271
g20
aI2
aa(lp272
g22
aI1
aa(lp273
g24
aI1
aa(lp274
g26
aI1
aa(lp275
g28
aF0.043611111111111114
aa(lp276
g30
aF1
aa(lp277
g32
aF1
aa(lp278
g34
aF15
aa(lp279
g36
aI1
aa(lp280
g38
aI1
aa(lp281
g40
aI1
aa(lp282
g42
aF0
aa(lp283
g44
aF0
aa(lp284
g46
ag47
aa(lp285
g49
ag47
aa(lp286
g51
a(lp287
S'bdrosen96'
p288
aaatRp289
ag2
((lp290
(lp291
g5
aI12
aa(lp292
g7
ag8
(S'\x07\xdf\n\x1d\x00\x00\x00\x00\x00\x00'
tRp293
aa(lp294
g11
ag8
(S'\x07\xdf\n\x1d\x00\x00\x00\x00\x00\x00'
tRp295
aa(lp296
g14
aI1
aa(lp297
g16
aI11
aa(lp298
g18
aI7
aa(lp299
g20
aI3
aa(lp300
g22
aI3
aa(lp301
g24
aI3
aa(lp302
g26
aI3
aa(lp303
g28
aF2.0021296296296298
aa(lp304
g30
aF1.5
aa(lp305
g32
aF1.5
aa(lp306
g34
aF5.5
aa(lp307
g36
aI2
aa(lp308
g38
aI2
aa(lp309
g40
aI2
aa(lp310
g42
aF0.6428571428571429
aa(lp311
g44
aF521
aa(lp312
g46
aF1
aa(lp313
g49
aF1
aa(lp314
g51
ag108
((lp315
S'samuelcolvin'
p316
aS'popravich'
p317
atRp318
aatRp319
ag2
((lp320
(lp321
g5
aI14
aa(lp322
g7
ag8
(S'\x07\xe0\x03\n\x00\x00\x00\x00\x00\x00'
tRp323
aa(lp324
g11
ag8
(S'\x07\xe0\x03\n\x00\x00\x00\x00\x00\x00'
tRp325
aa(lp326
g14
aI1
aa(lp327
g16
aI13
aa(lp328
g18
aI5
aa(lp329
g20
aI2
aa(lp330
g22
aI4
aa(lp331
g24
aI3
aa(lp332
g26
aI4
aa(lp333
g28
aF6.7757638888888891
aa(lp334
g30
aF2
aa(lp335
g32
aF2
aa(lp336
g34
aF4.333333333333333
aa(lp337
g36
aI2
aa(lp338
g38
aI2
aa(lp339
g40
aI3
aa(lp340
g42
aF6.7000000000000002
aa(lp341
g44
aF327.5
aa(lp342
g46
aF1
aa(lp343
g49
aF0
aa(lp344
g51
ag108
((lp345
S'popravich'
p346
aS'the-panda'
p347
atRp348
aatRp349
ag2
((lp350
(lp351
g5
aI15
aa(lp352
g7
ag8
(S'\x07\xe0\x04\x05\x00\x00\x00\x00\x00\x00'
tRp353
aa(lp354
g11
ag8
(S'\x07\xe0\x04\x05\x00\x00\x00\x00\x00\x00'
tRp355
aa(lp356
g14
aI1
aa(lp357
g16
aI12
aa(lp358
g18
aI2
aa(lp359
g20
aI1
aa(lp360
g22
aI2
aa(lp361
g24
aI1
aa(lp362
g26
aI2
aa(lp363
g28
aF9.9911111111111097
aa(lp364
g30
aF1
aa(lp365
g32
aF1
aa(lp366
g34
aF6
aa(lp367
g36
aI2
aa(lp368
g38
aI2
aa(lp369
g40
aI2
aa(lp370
g42
aF15.5
aa(lp371
g44
aF353.5
aa(lp372
g46
aF1
aa(lp373
g49
aF1
aa(lp374
g51
ag108
((lp375
S'popravich'
p376
aS'the-panda'
p377
atRp378
aatRp379
ag2
((lp380
(lp381
g5
aI16
aa(lp382
g7
ag8
(S'\x07\xe0\x05\x1a\x00\x00\x00\x00\x00\x00'
tRp383
aa(lp384
g11
ag8
(S'\x07\xe0\x05\x1a\x00\x00\x00\x00\x00\x00'
tRp385
aa(lp386
g14
aI1
aa(lp387
g16
aI5
aa(lp388
g18
aI31
aa(lp389
g20
aI2
aa(lp390
g22
aI1
aa(lp391
g24
aI0
aa(lp392
g26
aI1
aa(lp393
g28
aF10.144444444444444
aa(lp394
g30
aF1
aa(lp395
g32
aF1
aa(lp396
g34
aF5
aa(lp397
g36
aI1
aa(lp398
g38
aI1
aa(lp399
g40
aI1
aa(lp400
g42
aF0
aa(lp401
g44
aF731
aa(lp402
g46
ag47
aa(lp403
g49
ag47
aa(lp404
g51
a(lp405
S'popravich'
p406
aaatRp407
ag2
((lp408
(lp409
g5
aI17
aa(lp410
g7
ag8
(S'\x07\xe0\x06\x02\x00\x00\x00\x00\x00\x00'
tRp411
aa(lp412
g11
ag8
(S'\x07\xe0\x06\x03\x00\x00\x00\x00\x00\x00'
tRp413
aa(lp414
g14
aI2
aa(lp415
g16
aI18
aa(lp416
g18
aI36
aa(lp417
g20
aI3
aa(lp418
g22
aI3
aa(lp419
g24
aI1
aa(lp420
g26
aI3
aa(lp421
g28
aF5.3826851851851849
aa(lp422
g30
aF3
aa(lp423
g32
aF3
aa(lp424
g34
aF18
aa(lp425
g36
aI1
aa(lp426
g38
aI1
aa(lp427
g40
aI1
aa(lp428
g42
aF0
aa(lp429
g44
aF739
aa(lp430
g46
ag47
aa(lp431
g49
ag47
aa(lp432
g51
a(lp433
S'popravich'
p434
aaatRp435
ag2
((lp436
(lp437
g5
aI20
aa(lp438
g7
ag8
(S'\x07\xe0\t\x1b\x00\x00\x00\x00\x00\x00'
tRp439
aa(lp440
g11
ag8
(S'\x07\xe0\t\x1b\x00\x00\x00\x00\x00\x00'
tRp441
aa(lp442
g14
aI1
aa(lp443
g16
aI21
aa(lp444
g18
aI3
aa(lp445
g20
aI2
aa(lp446
g22
aI12
aa(lp447
g24
aI11
aa(lp448
g26
aI11
aa(lp449
g28
aF3.2458585858585853
aa(lp450
g30
aF3.6666666666666665
aa(lp451
g32
aF4
aa(lp452
g34
aF5.25
aa(lp453
g36
aI3
aa(lp454
g38
aI4
aa(lp455
g40
aI4
aa(lp456
g42
aF2
aa(lp457
g44
aF313.33333333333331
aa(lp458
g46
aF1
aa(lp459
g49
aF1
aa(lp460
g51
ag108
((lp461
S'alefteris'
p462
aS'popravich'
p463
aS'pyup-bot'
p464
atRp465
aatRp466
ag2
((lp467
(lp468
g5
aI21
aa(lp469
g7
ag8
(S'\x07\xe0\x0b\x0e\x00\x00\x00\x00\x00\x00'
tRp470
aa(lp471
g11
ag8
(S'\x07\xe0\x0b\x0e\x00\x00\x00\x00\x00\x00'
tRp472
aa(lp473
g14
aI1
aa(lp474
g16
aI5
aa(lp475
g18
aI3
aa(lp476
g20
aI1
aa(lp477
g22
aI4
aa(lp478
g24
aI4
aa(lp479
g26
aI2
aa(lp480
g28
aF4.8597222222222225
aa(lp481
g30
aF1
aa(lp482
g32
aF2
aa(lp483
g34
aF1.6666666666666667
aa(lp484
g36
aI2
aa(lp485
g38
aI3
aa(lp486
g40
aI3
aa(lp487
g42
aF9.1666666666666661
aa(lp488
g44
aF476
aa(lp489
g46
aF0
aa(lp490
g49
aF0
aa(lp491
g51
ag108
((lp492
S'popravich'
p493
aS'pyup-bot'
p494
atRp495
aatRp496
ag2
((lp497
(lp498
g5
aI22
aa(lp499
g7
ag8
(S'\x07\xe0\x0c\x1c\x00\x00\x00\x00\x00\x00'
tRp500
aa(lp501
g11
ag8
(S'\x07\xe0\x0c\x1c\x00\x00\x00\x00\x00\x00'
tRp502
aa(lp503
g14
aI1
aa(lp504
g16
aI15
aa(lp505
g18
aI7
aa(lp506
g20
aI1
aa(lp507
g22
aI1
aa(lp508
g24
aI1
aa(lp509
g26
aI1
aa(lp510
g28
aF4.7188888888888885
aa(lp511
g30
aF1
aa(lp512
g32
aF1
aa(lp513
g34
aF15
aa(lp514
g36
aI1
aa(lp515
g38
aI1
aa(lp516
g40
aI1
aa(lp517
g42
aF0
aa(lp518
g44
aF947
aa(lp519
g46
ag47
aa(lp520
g49
ag47
aa(lp521
g51
a(lp522
S'popravich'
p523
aaatRp524
ag2
((lp525
(lp526
g5
aI23
aa(lp527
g7
ag8
(S'\x07\xe1\x01\x04\x00\x00\x00\x00\x00\x00'
tRp528
aa(lp529
g11
ag8
(S'\x07\xe1\x01\x05\x00\x00\x00\x00\x00\x00'
tRp530
aa(lp531
g14
aI2
aa(lp532
g16
aI19
aa(lp533
g18
aI4
aa(lp534
g20
aI1
aa(lp535
g22
aI1
aa(lp536
g24
aI0
aa(lp537
g26
aI1
aa(lp538
g28
aF37.389722222222225
aa(lp539
g30
aF1
aa(lp540
g32
aF1
aa(lp541
g34
aF9.5
aa(lp542
g36
aI1
aa(lp543
g38
aI2
aa(lp544
g40
aI2
aa(lp545
g42
aF0
aa(lp546
g44
aF1
aa(lp547
g46
ag47
aa(lp548
g49
ag47
aa(lp549
g51
a(lp550
S'polyn0m'
p551
aaatRp552
ag2
((lp553
(lp554
g5
aI24
aa(lp555
g7
ag8
(S'\x07\xe1\x01\n\x00\x00\x00\x00\x00\x00'
tRp556
aa(lp557
g11
ag8
(S'\x07\xe1\x01\n\x00\x00\x00\x00\x00\x00'
tRp558
aa(lp559
g14
aI1
aa(lp560
g16
aI16
aa(lp561
g18
aI14
aa(lp562
g20
aI3
aa(lp563
g22
aI1
aa(lp564
g24
aI1
aa(lp565
g26
aI1
aa(lp566
g28
aF0.45000000000000001
aa(lp567
g30
aF1
aa(lp568
g32
aF1
aa(lp569
g34
aF16
aa(lp570
g36
aI1
aa(lp571
g38
aI1
aa(lp572
g40
aI1
aa(lp573
g42
aF0
aa(lp574
g44
aF960
aa(lp575
g46
ag47
aa(lp576
g49
ag47
aa(lp577
g51
a(lp578
S'popravich'
p579
aaatRp580
ag2
((lp581
(lp582
g5
aI25
aa(lp583
g7
ag8
(S'\x07\xe1\x01\x11\x00\x00\x00\x00\x00\x00'
tRp584
aa(lp585
g11
ag8
(S'\x07\xe1\x01\x11\x00\x00\x00\x00\x00\x00'
tRp586
aa(lp587
g14
aI1
aa(lp588
g16
aI6
aa(lp589
g18
aI19
aa(lp590
g20
aI2
aa(lp591
g22
aI5
aa(lp592
g24
aI1
aa(lp593
g26
aI4
aa(lp594
g28
aF9.8927777777777788
aa(lp595
g30
aF4
aa(lp596
g32
aF5
aa(lp597
g34
aF1.5
aa(lp598
g36
aI1
aa(lp599
g38
aI4
aa(lp600
g40
aI4
aa(lp601
g42
aF0
aa(lp602
g44
aF967
aa(lp603
g46
ag47
aa(lp604
g49
ag47
aa(lp605
g51
a(lp606
S'popravich'
p607
aaatRp608
ag2
((lp609
(lp610
g5
aI26
aa(lp611
g7
ag8
(S'\x07\xe1\x04\x1d\x00\x00\x00\x00\x00\x00'
tRp612
aa(lp613
g11
ag8
(S'\x07\xe1\x04\x1d\x00\x00\x00\x00\x00\x00'
tRp614
aa(lp615
g14
aI1
aa(lp616
g16
aI0
aa(lp617
g18
aI0
aa(lp618
g20
aI0
aa(lp619
g22
aI1
aa(lp620
g24
aI1
aa(lp621
g26
aI0
aa(lp622
g28
aF0
aa(lp623
g30
ag47
aa(lp624
g32
ag47
aa(lp625
g34
aF0
aa(lp626
g36
aI0
aa(lp627
g38
aI2
aa(lp628
g40
aI2
aa(lp629
g42
aF0
aa(lp630
g44
aF0
aa(lp631
g46
ag47
aa(lp632
g49
ag47
aa(lp633
g51
a(lp634
aatRp635
ag2
((lp636
(lp637
g5
aI27
aa(lp638
g7
ag8
(S'\x07\xe1\x05\x03\x00\x00\x00\x00\x00\x00'
tRp639
aa(lp640
g11
ag8
(S'\x07\xe1\x05\x05\x00\x00\x00\x00\x00\x00'
tRp641
aa(lp642
g14
aI3
aa(lp643
g16
aI53
aa(lp644
g18
aI0
aa(lp645
g20
aI0
aa(lp646
g22
aI9
aa(lp647
g24
aI6
aa(lp648
g26
aI8
aa(lp649
g28
aF13.52920138888889
aa(lp650
g30
aF4
aa(lp651
g32
aF4.5
aa(lp652
g34
aF17.666666666666668
aa(lp653
g36
aI2
aa(lp654
g38
aI3
aa(lp655
g40
aI3
aa(lp656
g42
aF0
aa(lp657
g44
aF648
aa(lp658
g46
ag47
aa(lp659
g49
ag47
aa(lp660
g51
a(lp661
S'popravich'
p662
aS'pyup-bot'
p663
aaatRp664
ag2
((lp665
(lp666
g5
aI28
aa(lp667
g7
ag8
(S'\x07\xe1\x05\x0b\x00\x00\x00\x00\x00\x00'
tRp668
aa(lp669
g11
ag8
(S'\x07\xe1\x05\x0b\x00\x00\x00\x00\x00\x00'
tRp670
aa(lp671
g14
aI1
aa(lp672
g16
aI14
aa(lp673
g18
aI0
aa(lp674
g20
aI0
aa(lp675
g22
aI4
aa(lp676
g24
aI2
aa(lp677
g26
aI3
aa(lp678
g28
aF15.180648148148146
aa(lp679
g30
aF1.5
aa(lp680
g32
aF2
aa(lp681
g34
aF7
aa(lp682
g36
aI2
aa(lp683
g38
aI2
aa(lp684
g40
aI2
aa(lp685
g42
aF0
aa(lp686
g44
aF654
aa(lp687
g46
ag47
aa(lp688
g49
ag47
aa(lp689
g51
a(lp690
S'popravich'
p691
aS'pyup-bot'
p692
aaatRp693
ag2
((lp694
(lp695
g5
aI29
aa(lp696
g7
ag8
(S'\x07\xe1\x05\x0f\x00\x00\x00\x00\x00\x00'
tRp697
aa(lp698
g11
ag8
(S'\x07\xe1\x05\x0f\x00\x00\x00\x00\x00\x00'
tRp699
aa(lp700
g14
aI1
aa(lp701
g16
aI12
aa(lp702
g18
aI0
aa(lp703
g20
aI0
aa(lp704
g22
aI6
aa(lp705
g24
aI2
aa(lp706
g26
aI6
aa(lp707
g28
aF9.3287037037037042
aa(lp708
g30
aF3
aa(lp709
g32
aF3
aa(lp710
g34
aF3
aa(lp711
g36
aI2
aa(lp712
g38
aI4
aa(lp713
g40
aI4
aa(lp714
g42
aF0
aa(lp715
g44
aF658
aa(lp716
g46
ag47
aa(lp717
g49
ag47
aa(lp718
g51
a(lp719
S'popravich'
p720
aS'pyup-bot'
p721
aaatRp722
ag2
((lp723
(lp724
g5
aI30
aa(lp725
g7
ag8
(S'\x07\xe1\x06\x07\x00\x00\x00\x00\x00\x00'
tRp726
aa(lp727
g11
ag8
(S'\x07\xe1\x06\t\x00\x00\x00\x00\x00\x00'
tRp728
aa(lp729
g14
aI3
aa(lp730
g16
aI28
aa(lp731
g18
aI0
aa(lp732
g20
aI0
aa(lp733
g22
aI7
aa(lp734
g24
aI4
aa(lp735
g26
aI4
aa(lp736
g28
aF48.491666666666667
aa(lp737
g30
aF2
aa(lp738
g32
aF3.5
aa(lp739
g34
aF14
aa(lp740
g36
aI2
aa(lp741
g38
aI2
aa(lp742
g40
aI2
aa(lp743
g42
aF0
aa(lp744
g44
aF683
aa(lp745
g46
ag47
aa(lp746
g49
ag47
aa(lp747
g51
a(lp748
S'popravich'
p749
aS'pyup-bot'
p750
aaatRp751
ag2
((lp752
(lp753
g5
aI31
aa(lp754
g7
ag8
(S'\x07\xe1\x06\x0e\x00\x00\x00\x00\x00\x00'
tRp755
aa(lp756
g11
ag8
(S'\x07\xe1\x06\x0e\x00\x00\x00\x00\x00\x00'
tRp757
aa(lp758
g14
aI1
aa(lp759
g16
aI1
aa(lp760
g18
aI0
aa(lp761
g20
aI0
aa(lp762
g22
aI1
aa(lp763
g24
aI1
aa(lp764
g26
aI1
aa(lp765
g28
aF3.5619444444444444
aa(lp766
g30
ag47
aa(lp767
g32
ag47
aa(lp768
g34
aF1
aa(lp769
g36
aI0
aa(lp770
g38
aI1
aa(lp771
g40
aI1
aa(lp772
g42
aF0
aa(lp773
g44
aF0
aa(lp774
g46
ag47
aa(lp775
g49
ag47
aa(lp776
g51
a(lp777
aatRp778
ag2
((lp779
(lp780
g5
aI32
aa(lp781
g7
ag8
(S'\x07\xe1\x06\x15\x00\x00\x00\x00\x00\x00'
tRp782
aa(lp783
g11
ag8
(S'\x07\xe1\x06\x15\x00\x00\x00\x00\x00\x00'
tRp784
aa(lp785
g14
aI1
aa(lp786
g16
aI17
aa(lp787
g18
aI0
aa(lp788
g20
aI0
aa(lp789
g22
aI8
aa(lp790
g24
aI4
aa(lp791
g26
aI8
aa(lp792
g28
aF6.1665972222222223
aa(lp793
g30
aF4
aa(lp794
g32
aF4
aa(lp795
g34
aF8.5
aa(lp796
g36
aI2
aa(lp797
g38
aI2
aa(lp798
g40
aI2
aa(lp799
g42
aF0
aa(lp800
g44
aF695
aa(lp801
g46
ag47
aa(lp802
g49
ag47
aa(lp803
g51
a(lp804
S'popravich'
p805
aS'pyup-bot'
p806
aaatRp807
ag2
((lp808
(lp809
g5
aI33
aa(lp810
g7
ag8
(S'\x07\xe1\x06\x1e\x00\x00\x00\x00\x00\x00'
tRp811
aa(lp812
g11
ag8
(S'\x07\xe1\x06\x1e\x00\x00\x00\x00\x00\x00'
tRp813
aa(lp814
g14
aI1
aa(lp815
g16
aI7
aa(lp816
g18
aI0
aa(lp817
g20
aI0
aa(lp818
g22
aI4
aa(lp819
g24
aI3
aa(lp820
g26
aI3
aa(lp821
g28
aF2.3912962962962965
aa(lp822
g30
aF3
aa(lp823
g32
aF4
aa(lp824
g34
aF3.5
aa(lp825
g36
aI1
aa(lp826
g38
aI2
aa(lp827
g40
aI2
aa(lp828
g42
aF0
aa(lp829
g44
aF1131
aa(lp830
g46
ag47
aa(lp831
g49
ag47
aa(lp832
g51
a(lp833
S'popravich'
p834
aaatRp835
ag2
((lp836
(lp837
g5
aI34
aa(lp838
g7
ag8
(S'\x07\xe1\x07\x04\x00\x00\x00\x00\x00\x00'
tRp839
aa(lp840
g11
ag8
(S'\x07\xe1\x07\x04\x00\x00\x00\x00\x00\x00'
tRp841
aa(lp842
g14
aI1
aa(lp843
g16
aI4
aa(lp844
g18
aI0
aa(lp845
g20
aI0
aa(lp846
g22
aI1
aa(lp847
g24
aI1
aa(lp848
g26
aI0
aa(lp849
g28
aF0
aa(lp850
g30
aF0
aa(lp851
g32
aF1
aa(lp852
g34
aF2
aa(lp853
g36
aI1
aa(lp854
g38
aI2
aa(lp855
g40
aI2
aa(lp856
g42
aF0
aa(lp857
g44
aF281
aa(lp858
g46
ag47
aa(lp859
g49
ag47
aa(lp860
g51
a(lp861
S'pyup-bot'
p862
aaatRp863
ag2
((lp864
(lp865
g5
aI35
aa(lp866
g7
ag8
(S'\x07\xe1\x07\x0c\x00\x00\x00\x00\x00\x00'
tRp867
aa(lp868
g11
ag8
(S'\x07\xe1\x07\x0c\x00\x00\x00\x00\x00\x00'
tRp869
aa(lp870
g14
aI1
aa(lp871
g16
aI0
aa(lp872
g18
aI0
aa(lp873
g20
aI0
aa(lp874
g22
aI2
aa(lp875
g24
aI0
aa(lp876
g26
aI2
aa(lp877
g28
aF7.5670833333333327
aa(lp878
g30
ag47
aa(lp879
g32
ag47
aa(lp880
g34
aF0
aa(lp881
g36
aI0
aa(lp882
g38
aI3
aa(lp883
g40
aI3
aa(lp884
g42
aF0
aa(lp885
g44
aF0
aa(lp886
g46
ag47
aa(lp887
g49
ag47
aa(lp888
g51
a(lp889
aatRp890
ag2
((lp891
(lp892
g5
aI37
aa(lp893
g7
ag8
(S'\x07\xe1\x07\x19\x00\x00\x00\x00\x00\x00'
tRp894
aa(lp895
g11
ag8
(S'\x07\xe1\x07\x19\x00\x00\x00\x00\x00\x00'
tRp896
aa(lp897
g14
aI1
aa(lp898
g16
aI4
aa(lp899
g18
aI0
aa(lp900
g20
aI0
aa(lp901
g22
aI1
aa(lp902
g24
aI1
aa(lp903
g26
aI0
aa(lp904
g28
aF0
aa(lp905
g30
ag47
aa(lp906
g32
ag47
aa(lp907
g34
aF4
aa(lp908
g36
aI0
aa(lp909
g38
aI1
aa(lp910
g40
aI1
aa(lp911
g42
aF0
aa(lp912
g44
aF0
aa(lp913
g46
ag47
aa(lp914
g49
ag47
aa(lp915
g51
a(lp916
aatRp917
ag2
((lp918
(lp919
g5
aI38
aa(lp920
g7
ag8
(S'\x07\xe1\t\x1a\x00\x00\x00\x00\x00\x00'
tRp921
aa(lp922
g11
ag8
(S'\x07\xe1\t\x1a\x00\x00\x00\x00\x00\x00'
tRp923
aa(lp924
g14
aI1
aa(lp925
g16
aI12
aa(lp926
g18
aI0
aa(lp927
g20
aI0
aa(lp928
g22
aI10
aa(lp929
g24
aI3
aa(lp930
g26
aI10
aa(lp931
g28
aF5.4940277777777782
aa(lp932
g30
aF5
aa(lp933
g32
aF5
aa(lp934
g34
aF6
aa(lp935
g36
aI2
aa(lp936
g38
aI2
aa(lp937
g40
aI2
aa(lp938
g42
aF0
aa(lp939
g44
aF792
aa(lp940
g46
ag47
aa(lp941
g49
ag47
aa(lp942
g51
a(lp943
S'popravich'
p944
aS'pyup-bot'
p945
aaatRp946
ag2
((lp947
(lp948
g5
aI39
aa(lp949
g7
ag8
(S'\x07\xe1\n\t\x00\x00\x00\x00\x00\x00'
tRp950
aa(lp951
g11
ag8
(S'\x07\xe1\n\t\x00\x00\x00\x00\x00\x00'
tRp952
aa(lp953
g14
aI1
aa(lp954
g16
aI5
aa(lp955
g18
aI0
aa(lp956
g20
aI0
aa(lp957
g22
aI4
aa(lp958
g24
aI2
aa(lp959
g26
aI4
aa(lp960
g28
aF13.530208333333333
aa(lp961
g30
aF2
aa(lp962
g32
aF2
aa(lp963
g34
aF2.5
aa(lp964
g36
aI2
aa(lp965
g38
aI2
aa(lp966
g40
aI2
aa(lp967
g42
aF0
aa(lp968
g44
aF805
aa(lp969
g46
ag47
aa(lp970
g49
ag47
aa(lp971
g51
a(lp972
S'popravich'
p973
aS'pyup-bot'
p974
aaatRp975
ag2
((lp976
(lp977
g5
aI40
aa(lp978
g7
ag8
(S'\x07\xe1\n\x11\x00\x00\x00\x00\x00\x00'
tRp979
aa(lp980
g11
ag8
(S'\x07\xe1\n\x11\x00\x00\x00\x00\x00\x00'
tRp981
aa(lp982
g14
aI1
aa(lp983
g16
aI0
aa(lp984
g18
aI0
aa(lp985
g20
aI0
aa(lp986
g22
aI1
aa(lp987
g24
aI0
aa(lp988
g26
aI1
aa(lp989
g28
aF10.500277777777777
aa(lp990
g30
ag47
aa(lp991
g32
ag47
aa(lp992
g34
aF0
aa(lp993
g36
aI0
aa(lp994
g38
aI2
aa(lp995
g40
aI2
aa(lp996
g42
aF0
aa(lp997
g44
aF0
aa(lp998
g46
ag47
aa(lp999
g49
ag47
aa(lp1000
g51
a(lp1001
aatRp1002
a.