(lp1
ccollections
OrderedDict
p2
((lp3
(lp4
S'burst_id'
p5
aI0
aa(lp6
S'burst_start'
p7
acdatetime
datetime
p8
(S'\x07\xdc\x01\x10\x00\x00\x00\x00\x00\x00'
tRp9
aa(lp10
S'burst_end'
p11
ag8
(S'\x07\xdc\x01\x10\x00\x00\x00\x00\x00\x00'
tRp12
aa(lp13
S'burst_duration_days'
p14
aI1
aa(lp15
S'total_activity'
p16
aI3
aa(lp17
S'num_files (Change Size)'
p18
aI0
aa(lp19
S'file_modules (#Teams)'
p20
aI0
aa(lp21
S'total_num_issues'
p22
aI1
aa(lp23
S'issues_opened'
p24
aI1
aa(lp25
S'issues_closed'
p26
aI0
aa(lp27
S'avg_res_time_hours'
p28
aF0
aa(lp29
S'efficiency'
p30
aS'NA'
p31
aa(lp32
S'issue_per_person (Team Load)'
p33
ag31
aa(lp34
S'activity_per_person'
p35
aF1.5
aa(lp36
S'committing_users'
p37
aI0
aa(lp38
S'commenting_users'
p39
aI2
aa(lp40
S'total_actors'
p41
aI2
aa(lp42
S'component_experience'
p43
aF0
aa(lp44
S'tenure'
p45
aF0
aa(lp46
S'structural_congruence_fct'
p47
ag31
aa(lp48
S'mr_congruence_fct'
p49
ag31
aa(lp50
S'users_to_coordinate'
p51
a(lp52
aatRp53
ag2
((lp54
(lp55
g5
aI2
aa(lp56
g7
ag8
(S'\x07\xdc\x03\r\x00\x00\x00\x00\x00\x00'
tRp57
aa(lp58
g11
ag8
(S'\x07\xdc\x03\x10\x00\x00\x00\x00\x00\x00'
tRp59
aa(lp60
g14
aI4
aa(lp61
g16
aI98
aa(lp62
g18
aI8
aa(lp63
g20
aI1
aa(lp64
g22
aI11
aa(lp65
g24
aI11
aa(lp66
g26
aI4
aa(lp67
g28
aF1.0341666666666665
aa(lp68
g30
aF0.66666666666666663
aa(lp69
g33
aF1.8333333333333333
aa(lp70
g35
aF16.333333333333332
aa(lp71
g37
aI6
aa(lp72
g39
aI5
aa(lp73
g41
aI6
aa(lp74
g43
aF0.020833333333333332
aa(lp75
g45
aF40.5
aa(lp76
g47
aF0.9285714285714286
aa(lp77
g49
aF0.42857142857142855
aa(lp78
g51
ac__builtin__
set
p79
((lp80
S'dgouldin'
p81
aS'kennethreitz'
p82
aS'ghickman'
p83
aS'idan'
p84
aS'ib-lundgren'
p85
aS'pydanny'
p86
atRp87
aatRp88
ag2
((lp89
(lp90
g5
aI3
aa(lp91
g7
ag8
(S'\x07\xdc\x03\x18\x00\x00\x00\x00\x00\x00'
tRp92
aa(lp93
g11
ag8
(S'\x07\xdc\x03\x18\x00\x00\x00\x00\x00\x00'
tRp94
aa(lp95
g14
aI1
aa(lp96
g16
aI29
aa(lp97
g18
aI3
aa(lp98
g20
aI1
aa(lp99
g22
aI6
aa(lp100
g24
aI0
aa(lp101
g26
aI6
aa(lp102
g28
aF17.417916666666667
aa(lp103
g30
aF3
aa(lp104
g33
aF3
aa(lp105
g35
aF7.25
aa(lp106
g37
aI2
aa(lp107
g39
aI4
aa(lp108
g41
aI4
aa(lp109
g43
aF0.66666666666666663
aa(lp110
g45
aF39
aa(lp111
g47
aF1
aa(lp112
g49
aF1
aa(lp113
g51
ag79
((lp114
S'dgouldin'
p115
aS'ib-lundgren'
p116
atRp117
aatRp118
ag2
((lp119
(lp120
g5
aI4
aa(lp121
g7
ag8
(S'\x07\xdc\x03\x1f\x00\x00\x00\x00\x00\x00'
tRp122
aa(lp123
g11
ag8
(S'\x07\xdc\x03\x1f\x00\x00\x00\x00\x00\x00'
tRp124
aa(lp125
g14
aI1
aa(lp126
g16
aI11
aa(lp127
g18
aI7
aa(lp128
g20
aI1
aa(lp129
g22
aI5
aa(lp130
g24
aI5
aa(lp131
g26
aI2
aa(lp132
g28
aF14.570555555555556
aa(lp133
g30
aF1
aa(lp134
g33
aF2.5
aa(lp135
g35
aF2.75
aa(lp136
g37
aI2
aa(lp137
g39
aI4
aa(lp138
g41
aI4
aa(lp139
g43
aF0
aa(lp140
g45
aF46
aa(lp141
g47
aF1
aa(lp142
g49
aF1
aa(lp143
g51
ag79
((lp144
S'dgouldin'
p145
aS'ib-lundgren'
p146
atRp147
aatRp148
ag2
((lp149
(lp150
g5
aI5
aa(lp151
g7
ag8
(S'\x07\xdc\x04\x12\x00\x00\x00\x00\x00\x00'
tRp152
aa(lp153
g11
ag8
(S'\x07\xdc\x04\x13\x00\x00\x00\x00\x00\x00'
tRp154
aa(lp155
g14
aI2
aa(lp156
g16
aI66
aa(lp157
g18
aI6
aa(lp158
g20
aI1
aa(lp159
g22
aI3
aa(lp160
g24
aI3
aa(lp161
g26
aI1
aa(lp162
g28
aF16.079722222222223
aa(lp163
g30
aF0.5
aa(lp164
g33
aF1.5
aa(lp165
g35
aF16.5
aa(lp166
g37
aI2
aa(lp167
g39
aI4
aa(lp168
g41
aI4
aa(lp169
g43
aF0.58333333333333337
aa(lp170
g45
aF75.5
aa(lp171
g47
aF1
aa(lp172
g49
aF1
aa(lp173
g51
ag79
((lp174
S'calebbrown'
p175
aS'idan'
p176
atRp177
aatRp178
ag2
((lp179
(lp180
g5
aI6
aa(lp181
g7
ag8
(S'\x07\xdc\x04\x18\x00\x00\x00\x00\x00\x00'
tRp182
aa(lp183
g11
ag8
(S'\x07\xdc\x04\x1a\x00\x00\x00\x00\x00\x00'
tRp184
aa(lp185
g14
aI3
aa(lp186
g16
aI39
aa(lp187
g18
aI9
aa(lp188
g20
aI1
aa(lp189
g22
aI3
aa(lp190
g24
aI2
aa(lp191
g26
aI2
aa(lp192
g28
aF28.248472222222222
aa(lp193
g30
aF0.5
aa(lp194
g33
aF0.75
aa(lp195
g35
aF9.75
aa(lp196
g37
aI4
aa(lp197
g39
aI4
aa(lp198
g41
aI4
aa(lp199
g43
aF0.72222222222222221
aa(lp200
g45
aF77.25
aa(lp201
g47
aF1
aa(lp202
g49
aF0.66666666666666663
aa(lp203
g51
ag79
((lp204
S'dgouldin'
p205
aS'ib-lundgren'
p206
aS'calebbrown'
p207
aS'idan'
p208
atRp209
aatRp210
ag2
((lp211
(lp212
g5
aI7
aa(lp213
g7
ag8
(S'\x07\xdc\x06\x0c\x00\x00\x00\x00\x00\x00'
tRp214
aa(lp215
g11
ag8
(S'\x07\xdc\x06\x0c\x00\x00\x00\x00\x00\x00'
tRp216
aa(lp217
g14
aI1
aa(lp218
g16
aI6
aa(lp219
g18
aI4
aa(lp220
g20
aI1
aa(lp221
g22
aI6
aa(lp222
g24
aI1
aa(lp223
g26
aI6
aa(lp224
g28
aF15.172222222222222
aa(lp225
g30
aF6
aa(lp226
g33
aF6
aa(lp227
g35
aF1.5
aa(lp228
g37
aI1
aa(lp229
g39
aI4
aa(lp230
g41
aI4
aa(lp231
g43
aF0
aa(lp232
g45
aF147
aa(lp233
g47
ag31
aa(lp234
g49
ag31
aa(lp235
g51
a(lp236
S'ib-lundgren'
p237
aaatRp238
ag2
((lp239
(lp240
g5
aI8
aa(lp241
g7
ag8
(S'\x07\xdc\x0b\x08\x00\x00\x00\x00\x00\x00'
tRp242
aa(lp243
g11
ag8
(S'\x07\xdc\x0b\x08\x00\x00\x00\x00\x00\x00'
tRp244
aa(lp245
g14
aI1
aa(lp246
g16
aI6
aa(lp247
g18
aI7
aa(lp248
g20
aI1
aa(lp249
g22
aI3
aa(lp250
g24
aI0
aa(lp251
g26
aI3
aa(lp252
g28
aF20.458796296296299
aa(lp253
g30
aF3
aa(lp254
g33
aF3
aa(lp255
g35
aF2
aa(lp256
g37
aI1
aa(lp257
g39
aI3
aa(lp258
g41
aI3
aa(lp259
g43
aF0
aa(lp260
g45
aF296
aa(lp261
g47
ag31
aa(lp262
g49
ag31
aa(lp263
g51
a(lp264
S'ib-lundgren'
p265
aaatRp266
ag2
((lp267
(lp268
g5
aI9
aa(lp269
g7
ag8
(S'\x07\xdc\x0b\x10\x00\x00\x00\x00\x00\x00'
tRp270
aa(lp271
g11
ag8
(S'\x07\xdc\x0b\x10\x00\x00\x00\x00\x00\x00'
tRp272
aa(lp273
g14
aI1
aa(lp274
g16
aI7
aa(lp275
g18
aI0
aa(lp276
g20
aI0
aa(lp277
g22
aI11
aa(lp278
g24
aI9
aa(lp279
g26
aI4
aa(lp280
g28
aF4.2870833333333325
aa(lp281
g30
aF1.3333333333333333
aa(lp282
g33
aF3.6666666666666665
aa(lp283
g35
aF0.875
aa(lp284
g37
aI3
aa(lp285
g39
aI8
aa(lp286
g41
aI8
aa(lp287
g43
aF0
aa(lp288
g45
aF203.33333333333334
aa(lp289
g47
ag31
aa(lp290
g49
ag31
aa(lp291
g51
a(lp292
S'kennethreitz'
p293
aS'tomchristie'
p294
aS'ib-lundgren'
p295
aaatRp296
ag2
((lp297
(lp298
g5
aI10
aa(lp299
g7
ag8
(S'\x07\xdd\x01\x0f\x00\x00\x00\x00\x00\x00'
tRp300
aa(lp301
g11
ag8
(S'\x07\xdd\x01\x0f\x00\x00\x00\x00\x00\x00'
tRp302
aa(lp303
g14
aI1
aa(lp304
g16
aI7
aa(lp305
g18
aI3
aa(lp306
g20
aI1
aa(lp307
g22
aI5
aa(lp308
g24
aI3
aa(lp309
g26
aI3
aa(lp310
g28
aF17.63435185185185
aa(lp311
g30
aF1.5
aa(lp312
g33
aF2.5
aa(lp313
g35
aF1.75
aa(lp314
g37
aI2
aa(lp315
g39
aI4
aa(lp316
g41
aI4
aa(lp317
g43
aF1
aa(lp318
g45
aF364
aa(lp319
g47
aF1
aa(lp320
g49
aF1
aa(lp321
g51
ag79
((lp322
S'russss'
p323
aS'ib-lundgren'
p324
atRp325
aatRp326
ag2
((lp327
(lp328
g5
aI11
aa(lp329
g7
ag8
(S'\x07\xdd\x02\x03\x00\x00\x00\x00\x00\x00'
tRp330
aa(lp331
g11
ag8
(S'\x07\xdd\x02\x06\x00\x00\x00\x00\x00\x00'
tRp332
aa(lp333
g14
aI4
aa(lp334
g16
aI47
aa(lp335
g18
aI11
aa(lp336
g20
aI1
aa(lp337
g22
aI12
aa(lp338
g24
aI6
aa(lp339
g26
aI11
aa(lp340
g28
aF11.575631313131312
aa(lp341
g30
aF3.6666666666666665
aa(lp342
g33
aF4
aa(lp343
g35
aF6.7142857142857144
aa(lp344
g37
aI3
aa(lp345
g39
aI7
aa(lp346
g41
aI7
aa(lp347
g43
aF0.93939393939393945
aa(lp348
g45
aF195
aa(lp349
g47
aF1
aa(lp350
g49
aF0.66666666666666663
aa(lp351
g51
ag79
((lp352
S'ondrowan'
p353
aS'ib-lundgren'
p354
aS'andreif'
p355
atRp356
aatRp357
ag2
((lp358
(lp359
g5
aI12
aa(lp360
g7
ag8
(S'\x07\xdd\x02\r\x00\x00\x00\x00\x00\x00'
tRp361
aa(lp362
g11
ag8
(S'\x07\xdd\x02\x0e\x00\x00\x00\x00\x00\x00'
tRp363
aa(lp364
g14
aI2
aa(lp365
g16
aI20
aa(lp366
g18
aI2
aa(lp367
g20
aI1
aa(lp368
g22
aI6
aa(lp369
g24
aI6
aa(lp370
g26
aI4
aa(lp371
g28
aF12.567291666666666
aa(lp372
g30
aF2
aa(lp373
g33
aF3
aa(lp374
g35
aF10
aa(lp375
g37
aI2
aa(lp376
g39
aI2
aa(lp377
g41
aI2
aa(lp378
g43
aF0.75
aa(lp379
g45
aF203
aa(lp380
g47
aF1
aa(lp381
g49
aF1
aa(lp382
g51
ag79
((lp383
S'ondrowan'
p384
aS'ib-lundgren'
p385
atRp386
aatRp387
ag2
((lp388
(lp389
g5
aI13
aa(lp390
g7
ag8
(S'\x07\xdd\x02\x12\x00\x00\x00\x00\x00\x00'
tRp391
aa(lp392
g11
ag8
(S'\x07\xdd\x02\x12\x00\x00\x00\x00\x00\x00'
tRp393
aa(lp394
g14
aI1
aa(lp395
g16
aI7
aa(lp396
g18
aI1
aa(lp397
g20
aI1
aa(lp398
g22
aI6
aa(lp399
g24
aI3
aa(lp400
g26
aI3
aa(lp401
g28
aF18.798240740740741
aa(lp402
g30
aF3
aa(lp403
g33
aF6
aa(lp404
g35
aF1.1666666666666667
aa(lp405
g37
aI1
aa(lp406
g39
aI6
aa(lp407
g41
aI6
aa(lp408
g43
aF0
aa(lp409
g45
aF398
aa(lp410
g47
ag31
aa(lp411
g49
ag31
aa(lp412
g51
a(lp413
S'ib-lundgren'
p414
aaatRp415
ag2
((lp416
(lp417
g5
aI14
aa(lp418
g7
ag8
(S'\x07\xdd\x03\x1a\x00\x00\x00\x00\x00\x00'
tRp419
aa(lp420
g11
ag8
(S'\x07\xdd\x03\x1a\x00\x00\x00\x00\x00\x00'
tRp421
aa(lp422
g14
aI1
aa(lp423
g16
aI9
aa(lp424
g18
aI7
aa(lp425
g20
aI2
aa(lp426
g22
aI3
aa(lp427
g24
aI1
aa(lp428
g26
aI3
aa(lp429
g28
aF12.161203703703706
aa(lp430
g30
aF1.5
aa(lp431
g33
aF1.5
aa(lp432
g35
aF3
aa(lp433
g37
aI2
aa(lp434
g39
aI3
aa(lp435
g41
aI3
aa(lp436
g43
aF1.5
aa(lp437
g45
aF434
aa(lp438
g47
aF1
aa(lp439
g49
aF1
aa(lp440
g51
ag79
((lp441
S'johanmeiring'
p442
aS'ib-lundgren'
p443
atRp444
aatRp445
ag2
((lp446
(lp447
g5
aI15
aa(lp448
g7
ag8
(S'\x07\xdd\x05\x07\x00\x00\x00\x00\x00\x00'
tRp449
aa(lp450
g11
ag8
(S'\x07\xdd\x05\x07\x00\x00\x00\x00\x00\x00'
tRp451
aa(lp452
g14
aI1
aa(lp453
g16
aI15
aa(lp454
g18
aI3
aa(lp455
g20
aI1
aa(lp456
g22
aI2
aa(lp457
g24
aI2
aa(lp458
g26
aI1
aa(lp459
g28
aF1.0908333333333333
aa(lp460
g30
aF0.25
aa(lp461
g33
aF0.5
aa(lp462
g35
aF3.75
aa(lp463
g37
aI4
aa(lp464
g39
aI3
aa(lp465
g41
aI4
aa(lp466
g43
aF0.58333333333333337
aa(lp467
g45
aF238
aa(lp468
g47
aF1
aa(lp469
g49
aF1
aa(lp470
g51
ag79
((lp471
S'ib-lundgren'
p472
aS'flippmoke'
p473
aS'stephane'
p474
aS'kroisse'
p475
atRp476
aatRp477
ag2
((lp478
(lp479
g5
aI16
aa(lp480
g7
ag8
(S'\x07\xdd\x05\x10\x00\x00\x00\x00\x00\x00'
tRp481
aa(lp482
g11
ag8
(S'\x07\xdd\x05\x10\x00\x00\x00\x00\x00\x00'
tRp483
aa(lp484
g14
aI1
aa(lp485
g16
aI4
aa(lp486
g18
aI2
aa(lp487
g20
aI2
aa(lp488
g22
aI1
aa(lp489
g24
aI1
aa(lp490
g26
aI0
aa(lp491
g28
aF0
aa(lp492
g30
aF0
aa(lp493
g33
aF0.5
aa(lp494
g35
aF1.3333333333333333
aa(lp495
g37
aI2
aa(lp496
g39
aI2
aa(lp497
g41
aI3
aa(lp498
g43
aF0
aa(lp499
g45
aF8
aa(lp500
g47
aF0
aa(lp501
g49
aF0
aa(lp502
g51
ag79
((lp503
S'flippmoke'
p504
aS'kroisse'
p505
atRp506
aatRp507
ag2
((lp508
(lp509
g5
aI17
aa(lp510
g7
ag8
(S'\x07\xdd\x05\x17\x00\x00\x00\x00\x00\x00'
tRp511
aa(lp512
g11
ag8
(S'\x07\xdd\x05\x1f\x00\x00\x00\x00\x00\x00'
tRp513
aa(lp514
g14
aI9
aa(lp515
g16
aI142
aa(lp516
g18
aI61
aa(lp517
g20
aI4
aa(lp518
g22
aI33
aa(lp519
g24
aI18
aa(lp520
g26
aI33
aa(lp521
g28
aF84.444604377104397
aa(lp522
g30
aF5.5
aa(lp523
g33
aF5.5
aa(lp524
g35
aF11.833333333333334
aa(lp525
g37
aI6
aa(lp526
g39
aI12
aa(lp527
g41
aI12
aa(lp528
g43
aF0.19672131147540983
aa(lp529
g45
aF121.16666666666667
aa(lp530
g47
aF1
aa(lp531
g49
aF0.46666666666666667
aa(lp532
g51
ag79
((lp533
S'dasevilla'
p534
aS'synasius'
p535
aS'lepture'
p536
aS'stephane'
p537
aS'dahlia'
p538
aS'ib-lundgren'
p539
atRp540
aatRp541
ag2
((lp542
(lp543
g5
aI18
aa(lp544
g7
ag8
(S'\x07\xdd\x07\x03\x00\x00\x00\x00\x00\x00'
tRp545
aa(lp546
g11
ag8
(S'\x07\xdd\x07\x03\x00\x00\x00\x00\x00\x00'
tRp547
aa(lp548
g14
aI1
aa(lp549
g16
aI6
aa(lp550
g18
aI7
aa(lp551
g20
aI1
aa(lp552
g22
aI3
aa(lp553
g24
aI3
aa(lp554
g26
aI0
aa(lp555
g28
aF0
aa(lp556
g30
aF0
aa(lp557
g33
aF3
aa(lp558
g35
aF3
aa(lp559
g37
aI1
aa(lp560
g39
aI2
aa(lp561
g41
aI2
aa(lp562
g43
aF0
aa(lp563
g45
aF222
aa(lp564
g47
ag31
aa(lp565
g49
ag31
aa(lp566
g51
a(lp567
S'lepture'
p568
aaatRp569
ag2
((lp570
(lp571
g5
aI19
aa(lp572
g7
ag8
(S'\x07\xdd\x07\t\x00\x00\x00\x00\x00\x00'
tRp573
aa(lp574
g11
ag8
(S'\x07\xdd\x07\t\x00\x00\x00\x00\x00\x00'
tRp575
aa(lp576
g14
aI1
aa(lp577
g16
aI8
aa(lp578
g18
aI5
aa(lp579
g20
aI3
aa(lp580
g22
aI5
aa(lp581
g24
aI3
aa(lp582
g26
aI3
aa(lp583
g28
aF11.899074074074074
aa(lp584
g30
aF1.5
aa(lp585
g33
aF2.5
aa(lp586
g35
aF2.6666666666666665
aa(lp587
g37
aI2
aa(lp588
g39
aI3
aa(lp589
g41
aI3
aa(lp590
g43
aF0.90000000000000002
aa(lp591
g45
aF383.5
aa(lp592
g47
aF1
aa(lp593
g49
aF1
aa(lp594
g51
ag79
((lp595
S'ib-lundgren'
p596
aS'lepture'
p597
atRp598
aatRp599
ag2
((lp600
(lp601
g5
aI20
aa(lp602
g7
ag8
(S'\x07\xdd\x07\x13\x00\x00\x00\x00\x00\x00'
tRp603
aa(lp604
g11
ag8
(S'\x07\xdd\x07\x16\x00\x00\x00\x00\x00\x00'
tRp605
aa(lp606
g14
aI4
aa(lp607
g16
aI12
aa(lp608
g18
aI3
aa(lp609
g20
aI1
aa(lp610
g22
aI1
aa(lp611
g24
aI1
aa(lp612
g26
aI0
aa(lp613
g28
aF0
aa(lp614
g30
aF0
aa(lp615
g33
aF0.5
aa(lp616
g35
aF4
aa(lp617
g37
aI2
aa(lp618
g39
aI3
aa(lp619
g41
aI3
aa(lp620
g43
aF0
aa(lp621
g45
aF5
aa(lp622
g47
aF1
aa(lp623
g49
aF1
aa(lp624
g51
ag79
((lp625
S'kdazzle'
p626
aS'kyle@gumstix.com'
p627
atRp628
aatRp629
ag2
((lp630
(lp631
g5
aI21
aa(lp632
g7
ag8
(S'\x07\xdd\x08\x03\x00\x00\x00\x00\x00\x00'
tRp633
aa(lp634
g11
ag8
(S'\x07\xdd\x08\x03\x00\x00\x00\x00\x00\x00'
tRp635
aa(lp636
g14
aI1
aa(lp637
g16
aI3
aa(lp638
g18
aI18
aa(lp639
g20
aI3
aa(lp640
g22
aI3
aa(lp641
g24
aI0
aa(lp642
g26
aI3
aa(lp643
g28
aF18.942962962962962
aa(lp644
g30
aF3
aa(lp645
g33
aF3
aa(lp646
g35
aF0.59999999999999998
aa(lp647
g37
aI1
aa(lp648
g39
aI5
aa(lp649
g41
aI5
aa(lp650
g43
aF0
aa(lp651
g45
aF564
aa(lp652
g47
ag31
aa(lp653
g49
ag31
aa(lp654
g51
a(lp655
S'ib-lundgren'
p656
aaatRp657
ag2
((lp658
(lp659
g5
aI22
aa(lp660
g7
ag8
(S'\x07\xdd\t\x11\x00\x00\x00\x00\x00\x00'
tRp661
aa(lp662
g11
ag8
(S'\x07\xdd\t\x15\x00\x00\x00\x00\x00\x00'
tRp663
aa(lp664
g14
aI5
aa(lp665
g16
aI32
aa(lp666
g18
aI20
aa(lp667
g20
aI4
aa(lp668
g22
aI9
aa(lp669
g24
aI4
aa(lp670
g26
aI7
aa(lp671
g28
aF42.589007936507933
aa(lp672
g30
aF3.5
aa(lp673
g33
aF4.5
aa(lp674
g35
aF8
aa(lp675
g37
aI2
aa(lp676
g39
aI4
aa(lp677
g41
aI4
aa(lp678
g43
aF0.82499999999999996
aa(lp679
g45
aF613
aa(lp680
g47
aF1
aa(lp681
g49
aF1
aa(lp682
g51
ag79
((lp683
S'ib-lundgren'
p684
aS'masci@evonove.it'
p685
atRp686
aatRp687
ag2
((lp688
(lp689
g5
aI23
aa(lp690
g7
ag8
(S'\x07\xdd\n\x0c\x00\x00\x00\x00\x00\x00'
tRp691
aa(lp692
g11
ag8
(S'\x07\xdd\n\x0c\x00\x00\x00\x00\x00\x00'
tRp693
aa(lp694
g14
aI1
aa(lp695
g16
aI4
aa(lp696
g18
aI5
aa(lp697
g20
aI2
aa(lp698
g22
aI1
aa(lp699
g24
aI1
aa(lp700
g26
aI0
aa(lp701
g28
aF0
aa(lp702
g30
aF0
aa(lp703
g33
aF1
aa(lp704
g35
aF2
aa(lp705
g37
aI1
aa(lp706
g39
aI2
aa(lp707
g41
aI2
aa(lp708
g43
aF0
aa(lp709
g45
aF323
aa(lp710
g47
ag31
aa(lp711
g49
ag31
aa(lp712
g51
a(lp713
S'lepture'
p714
aaatRp715
ag2
((lp716
(lp717
g5
aI24
aa(lp718
g7
ag8
(S'\x07\xdd\x0b\n\x00\x00\x00\x00\x00\x00'
tRp719
aa(lp720
g11
ag8
(S'\x07\xdd\x0b\n\x00\x00\x00\x00\x00\x00'
tRp721
aa(lp722
g14
aI1
aa(lp723
g16
aI3
aa(lp724
g18
aI6
aa(lp725
g20
aI3
aa(lp726
g22
aI4
aa(lp727
g24
aI0
aa(lp728
g26
aI4
aa(lp729
g28
aF22.902152777777779
aa(lp730
g30
aF4
aa(lp731
g33
aF4
aa(lp732
g35
aF0.75
aa(lp733
g37
aI1
aa(lp734
g39
aI4
aa(lp735
g41
aI4
aa(lp736
g43
aF0
aa(lp737
g45
aF663
aa(lp738
g47
ag31
aa(lp739
g49
ag31
aa(lp740
g51
a(lp741
S'ib-lundgren'
p742
aaatRp743
ag2
((lp744
(lp745
g5
aI26
aa(lp746
g7
ag8
(S'\x07\xde\x04\x12\x00\x00\x00\x00\x00\x00'
tRp747
aa(lp748
g11
ag8
(S'\x07\xde\x04\x12\x00\x00\x00\x00\x00\x00'
tRp749
aa(lp750
g14
aI1
aa(lp751
g16
aI4
aa(lp752
g18
aI33
aa(lp753
g20
aI3
aa(lp754
g22
aI4
aa(lp755
g24
aI0
aa(lp756
g26
aI4
aa(lp757
g28
aF14.722638888888888
aa(lp758
g30
aF4
aa(lp759
g33
aF4
aa(lp760
g35
aF1.3333333333333333
aa(lp761
g37
aI1
aa(lp762
g39
aI3
aa(lp763
g41
aI3
aa(lp764
g43
aF0
aa(lp765
g45
aF822
aa(lp766
g47
ag31
aa(lp767
g49
ag31
aa(lp768
g51
a(lp769
S'ib-lundgren'
p770
aaatRp771
ag2
((lp772
(lp773
g5
aI27
aa(lp774
g7
ag8
(S'\x07\xde\t\x0c\x00\x00\x00\x00\x00\x00'
tRp775
aa(lp776
g11
ag8
(S'\x07\xde\t\x0c\x00\x00\x00\x00\x00\x00'
tRp777
aa(lp778
g14
aI1
aa(lp779
g16
aI4
aa(lp780
g18
aI6
aa(lp781
g20
aI3
aa(lp782
g22
aI2
aa(lp783
g24
aI1
aa(lp784
g26
aI2
aa(lp785
g28
aF10.034305555555555
aa(lp786
g30
aF1
aa(lp787
g33
aF1
aa(lp788
g35
aF1.3333333333333333
aa(lp789
g37
aI2
aa(lp790
g39
aI3
aa(lp791
g41
aI3
aa(lp792
g43
aF1.1666666666666667
aa(lp793
g45
aF969
aa(lp794
g47
aF1
aa(lp795
g49
aF1
aa(lp796
g51
ag79
((lp797
S'singingwolfboy'
p798
aS'ib-lundgren'
p799
atRp800
aatRp801
ag2
((lp802
(lp803
g5
aI28
aa(lp804
g7
ag8
(S'\x07\xde\t\x12\x00\x00\x00\x00\x00\x00'
tRp805
aa(lp806
g11
ag8
(S'\x07\xde\t\x12\x00\x00\x00\x00\x00\x00'
tRp807
aa(lp808
g14
aI1
aa(lp809
g16
aI2
aa(lp810
g18
aI0
aa(lp811
g20
aI0
aa(lp812
g22
aI4
aa(lp813
g24
aI2
aa(lp814
g26
aI2
aa(lp815
g28
aF14.313472222222222
aa(lp816
g30
aF2
aa(lp817
g33
aF4
aa(lp818
g35
aF0.66666666666666663
aa(lp819
g37
aI1
aa(lp820
g39
aI3
aa(lp821
g41
aI3
aa(lp822
g43
aF0
aa(lp823
g45
aF5
aa(lp824
g47
ag31
aa(lp825
g49
ag31
aa(lp826
g51
a(lp827
S'singingwolfboy'
p828
aaatRp829
ag2
((lp830
(lp831
g5
aI29
aa(lp832
g7
ag8
(S'\x07\xde\t\x16\x00\x00\x00\x00\x00\x00'
tRp833
aa(lp834
g11
ag8
(S'\x07\xde\t\x18\x00\x00\x00\x00\x00\x00'
tRp835
aa(lp836
g14
aI3
aa(lp837
g16
aI17
aa(lp838
g18
aI38
aa(lp839
g20
aI4
aa(lp840
g22
aI5
aa(lp841
g24
aI0
aa(lp842
g26
aI5
aa(lp843
g28
aF34.236111111111107
aa(lp844
g30
aF2.5
aa(lp845
g33
aF2.5
aa(lp846
g35
aF4.25
aa(lp847
g37
aI2
aa(lp848
g39
aI4
aa(lp849
g41
aI4
aa(lp850
g43
aF1.3947368421052631
aa(lp851
g45
aF493.5
aa(lp852
g47
aF1
aa(lp853
g49
aF1
aa(lp854
g51
ag79
((lp855
S'whit537'
p856
aS'ib-lundgren'
p857
atRp858
aatRp859
ag2
((lp860
(lp861
g5
aI30
aa(lp862
g7
ag8
(S'\x07\xde\t\x1d\x00\x00\x00\x00\x00\x00'
tRp863
aa(lp864
g11
ag8
(S'\x07\xde\t\x1d\x00\x00\x00\x00\x00\x00'
tRp865
aa(lp866
g14
aI1
aa(lp867
g16
aI10
aa(lp868
g18
aI2
aa(lp869
g20
aI1
aa(lp870
g22
aI2
aa(lp871
g24
aI2
aa(lp872
g26
aI0
aa(lp873
g28
aF0
aa(lp874
g30
aF0
aa(lp875
g33
aF1
aa(lp876
g35
aF3.3333333333333335
aa(lp877
g37
aI2
aa(lp878
g39
aI2
aa(lp879
g41
aI3
aa(lp880
g43
aF0
aa(lp881
g45
aF0
aa(lp882
g47
aF0
aa(lp883
g49
aF0
aa(lp884
g51
ag79
((lp885
S'garciasolero'
p886
aS'dmuller@guidebook.com'
p887
atRp888
aatRp889
ag2
((lp890
(lp891
g5
aI31
aa(lp892
g7
ag8
(S'\x07\xde\n\x05\x00\x00\x00\x00\x00\x00'
tRp893
aa(lp894
g11
ag8
(S'\x07\xde\n\x05\x00\x00\x00\x00\x00\x00'
tRp895
aa(lp896
g14
aI1
aa(lp897
g16
aI2
aa(lp898
g18
aI12
aa(lp899
g20
aI3
aa(lp900
g22
aI1
aa(lp901
g24
aI1
aa(lp902
g26
aI0
aa(lp903
g28
aF0
aa(lp904
g30
aF0
aa(lp905
g33
aF1
aa(lp906
g35
aF0.66666666666666663
aa(lp907
g37
aI1
aa(lp908
g39
aI3
aa(lp909
g41
aI3
aa(lp910
g43
aF0
aa(lp911
g45
aF22
aa(lp912
g47
ag31
aa(lp913
g49
ag31
aa(lp914
g51
a(lp915
S'singingwolfboy'
p916
aaatRp917
ag2
((lp918
(lp919
g5
aI32
aa(lp920
g7
ag8
(S'\x07\xde\n\x17\x00\x00\x00\x00\x00\x00'
tRp921
aa(lp922
g11
ag8
(S'\x07\xde\n\x17\x00\x00\x00\x00\x00\x00'
tRp923
aa(lp924
g14
aI1
aa(lp925
g16
aI10
aa(lp926
g18
aI15
aa(lp927
g20
aI4
aa(lp928
g22
aI5
aa(lp929
g24
aI0
aa(lp930
g26
aI5
aa(lp931
g28
aF18.704500000000003
aa(lp932
g30
aF5
aa(lp933
g33
aF5
aa(lp934
g35
aF2
aa(lp935
g37
aI1
aa(lp936
g39
aI5
aa(lp937
g41
aI5
aa(lp938
g43
aF0
aa(lp939
g45
aF1010
aa(lp940
g47
ag31
aa(lp941
g49
ag31
aa(lp942
g51
a(lp943
S'ib-lundgren'
p944
aaatRp945
ag2
((lp946
(lp947
g5
aI33
aa(lp948
g7
ag8
(S'\x07\xde\n\x1b\x00\x00\x00\x00\x00\x00'
tRp949
aa(lp950
g11
ag8
(S'\x07\xde\n\x1b\x00\x00\x00\x00\x00\x00'
tRp951
aa(lp952
g14
aI1
aa(lp953
g16
aI6
aa(lp954
g18
aI2
aa(lp955
g20
aI2
aa(lp956
g22
aI4
aa(lp957
g24
aI2
aa(lp958
g26
aI3
aa(lp959
g28
aF11.055833333333334
aa(lp960
g30
aF1.5
aa(lp961
g33
aF2
aa(lp962
g35
aF1
aa(lp963
g37
aI2
aa(lp964
g39
aI6
aa(lp965
g41
aI6
aa(lp966
g43
aF3.5
aa(lp967
g45
aF508
aa(lp968
g47
aF0
aa(lp969
g49
aF0
aa(lp970
g51
ag79
((lp971
S'garcianavalon'
p972
aS'ib-lundgren'
p973
atRp974
aatRp975
ag2
((lp976
(lp977
g5
aI34
aa(lp978
g7
ag8
(S'\x07\xdf\x02\x1b\x00\x00\x00\x00\x00\x00'
tRp979
aa(lp980
g11
ag8
(S'\x07\xdf\x02\x1b\x00\x00\x00\x00\x00\x00'
tRp981
aa(lp982
g14
aI1
aa(lp983
g16
aI11
aa(lp984
g18
aI3
aa(lp985
g20
aI2
aa(lp986
g22
aI4
aa(lp987
g24
aI4
aa(lp988
g26
aI0
aa(lp989
g28
aF0
aa(lp990
g30
aF0
aa(lp991
g33
aF2
aa(lp992
g35
aF1.5714285714285714
aa(lp993
g37
aI2
aa(lp994
g39
aI7
aa(lp995
g41
aI7
aa(lp996
g43
aF0
aa(lp997
g45
aF0
aa(lp998
g47
aF1
aa(lp999
g49
aF0
aa(lp1000
g51
ag79
((lp1001
S'josephtate'
p1002
aS'djmitche'
p1003
atRp1004
aatRp1005
ag2
((lp1006
(lp1007
g5
aI35
aa(lp1008
g7
ag8
(S'\x07\xdf\x03\x11\x00\x00\x00\x00\x00\x00'
tRp1009
aa(lp1010
g11
ag8
(S'\x07\xdf\x03\x11\x00\x00\x00\x00\x00\x00'
tRp1011
aa(lp1012
g14
aI1
aa(lp1013
g16
aI3
aa(lp1014
g18
aI0
aa(lp1015
g20
aI0
aa(lp1016
g22
aI3
aa(lp1017
g24
aI3
aa(lp1018
g26
aI0
aa(lp1019
g28
aF0
aa(lp1020
g30
aF0
aa(lp1021
g33
aF1.5
aa(lp1022
g35
aF0.375
aa(lp1023
g37
aI2
aa(lp1024
g39
aI8
aa(lp1025
g41
aI8
aa(lp1026
g43
aF0
aa(lp1027
g45
aF476
aa(lp1028
g47
ag31
aa(lp1029
g49
ag31
aa(lp1030
g51
a(lp1031
S'wiliamsouza'
p1032
aS'tilgovi'
p1033
aaatRp1034
ag2
((lp1035
(lp1036
g5
aI36
aa(lp1037
g7
ag8
(S'\x07\xdf\x04\x02\x00\x00\x00\x00\x00\x00'
tRp1038
aa(lp1039
g11
ag8
(S'\x07\xdf\x04\x02\x00\x00\x00\x00\x00\x00'
tRp1040
aa(lp1041
g14
aI1
aa(lp1042
g16
aI7
aa(lp1043
g18
aI4
aa(lp1044
g20
aI3
aa(lp1045
g22
aI7
aa(lp1046
g24
aI0
aa(lp1047
g26
aI7
aa(lp1048
g28
aF11.453531746031747
aa(lp1049
g30
aF7
aa(lp1050
g33
aF7
aa(lp1051
g35
aF0.77777777777777779
aa(lp1052
g37
aI1
aa(lp1053
g39
aI9
aa(lp1054
g41
aI9
aa(lp1055
g43
aF0
aa(lp1056
g45
aF1171
aa(lp1057
g47
ag31
aa(lp1058
g49
ag31
aa(lp1059
g51
a(lp1060
S'ib-lundgren'
p1061
aaatRp1062
ag2
((lp1063
(lp1064
g5
aI37
aa(lp1065
g7
ag8
(S'\x07\xdf\x05\x17\x00\x00\x00\x00\x00\x00'
tRp1066
aa(lp1067
g11
ag8
(S'\x07\xdf\x05\x17\x00\x00\x00\x00\x00\x00'
tRp1068
aa(lp1069
g14
aI1
aa(lp1070
g16
aI3
aa(lp1071
g18
aI3
aa(lp1072
g20
aI2
aa(lp1073
g22
aI5
aa(lp1074
g24
aI0
aa(lp1075
g26
aI5
aa(lp1076
g28
aF17.638166666666667
aa(lp1077
g30
aF5
aa(lp1078
g33
aF5
aa(lp1079
g35
aF0.375
aa(lp1080
g37
aI1
aa(lp1081
g39
aI8
aa(lp1082
g41
aI8
aa(lp1083
g43
aF0
aa(lp1084
g45
aF1222
aa(lp1085
g47
ag31
aa(lp1086
g49
ag31
aa(lp1087
g51
a(lp1088
S'ib-lundgren'
p1089
aaatRp1090
ag2
((lp1091
(lp1092
g5
aI38
aa(lp1093
g7
ag8
(S'\x07\xdf\x07\x01\x00\x00\x00\x00\x00\x00'
tRp1094
aa(lp1095
g11
ag8
(S'\x07\xdf\x07\x02\x00\x00\x00\x00\x00\x00'
tRp1096
aa(lp1097
g14
aI2
aa(lp1098
g16
aI39
aa(lp1099
g18
aI16
aa(lp1100
g20
aI4
aa(lp1101
g22
aI15
aa(lp1102
g24
aI5
aa(lp1103
g26
aI13
aa(lp1104
g28
aF12.57989316239316
aa(lp1105
g30
aF3.25
aa(lp1106
g33
aF3.75
aa(lp1107
g35
aF3.5454545454545454
aa(lp1108
g37
aI4
aa(lp1109
g39
aI11
aa(lp1110
g41
aI11
aa(lp1111
g43
aF1.640625
aa(lp1112
g45
aF631.5
aa(lp1113
g47
aF1
aa(lp1114
g49
aF0.66666666666666663
aa(lp1115
g51
ag79
((lp1116
S'myyang'
p1117
aS'ib-lundgren'
p1118
aS'thedrow'
p1119
aS'lepture'
p1120
atRp1121
aatRp1122
ag2
((lp1123
(lp1124
g5
aI39
aa(lp1125
g7
ag8
(S'\x07\xdf\x07\x13\x00\x00\x00\x00\x00\x00'
tRp1126
aa(lp1127
g11
ag8
(S'\x07\xdf\x07\x13\x00\x00\x00\x00\x00\x00'
tRp1128
aa(lp1129
g14
aI1
aa(lp1130
g16
aI12
aa(lp1131
g18
aI6
aa(lp1132
g20
aI3
aa(lp1133
g22
aI11
aa(lp1134
g24
aI2
aa(lp1135
g26
aI11
aa(lp1136
g28
aF7.4753535353535341
aa(lp1137
g30
aF11
aa(lp1138
g33
aF11
aa(lp1139
g35
aF0.80000000000000004
aa(lp1140
g37
aI1
aa(lp1141
g39
aI15
aa(lp1142
g41
aI15
aa(lp1143
g43
aF0
aa(lp1144
g45
aF328
aa(lp1145
g47
ag31
aa(lp1146
g49
ag31
aa(lp1147
g51
a(lp1148
S'thedrow'
p1149
aaatRp1150
ag2
((lp1151
(lp1152
g5
aI40
aa(lp1153
g7
ag8
(S'\x07\xdf\x08\x10\x00\x00\x00\x00\x00\x00'
tRp1154
aa(lp1155
g11
ag8
(S'\x07\xdf\x08\x10\x00\x00\x00\x00\x00\x00'
tRp1156
aa(lp1157
g14
aI1
aa(lp1158
g16
aI3
aa(lp1159
g18
aI8
aa(lp1160
g20
aI2
aa(lp1161
g22
aI7
aa(lp1162
g24
aI0
aa(lp1163
g26
aI7
aa(lp1164
g28
aF12.145714285714282
aa(lp1165
g30
aF7
aa(lp1166
g33
aF7
aa(lp1167
g35
aF0.75
aa(lp1168
g37
aI1
aa(lp1169
g39
aI4
aa(lp1170
g41
aI4
aa(lp1171
g43
aF0
aa(lp1172
g45
aF356
aa(lp1173
g47
ag31
aa(lp1174
g49
ag31
aa(lp1175
g51
a(lp1176
S'thedrow'
p1177
aaatRp1178
ag2
((lp1179
(lp1180
g5
aI41
aa(lp1181
g7
ag8
(S'\x07\xdf\x0b\x01\x00\x00\x00\x00\x00\x00'
tRp1182
aa(lp1183
g11
ag8
(S'\x07\xdf\x0b\x01\x00\x00\x00\x00\x00\x00'
tRp1184
aa(lp1185
g14
aI1
aa(lp1186
g16
aI1
aa(lp1187
g18
aI0
aa(lp1188
g20
aI0
aa(lp1189
g22
aI1
aa(lp1190
g24
aI0
aa(lp1191
g26
aI1
aa(lp1192
g28
aF14.753888888888889
aa(lp1193
g30
aF1
aa(lp1194
g33
aF1
aa(lp1195
g35
aF0.5
aa(lp1196
g37
aI1
aa(lp1197
g39
aI2
aa(lp1198
g41
aI2
aa(lp1199
g43
aF0
aa(lp1200
g45
aF433
aa(lp1201
g47
ag31
aa(lp1202
g49
ag31
aa(lp1203
g51
a(lp1204
S'thedrow'
p1205
aaatRp1206
ag2
((lp1207
(lp1208
g5
aI42
aa(lp1209
g7
ag8
(S'\x07\xe0\x03\x0e\x00\x00\x00\x00\x00\x00'
tRp1210
aa(lp1211
g11
ag8
(S'\x07\xe0\x03\x0e\x00\x00\x00\x00\x00\x00'
tRp1212
aa(lp1213
g14
aI1
aa(lp1214
g16
aI2
aa(lp1215
g18
aI3
aa(lp1216
g20
aI2
aa(lp1217
g22
aI4
aa(lp1218
g24
aI0
aa(lp1219
g26
aI4
aa(lp1220
g28
aF11.306875
aa(lp1221
g30
aF4
aa(lp1222
g33
aF4
aa(lp1223
g35
aF0.66666666666666663
aa(lp1224
g37
aI1
aa(lp1225
g39
aI3
aa(lp1226
g41
aI3
aa(lp1227
g43
aF0
aa(lp1228
g45
aF567
aa(lp1229
g47
ag31
aa(lp1230
g49
ag31
aa(lp1231
g51
a(lp1232
S'thedrow'
p1233
aaatRp1234
ag2
((lp1235
(lp1236
g5
aI43
aa(lp1237
g7
ag8
(S'\x07\xe0\x04\x14\x00\x00\x00\x00\x00\x00'
tRp1238
aa(lp1239
g11
ag8
(S'\x07\xe0\x04\x15\x00\x00\x00\x00\x00\x00'
tRp1240
aa(lp1241
g14
aI2
aa(lp1242
g16
aI16
aa(lp1243
g18
aI3
aa(lp1244
g20
aI1
aa(lp1245
g22
aI2
aa(lp1246
g24
aI1
aa(lp1247
g26
aI1
aa(lp1248
g28
aF8.4905555555555559
aa(lp1249
g30
aF0.5
aa(lp1250
g33
aF1
aa(lp1251
g35
aF3.2000000000000002
aa(lp1252
g37
aI2
aa(lp1253
g39
aI5
aa(lp1254
g41
aI5
aa(lp1255
g43
aF1.5
aa(lp1256
g45
aF304.5
aa(lp1257
g47
aF1
aa(lp1258
g49
aF1
aa(lp1259
g51
ag79
((lp1260
S'joelstevenson'
p1261
aS'thedrow'
p1262
atRp1263
aatRp1264
ag2
((lp1265
(lp1266
g5
aI46
aa(lp1267
g7
ag8
(S'\x07\xe0\x05\x12\x00\x00\x00\x00\x00\x00'
tRp1268
aa(lp1269
g11
ag8
(S'\x07\xe0\x05\x12\x00\x00\x00\x00\x00\x00'
tRp1270
aa(lp1271
g14
aI1
aa(lp1272
g16
aI1
aa(lp1273
g18
aI1
aa(lp1274
g20
aI1
aa(lp1275
g22
aI2
aa(lp1276
g24
aI0
aa(lp1277
g26
aI2
aa(lp1278
g28
aF8.3365277777777784
aa(lp1279
g30
aF2
aa(lp1280
g33
aF2
aa(lp1281
g35
aF0.5
aa(lp1282
g37
aI1
aa(lp1283
g39
aI2
aa(lp1284
g41
aI2
aa(lp1285
g43
aF0
aa(lp1286
g45
aF632
aa(lp1287
g47
ag31
aa(lp1288
g49
ag31
aa(lp1289
g51
a(lp1290
S'thedrow'
p1291
aaatRp1292
ag2
((lp1293
(lp1294
g5
aI48
aa(lp1295
g7
ag8
(S'\x07\xe0\x0b\x18\x00\x00\x00\x00\x00\x00'
tRp1296
aa(lp1297
g11
ag8
(S'\x07\xe0\x0b\x18\x00\x00\x00\x00\x00\x00'
tRp1298
aa(lp1299
g14
aI1
aa(lp1300
g16
aI3
aa(lp1301
g18
aI2
aa(lp1302
g20
aI2
aa(lp1303
g22
aI8
aa(lp1304
g24
aI0
aa(lp1305
g26
aI8
aa(lp1306
g28
aF15.893958333333334
aa(lp1307
g30
aF8
aa(lp1308
g33
aF8
aa(lp1309
g35
aF0.75
aa(lp1310
g37
aI1
aa(lp1311
g39
aI4
aa(lp1312
g41
aI4
aa(lp1313
g43
aF0
aa(lp1314
g45
aF822
aa(lp1315
g47
ag31
aa(lp1316
g49
ag31
aa(lp1317
g51
a(lp1318
S'thedrow'
p1319
aaatRp1320
ag2
((lp1321
(lp1322
g5
aI49
aa(lp1323
g7
ag8
(S'\x07\xe0\x0c\x06\x00\x00\x00\x00\x00\x00'
tRp1324
aa(lp1325
g11
ag8
(S'\x07\xe0\x0c\x07\x00\x00\x00\x00\x00\x00'
tRp1326
aa(lp1327
g14
aI2
aa(lp1328
g16
aI20
aa(lp1329
g18
aI3
aa(lp1330
g20
aI3
aa(lp1331
g22
aI4
aa(lp1332
g24
aI2
aa(lp1333
g26
aI3
aa(lp1334
g28
aF9.349074074074073
aa(lp1335
g30
aF1.5
aa(lp1336
g33
aF2
aa(lp1337
g35
aF6.666666666666667
aa(lp1338
g37
aI2
aa(lp1339
g39
aI3
aa(lp1340
g41
aI3
aa(lp1341
g43
aF0
aa(lp1342
g45
aF835
aa(lp1343
g47
aF1
aa(lp1344
g49
aF1
aa(lp1345
g51
ag79
((lp1346
S'kippandrew'
p1347
aS'thedrow'
p1348
atRp1349
aatRp1350
ag2
((lp1351
(lp1352
g5
aI50
aa(lp1353
g7
ag8
(S'\x07\xe0\x0c\x14\x00\x00\x00\x00\x00\x00'
tRp1354
aa(lp1355
g11
ag8
(S'\x07\xe0\x0c\x14\x00\x00\x00\x00\x00\x00'
tRp1356
aa(lp1357
g14
aI1
aa(lp1358
g16
aI8
aa(lp1359
g18
aI3
aa(lp1360
g20
aI1
aa(lp1361
g22
aI1
aa(lp1362
g24
aI1
aa(lp1363
g26
aI0
aa(lp1364
g28
aF0
aa(lp1365
g30
aF0
aa(lp1366
g33
aF1
aa(lp1367
g35
aF4
aa(lp1368
g37
aI1
aa(lp1369
g39
aI2
aa(lp1370
g41
aI2
aa(lp1371
g43
aF0
aa(lp1372
g45
aF523
aa(lp1373
g47
ag31
aa(lp1374
g49
ag31
aa(lp1375
g51
a(lp1376
S'bjmc'
p1377
aaatRp1378
ag2
((lp1379
(lp1380
g5
aI52
aa(lp1381
g7
ag8
(S'\x07\xe1\x03\x1d\x00\x00\x00\x00\x00\x00'
tRp1382
aa(lp1383
g11
ag8
(S'\x07\xe1\x03\x1f\x00\x00\x00\x00\x00\x00'
tRp1384
aa(lp1385
g14
aI3
aa(lp1386
g16
aI28
aa(lp1387
g18
aI7
aa(lp1388
g20
aI3
aa(lp1389
g22
aI8
aa(lp1390
g24
aI1
aa(lp1391
g26
aI8
aa(lp1392
g28
aF54.935937499999994
aa(lp1393
g30
aF4
aa(lp1394
g33
aF4
aa(lp1395
g35
aF2.5454545454545454
aa(lp1396
g37
aI2
aa(lp1397
g39
aI11
aa(lp1398
g41
aI11
aa(lp1399
g43
aF0.7857142857142857
aa(lp1400
g45
aF475
aa(lp1401
g47
aF1
aa(lp1402
g49
aF1
aa(lp1403
g51
ag79
((lp1404
S'orenmazor'
p1405
aS'thedrow'
p1406
atRp1407
aatRp1408
ag2
((lp1409
(lp1410
g5
aI53
aa(lp1411
g7
ag8
(S'\x07\xe1\x07\x1e\x00\x00\x00\x00\x00\x00'
tRp1412
aa(lp1413
g11
ag8
(S'\x07\xe1\x07\x1e\x00\x00\x00\x00\x00\x00'
tRp1414
aa(lp1415
g14
aI1
aa(lp1416
g16
aI8
aa(lp1417
g18
aI7
aa(lp1418
g20
aI2
aa(lp1419
g22
aI6
aa(lp1420
g24
aI0
aa(lp1421
g26
aI6
aa(lp1422
g28
aF6.8205092592592598
aa(lp1423
g30
aF3
aa(lp1424
g33
aF3
aa(lp1425
g35
aF2
aa(lp1426
g37
aI2
aa(lp1427
g39
aI4
aa(lp1428
g41
aI4
aa(lp1429
g43
aF0.5
aa(lp1430
g45
aF973.5
aa(lp1431
g47
aF1
aa(lp1432
g49
aF1
aa(lp1433
g51
ag79
((lp1434
S'skion'
p1435
aS'thedrow'
p1436
atRp1437
aatRp1438
ag2
((lp1439
(lp1440
g5
aI54
aa(lp1441
g7
ag8
(S'\x07\xe1\t\x12\x00\x00\x00\x00\x00\x00'
tRp1442
aa(lp1443
g11
ag8
(S'\x07\xe1\t\x13\x00\x00\x00\x00\x00\x00'
tRp1444
aa(lp1445
g14
aI2
aa(lp1446
g16
aI5
aa(lp1447
g18
aI3
aa(lp1448
g20
aI1
aa(lp1449
g22
aI1
aa(lp1450
g24
aI0
aa(lp1451
g26
aI1
aa(lp1452
g28
aF7.9672222222222224
aa(lp1453
g30
aF0.5
aa(lp1454
g33
aF0.5
aa(lp1455
g35
aF1.6666666666666667
aa(lp1456
g37
aI2
aa(lp1457
g39
aI3
aa(lp1458
g41
aI3
aa(lp1459
g43
aF0.33333333333333331
aa(lp1460
g45
aF1439.5
aa(lp1461
g47
aF1
aa(lp1462
g49
aF1
aa(lp1463
g51
ag79
((lp1464
S'wiliamsouza'
p1465
aS'thedrow'
p1466
atRp1467
aatRp1468
ag2
((lp1469
(lp1470
g5
aI55
aa(lp1471
g7
ag8
(S'\x07\xe1\t\x18\x00\x00\x00\x00\x00\x00'
tRp1472
aa(lp1473
g11
ag8
(S'\x07\xe1\t\x18\x00\x00\x00\x00\x00\x00'
tRp1474
aa(lp1475
g14
aI1
aa(lp1476
g16
aI1
aa(lp1477
g18
aI1
aa(lp1478
g20
aI1
aa(lp1479
g22
aI1
aa(lp1480
g24
aI0
aa(lp1481
g26
aI1
aa(lp1482
g28
aF13.016944444444444
aa(lp1483
g30
aF1
aa(lp1484
g33
aF1
aa(lp1485
g35
aF0.33333333333333331
aa(lp1486
g37
aI1
aa(lp1487
g39
aI3
aa(lp1488
g41
aI3
aa(lp1489
g43
aF0
aa(lp1490
g45
aF1126
aa(lp1491
g47
ag31
aa(lp1492
g49
ag31
aa(lp1493
g51
a(lp1494
S'thedrow'
p1495
aaatRp1496
ag2
((lp1497
(lp1498
g5
aI58
aa(lp1499
g7
ag8
(S'\x07\xe1\n\x1b\x00\x00\x00\x00\x00\x00'
tRp1500
aa(lp1501
g11
ag8
(S'\x07\xe1\n\x1b\x00\x00\x00\x00\x00\x00'
tRp1502
aa(lp1503
g14
aI1
aa(lp1504
g16
aI6
aa(lp1505
g18
aI0
aa(lp1506
g20
aI0
aa(lp1507
g22
aI5
aa(lp1508
g24
aI2
aa(lp1509
g26
aI4
aa(lp1510
g28
aF10.846597222222222
aa(lp1511
g30
aF2
aa(lp1512
g33
aF2.5
aa(lp1513
g35
aF1.5
aa(lp1514
g37
aI2
aa(lp1515
g39
aI4
aa(lp1516
g41
aI4
aa(lp1517
g43
aF0
aa(lp1518
g45
aF411.5
aa(lp1519
g47
ag31
aa(lp1520
g49
ag31
aa(lp1521
g51
a(lp1522
S'jdufresne'
p1523
aS'viktorhaag'
p1524
aaatRp1525
a.