(lp1
ccollections
OrderedDict
p2
((lp3
(lp4
S'burst_id'
p5
aI2
aa(lp6
S'burst_start'
p7
acdatetime
datetime
p8
(S'\x07\xdc\x06\x07\x00\x00\x00\x00\x00\x00'
tRp9
aa(lp10
S'burst_end'
p11
ag8
(S'\x07\xdc\x06\x07\x00\x00\x00\x00\x00\x00'
tRp12
aa(lp13
S'burst_duration_days'
p14
aI1
aa(lp15
S'total_activity'
p16
aI12
aa(lp17
S'num_files (Change Size)'
p18
aI4
aa(lp19
S'file_modules (#Teams)'
p20
aI1
aa(lp21
S'total_num_issues'
p22
aI3
aa(lp23
S'issues_opened'
p24
aI3
aa(lp25
S'issues_closed'
p26
aI0
aa(lp27
S'avg_res_time_hours'
p28
aF0
aa(lp29
S'efficiency'
p30
aF0
aa(lp31
S'issue_per_person (Team Load)'
p32
aF3
aa(lp33
S'activity_per_person'
p34
aF3
aa(lp35
S'committing_users'
p36
aI1
aa(lp37
S'commenting_users'
p38
aI4
aa(lp39
S'total_actors'
p40
aI4
aa(lp41
S'component_experience'
p42
aF0
aa(lp43
S'tenure'
p44
aF0
aa(lp45
S'structural_congruence_fct'
p46
aS'NA'
p47
aa(lp48
S'mr_congruence_fct'
p49
ag47
aa(lp50
S'users_to_coordinate'
p51
a(lp52
S'alexandre.abraham@cea.fr'
p53
aaatRp54
ag2
((lp55
(lp56
g5
aI3
aa(lp57
g7
ag8
(S'\x07\xdc\x06\x16\x00\x00\x00\x00\x00\x00'
tRp58
aa(lp59
g11
ag8
(S'\x07\xdc\x06\x1d\x00\x00\x00\x00\x00\x00'
tRp60
aa(lp61
g14
aI8
aa(lp62
g16
aI235
aa(lp63
g18
aI26
aa(lp64
g20
aI4
aa(lp65
g22
aI19
aa(lp66
g24
aI15
aa(lp67
g26
aI18
aa(lp68
g28
aF35.94910493827161
aa(lp69
g30
aF3.6000000000000001
aa(lp70
g32
aF3.7999999999999998
aa(lp71
g34
aF33.571428571428569
aa(lp72
g36
aI5
aa(lp73
g38
aI7
aa(lp74
g40
aI7
aa(lp75
g42
aF0.046153846153846156
aa(lp76
g44
aF287.75
aa(lp77
g46
aF0.5
aa(lp78
g49
aF1
aa(lp79
g51
ac__builtin__
set
p80
((lp81
S'alexandreabraham'
p82
aS'gaelvaroquaux'
p83
aS'jaquesgrobler'
p84
aS'agramfort'
p85
aS'alexandre.abraham@cea.fr'
p86
atRp87
aatRp88
ag2
((lp89
(lp90
g5
aI4
aa(lp91
g7
ag8
(S'\x07\xdc\t\x12\x00\x00\x00\x00\x00\x00'
tRp92
aa(lp93
g11
ag8
(S'\x07\xdc\t\x13\x00\x00\x00\x00\x00\x00'
tRp94
aa(lp95
g14
aI2
aa(lp96
g16
aI49
aa(lp97
g18
aI25
aa(lp98
g20
aI1
aa(lp99
g22
aI1
aa(lp100
g24
aI1
aa(lp101
g26
aI1
aa(lp102
g28
aF8.0516666666666659
aa(lp103
g30
aF0.33333333333333331
aa(lp104
g32
aF0.33333333333333331
aa(lp105
g34
aF16.333333333333332
aa(lp106
g36
aI3
aa(lp107
g38
aI3
aa(lp108
g40
aI3
aa(lp109
g42
aF0.40000000000000002
aa(lp110
g44
aF386.5
aa(lp111
g46
aF0.33333333333333331
aa(lp112
g49
aF1
aa(lp113
g51
ag80
((lp114
S'alexandreabraham'
p115
aS'gaelvaroquaux'
p116
aS'alexandre.abraham@cea.fr'
p117
atRp118
aatRp119
ag2
((lp120
(lp121
g5
aI5
aa(lp122
g7
ag8
(S'\x07\xdc\x0b\x14\x00\x00\x00\x00\x00\x00'
tRp123
aa(lp124
g11
ag8
(S'\x07\xdc\x0b\x14\x00\x00\x00\x00\x00\x00'
tRp125
aa(lp126
g14
aI1
aa(lp127
g16
aI17
aa(lp128
g18
aI8
aa(lp129
g20
aI1
aa(lp130
g22
aI1
aa(lp131
g24
aI0
aa(lp132
g26
aI1
aa(lp133
g28
aF22.736944444444443
aa(lp134
g30
aF0.5
aa(lp135
g32
aF0.5
aa(lp136
g34
aF5.666666666666667
aa(lp137
g36
aI2
aa(lp138
g38
aI3
aa(lp139
g40
aI3
aa(lp140
g42
aF2.25
aa(lp141
g44
aF680
aa(lp142
g46
aF1
aa(lp143
g49
aF1
aa(lp144
g51
ag80
((lp145
S'gaelvaroquaux'
p146
aS'alexandre.abraham@cea.fr'
p147
atRp148
aatRp149
ag2
((lp150
(lp151
g5
aI6
aa(lp152
g7
ag8
(S'\x07\xdc\x0b\x1d\x00\x00\x00\x00\x00\x00'
tRp153
aa(lp154
g11
ag8
(S'\x07\xdc\x0c\x03\x00\x00\x00\x00\x00\x00'
tRp155
aa(lp156
g14
aI5
aa(lp157
g16
aI20
aa(lp158
g18
aI10
aa(lp159
g20
aI1
aa(lp160
g22
aI2
aa(lp161
g24
aI2
aa(lp162
g26
aI0
aa(lp163
g28
aF0
aa(lp164
g30
aF0
aa(lp165
g32
aF2
aa(lp166
g34
aF6.666666666666667
aa(lp167
g36
aI1
aa(lp168
g38
aI3
aa(lp169
g40
aI3
aa(lp170
g42
aF0
aa(lp171
g44
aF0
aa(lp172
g46
ag47
aa(lp173
g49
ag47
aa(lp174
g51
a(lp175
S'alexandre.abraham@cea.fr'
p176
aaatRp177
ag2
((lp178
(lp179
g5
aI7
aa(lp180
g7
ag8
(S'\x07\xdd\x04\x05\x00\x00\x00\x00\x00\x00'
tRp181
aa(lp182
g11
ag8
(S'\x07\xdd\x04\t\x00\x00\x00\x00\x00\x00'
tRp183
aa(lp184
g14
aI5
aa(lp185
g16
aI39
aa(lp186
g18
aI13
aa(lp187
g20
aI1
aa(lp188
g22
aI2
aa(lp189
g24
aI1
aa(lp190
g26
aI1
aa(lp191
g28
aF84.151944444444439
aa(lp192
g30
aF0.5
aa(lp193
g32
aF1
aa(lp194
g34
aF13
aa(lp195
g36
aI2
aa(lp196
g38
aI3
aa(lp197
g40
aI3
aa(lp198
g42
aF0.42307692307692307
aa(lp199
g44
aF195
aa(lp200
g46
aF1
aa(lp201
g49
aF1
aa(lp202
g51
ag80
((lp203
S'alexandreabraham'
p204
aS'pgervais'
p205
atRp206
aatRp207
ag2
((lp208
(lp209
g5
aI8
aa(lp210
g7
ag8
(S'\x07\xdd\x04\x11\x00\x00\x00\x00\x00\x00'
tRp211
aa(lp212
g11
ag8
(S'\x07\xdd\x04\x12\x00\x00\x00\x00\x00\x00'
tRp213
aa(lp214
g14
aI2
aa(lp215
g16
aI10
aa(lp216
g18
aI6
aa(lp217
g20
aI1
aa(lp218
g22
aI1
aa(lp219
g24
aI1
aa(lp220
g26
aI0
aa(lp221
g28
aF0
aa(lp222
g30
aF0
aa(lp223
g32
aF1
aa(lp224
g34
aF5
aa(lp225
g36
aI1
aa(lp226
g38
aI2
aa(lp227
g40
aI2
aa(lp228
g42
aF0
aa(lp229
g44
aF42
aa(lp230
g46
ag47
aa(lp231
g49
ag47
aa(lp232
g51
a(lp233
S'pgervais'
p234
aaatRp235
ag2
((lp236
(lp237
g5
aI9
aa(lp238
g7
ag8
(S'\x07\xdd\x04\x16\x00\x00\x00\x00\x00\x00'
tRp239
aa(lp240
g11
ag8
(S'\x07\xdd\x05\x03\x00\x00\x00\x00\x00\x00'
tRp241
aa(lp242
g14
aI12
aa(lp243
g16
aI163
aa(lp244
g18
aI27
aa(lp245
g20
aI2
aa(lp246
g22
aI6
aa(lp247
g24
aI4
aa(lp248
g26
aI5
aa(lp249
g28
aF127.11266666666666
aa(lp250
g30
aF2.5
aa(lp251
g32
aF3
aa(lp252
g34
aF40.75
aa(lp253
g36
aI2
aa(lp254
g38
aI4
aa(lp255
g40
aI4
aa(lp256
g42
aF0.90740740740740744
aa(lp257
g44
aF219
aa(lp258
g46
aF1
aa(lp259
g49
aF1
aa(lp260
g51
ag80
((lp261
S'alexandreabraham'
p262
aS'pgervais'
p263
atRp264
aatRp265
ag2
((lp266
(lp267
g5
aI11
aa(lp268
g7
ag8
(S'\x07\xdd\x05\r\x00\x00\x00\x00\x00\x00'
tRp269
aa(lp270
g11
ag8
(S'\x07\xdd\x05\x11\x00\x00\x00\x00\x00\x00'
tRp271
aa(lp272
g14
aI5
aa(lp273
g16
aI52
aa(lp274
g18
aI34
aa(lp275
g20
aI2
aa(lp276
g22
aI5
aa(lp277
g24
aI4
aa(lp278
g26
aI4
aa(lp279
g28
aF43.694097222222226
aa(lp280
g30
aF4
aa(lp281
g32
aF5
aa(lp282
g34
aF13
aa(lp283
g36
aI1
aa(lp284
g38
aI4
aa(lp285
g40
aI4
aa(lp286
g42
aF0
aa(lp287
g44
aF71
aa(lp288
g46
ag47
aa(lp289
g49
ag47
aa(lp290
g51
a(lp291
S'pgervais'
p292
aaatRp293
ag2
((lp294
(lp295
g5
aI12
aa(lp296
g7
ag8
(S'\x07\xdd\x05\x15\x00\x00\x00\x00\x00\x00'
tRp297
aa(lp298
g11
ag8
(S'\x07\xdd\x05\x16\x00\x00\x00\x00\x00\x00'
tRp299
aa(lp300
g14
aI2
aa(lp301
g16
aI48
aa(lp302
g18
aI21
aa(lp303
g20
aI1
aa(lp304
g22
aI6
aa(lp305
g24
aI2
aa(lp306
g26
aI4
aa(lp307
g28
aF14.036250000000001
aa(lp308
g30
aF2
aa(lp309
g32
aF3
aa(lp310
g34
aF9.5999999999999996
aa(lp311
g36
aI2
aa(lp312
g38
aI5
aa(lp313
g40
aI5
aa(lp314
g42
aF3.2619047619047619
aa(lp315
g44
aF469.5
aa(lp316
g46
aF1
aa(lp317
g49
aF1
aa(lp318
g51
ag80
((lp319
S'gaelvaroquaux'
p320
aS'pgervais'
p321
atRp322
aatRp323
ag2
((lp324
(lp325
g5
aI13
aa(lp326
g7
ag8
(S'\x07\xdd\x05\x1b\x00\x00\x00\x00\x00\x00'
tRp327
aa(lp328
g11
ag8
(S'\x07\xdd\x05\x1f\x00\x00\x00\x00\x00\x00'
tRp329
aa(lp330
g14
aI5
aa(lp331
g16
aI82
aa(lp332
g18
aI28
aa(lp333
g20
aI1
aa(lp334
g22
aI10
aa(lp335
g24
aI6
aa(lp336
g26
aI9
aa(lp337
g28
aF46.150740740740737
aa(lp338
g30
aF3
aa(lp339
g32
aF3.3333333333333335
aa(lp340
g34
aF10.25
aa(lp341
g36
aI3
aa(lp342
g38
aI8
aa(lp343
g40
aI8
aa(lp344
g42
aF1.5238095238095237
aa(lp345
g44
aF454.66666666666669
aa(lp346
g46
aF1
aa(lp347
g49
aF1
aa(lp348
g51
ag80
((lp349
S'alexandreabraham'
p350
aS'fabianp'
p351
aS'pgervais'
p352
atRp353
aatRp354
ag2
((lp355
(lp356
g5
aI14
aa(lp357
g7
ag8
(S'\x07\xdd\x06\n\x00\x00\x00\x00\x00\x00'
tRp358
aa(lp359
g11
ag8
(S'\x07\xdd\x06\x14\x00\x00\x00\x00\x00\x00'
tRp360
aa(lp361
g14
aI11
aa(lp362
g16
aI345
aa(lp363
g18
aI117
aa(lp364
g20
aI3
aa(lp365
g22
aI13
aa(lp366
g24
aI12
aa(lp367
g26
aI9
aa(lp368
g28
aF112.00373456790123
aa(lp369
g30
aF1.8
aa(lp370
g32
aF2.6000000000000001
aa(lp371
g34
aF69
aa(lp372
g36
aI5
aa(lp373
g38
aI5
aa(lp374
g40
aI5
aa(lp375
g42
aF0.36410256410256409
aa(lp376
g44
aF294.39999999999998
aa(lp377
g46
aF0.5
aa(lp378
g49
aF0.80000000000000004
aa(lp379
g51
ag80
((lp380
S'alexandreabraham'
p381
aS'dohmatob'
p382
aS'bthirion'
p383
aS'gaelvaroquaux'
p384
aS'pgervais'
p385
atRp386
aatRp387
ag2
((lp388
(lp389
g5
aI15
aa(lp390
g7
ag8
(S'\x07\xdd\x07\x10\x00\x00\x00\x00\x00\x00'
tRp391
aa(lp392
g11
ag8
(S'\x07\xdd\x07\x12\x00\x00\x00\x00\x00\x00'
tRp393
aa(lp394
g14
aI3
aa(lp395
g16
aI6
aa(lp396
g18
aI1
aa(lp397
g20
aI1
aa(lp398
g22
aI1
aa(lp399
g24
aI1
aa(lp400
g26
aI0
aa(lp401
g28
aF0
aa(lp402
g30
aF0
aa(lp403
g32
aF0.5
aa(lp404
g34
aF1.5
aa(lp405
g36
aI2
aa(lp406
g38
aI3
aa(lp407
g40
aI4
aa(lp408
g42
aF0
aa(lp409
g44
aF295
aa(lp410
g46
aF0
aa(lp411
g49
aF0
aa(lp412
g51
ag80
((lp413
S'alexandreabraham'
p414
aS'pgervais'
p415
atRp416
aatRp417
ag2
((lp418
(lp419
g5
aI16
aa(lp420
g7
ag8
(S'\x07\xdd\x08\x01\x00\x00\x00\x00\x00\x00'
tRp421
aa(lp422
g11
ag8
(S'\x07\xdd\x08\x02\x00\x00\x00\x00\x00\x00'
tRp423
aa(lp424
g14
aI2
aa(lp425
g16
aI26
aa(lp426
g18
aI50
aa(lp427
g20
aI2
aa(lp428
g22
aI5
aa(lp429
g24
aI1
aa(lp430
g26
aI5
aa(lp431
g28
aF18.659722222222221
aa(lp432
g30
aF2.5
aa(lp433
g32
aF2.5
aa(lp434
g34
aF8.6666666666666661
aa(lp435
g36
aI2
aa(lp436
g38
aI3
aa(lp437
g40
aI3
aa(lp438
g42
aF0.32000000000000001
aa(lp439
g44
aF541.5
aa(lp440
g46
aF1
aa(lp441
g49
aF1
aa(lp442
g51
ag80
((lp443
S'gaelvaroquaux'
p444
aS'pgervais'
p445
atRp446
aatRp447
ag2
((lp448
(lp449
g5
aI17
aa(lp450
g7
ag8
(S'\x07\xdd\x08\x13\x00\x00\x00\x00\x00\x00'
tRp451
aa(lp452
g11
ag8
(S'\x07\xdd\x08\x13\x00\x00\x00\x00\x00\x00'
tRp453
aa(lp454
g14
aI1
aa(lp455
g16
aI6
aa(lp456
g18
aI5
aa(lp457
g20
aI2
aa(lp458
g22
aI5
aa(lp459
g24
aI2
aa(lp460
g26
aI4
aa(lp461
g28
aF10.373402777777779
aa(lp462
g30
aF4
aa(lp463
g32
aF5
aa(lp464
g34
aF3
aa(lp465
g36
aI1
aa(lp466
g38
aI2
aa(lp467
g40
aI2
aa(lp468
g42
aF0
aa(lp469
g44
aF489
aa(lp470
g46
ag47
aa(lp471
g49
ag47
aa(lp472
g51
a(lp473
S'alexandreabraham'
p474
aaatRp475
ag2
((lp476
(lp477
g5
aI18
aa(lp478
g7
ag8
(S'\x07\xdd\x08\x1d\x00\x00\x00\x00\x00\x00'
tRp479
aa(lp480
g11
ag8
(S'\x07\xdd\t\x05\x00\x00\x00\x00\x00\x00'
tRp481
aa(lp482
g14
aI8
aa(lp483
g16
aI187
aa(lp484
g18
aI23
aa(lp485
g20
aI4
aa(lp486
g22
aI6
aa(lp487
g24
aI4
aa(lp488
g26
aI3
aa(lp489
g28
aF40.442314814814814
aa(lp490
g30
aF0.59999999999999998
aa(lp491
g32
aF1.2
aa(lp492
g34
aF20.777777777777779
aa(lp493
g36
aI5
aa(lp494
g38
aI6
aa(lp495
g40
aI9
aa(lp496
g42
aF0.1391304347826087
aa(lp497
g44
aF419.80000000000001
aa(lp498
g46
aF0.90000000000000002
aa(lp499
g49
aF0.10000000000000001
aa(lp500
g51
ag80
((lp501
S'alexandreabraham'
p502
aS'fabianp'
p503
aS'jaquesgrobler'
p504
aS'eickenberg'
p505
aS'pgervais'
p506
atRp507
aatRp508
ag2
((lp509
(lp510
g5
aI19
aa(lp511
g7
ag8
(S'\x07\xdd\t\n\x00\x00\x00\x00\x00\x00'
tRp512
aa(lp513
g11
ag8
(S'\x07\xdd\t\x13\x00\x00\x00\x00\x00\x00'
tRp514
aa(lp515
g14
aI10
aa(lp516
g16
aI126
aa(lp517
g18
aI27
aa(lp518
g20
aI4
aa(lp519
g22
aI8
aa(lp520
g24
aI4
aa(lp521
g26
aI6
aa(lp522
g28
aF108.18050925925927
aa(lp523
g30
aF1.2
aa(lp524
g32
aF1.6000000000000001
aa(lp525
g34
aF21
aa(lp526
g36
aI5
aa(lp527
g38
aI6
aa(lp528
g40
aI6
aa(lp529
g42
aF0.2814814814814815
aa(lp530
g44
aF627
aa(lp531
g46
aF0.59999999999999998
aa(lp532
g49
aF0.80000000000000004
aa(lp533
g51
ag80
((lp534
S'alexandreabraham'
p535
aS'gaelvaroquaux'
p536
aS'jaquesgrobler'
p537
aS'pgervais'
p538
aS'agramfort'
p539
atRp540
aatRp541
ag2
((lp542
(lp543
g5
aI20
aa(lp544
g7
ag8
(S'\x07\xdd\n\x0b\x00\x00\x00\x00\x00\x00'
tRp545
aa(lp546
g11
ag8
(S'\x07\xdd\n\x0e\x00\x00\x00\x00\x00\x00'
tRp547
aa(lp548
g14
aI4
aa(lp549
g16
aI43
aa(lp550
g18
aI22
aa(lp551
g20
aI3
aa(lp552
g22
aI5
aa(lp553
g24
aI4
aa(lp554
g26
aI4
aa(lp555
g28
aF22.910416666666666
aa(lp556
g30
aF1.3333333333333333
aa(lp557
g32
aF1.6666666666666667
aa(lp558
g34
aF8.5999999999999996
aa(lp559
g36
aI3
aa(lp560
g38
aI5
aa(lp561
g40
aI5
aa(lp562
g42
aF0.030303030303030304
aa(lp563
g44
aF677
aa(lp564
g46
aF0.66666666666666663
aa(lp565
g49
aF0.66666666666666663
aa(lp566
g51
ag80
((lp567
S'alexandreabraham'
p568
aS'gaelvaroquaux'
p569
aS'jaquesgrobler'
p570
atRp571
aatRp572
ag2
((lp573
(lp574
g5
aI21
aa(lp575
g7
ag8
(S'\x07\xdd\n\x19\x00\x00\x00\x00\x00\x00'
tRp576
aa(lp577
g11
ag8
(S'\x07\xdd\n\x19\x00\x00\x00\x00\x00\x00'
tRp578
aa(lp579
g14
aI1
aa(lp580
g16
aI22
aa(lp581
g18
aI6
aa(lp582
g20
aI2
aa(lp583
g22
aI1
aa(lp584
g24
aI0
aa(lp585
g26
aI1
aa(lp586
g28
aF22.957777777777778
aa(lp587
g30
aF1
aa(lp588
g32
aF1
aa(lp589
g34
aF7.333333333333333
aa(lp590
g36
aI1
aa(lp591
g38
aI3
aa(lp592
g40
aI3
aa(lp593
g42
aF0
aa(lp594
g44
aF1019
aa(lp595
g46
ag47
aa(lp596
g49
ag47
aa(lp597
g51
a(lp598
S'gaelvaroquaux'
p599
aaatRp600
ag2
((lp601
(lp602
g5
aI22
aa(lp603
g7
ag8
(S'\x07\xdd\x0b\x01\x00\x00\x00\x00\x00\x00'
tRp604
aa(lp605
g11
ag8
(S'\x07\xdd\x0b\x06\x00\x00\x00\x00\x00\x00'
tRp606
aa(lp607
g14
aI6
aa(lp608
g16
aI92
aa(lp609
g18
aI15
aa(lp610
g20
aI3
aa(lp611
g22
aI12
aa(lp612
g24
aI5
aa(lp613
g26
aI8
aa(lp614
g28
aF92.329062499999992
aa(lp615
g30
aF2
aa(lp616
g32
aF3
aa(lp617
g34
aF10.222222222222221
aa(lp618
g36
aI4
aa(lp619
g38
aI9
aa(lp620
g40
aI9
aa(lp621
g42
aF0
aa(lp622
g44
aF424.75
aa(lp623
g46
aF0.83333333333333337
aa(lp624
g49
aF0.83333333333333337
aa(lp625
g51
ag80
((lp626
S'alexandreabraham'
p627
aS'gaelvaroquaux'
p628
aS'eickenberg'
p629
aS'ronald.phlypo@inria.fr'
p630
atRp631
aatRp632
ag2
((lp633
(lp634
g5
aI23
aa(lp635
g7
ag8
(S'\x07\xdd\x0b\r\x00\x00\x00\x00\x00\x00'
tRp636
aa(lp637
g11
ag8
(S'\x07\xdd\x0b\r\x00\x00\x00\x00\x00\x00'
tRp638
aa(lp639
g14
aI1
aa(lp640
g16
aI12
aa(lp641
g18
aI4
aa(lp642
g20
aI1
aa(lp643
g22
aI2
aa(lp644
g24
aI1
aa(lp645
g26
aI2
aa(lp646
g28
aF4.6205555555555557
aa(lp647
g30
aF1
aa(lp648
g32
aF1
aa(lp649
g34
aF3
aa(lp650
g36
aI2
aa(lp651
g38
aI4
aa(lp652
g40
aI4
aa(lp653
g42
aF0
aa(lp654
g44
aF307.5
aa(lp655
g46
aF1
aa(lp656
g49
aF0
aa(lp657
g51
ag80
((lp658
S'alexandreabraham'
p659
aS'ronald.phlypo@inria.fr'
p660
atRp661
aatRp662
ag2
((lp663
(lp664
g5
aI24
aa(lp665
g7
ag8
(S'\x07\xdd\x0b\x13\x00\x00\x00\x00\x00\x00'
tRp666
aa(lp667
g11
ag8
(S'\x07\xdd\x0b\x16\x00\x00\x00\x00\x00\x00'
tRp668
aa(lp669
g14
aI4
aa(lp670
g16
aI57
aa(lp671
g18
aI18
aa(lp672
g20
aI4
aa(lp673
g22
aI11
aa(lp674
g24
aI9
aa(lp675
g26
aI9
aa(lp676
g28
aF22.953086419753085
aa(lp677
g30
aF2.25
aa(lp678
g32
aF2.75
aa(lp679
g34
aF8.1428571428571423
aa(lp680
g36
aI4
aa(lp681
g38
aI7
aa(lp682
g40
aI7
aa(lp683
g42
aF0.1111111111111111
aa(lp684
g44
aF549.25
aa(lp685
g46
aF0.83333333333333337
aa(lp686
g49
aF0.66666666666666663
aa(lp687
g51
ag80
((lp688
S'alexandreabraham'
p689
aS'gaelvaroquaux'
p690
aS'jaquesgrobler'
p691
aS'ronald.phlypo@inria.fr'
p692
atRp693
aatRp694
ag2
((lp695
(lp696
g5
aI26
aa(lp697
g7
ag8
(S'\x07\xdd\x0c\x03\x00\x00\x00\x00\x00\x00'
tRp698
aa(lp699
g11
ag8
(S'\x07\xdd\x0c\r\x00\x00\x00\x00\x00\x00'
tRp700
aa(lp701
g14
aI11
aa(lp702
g16
aI205
aa(lp703
g18
aI20
aa(lp704
g20
aI5
aa(lp705
g22
aI6
aa(lp706
g24
aI5
aa(lp707
g26
aI2
aa(lp708
g28
aF161.155
aa(lp709
g30
aF0.33333333333333331
aa(lp710
g32
aF1
aa(lp711
g34
aF25.625
aa(lp712
g36
aI6
aa(lp713
g38
aI8
aa(lp714
g40
aI8
aa(lp715
g42
aF0.033333333333333333
aa(lp716
g44
aF521.66666666666663
aa(lp717
g46
aF0.80000000000000004
aa(lp718
g49
aF0.80000000000000004
aa(lp719
g51
ag80
((lp720
S'gaelvaroquaux'
p721
aS'eickenberg'
p722
aS'fabianp'
p723
aS'alexandreabraham'
p724
aS'mekman'
p725
aS'ronald.phlypo@inria.fr'
p726
atRp727
aatRp728
ag2
((lp729
(lp730
g5
aI27
aa(lp731
g7
ag8
(S'\x07\xde\x01\x1d\x00\x00\x00\x00\x00\x00'
tRp732
aa(lp733
g11
ag8
(S'\x07\xde\x02\x04\x00\x00\x00\x00\x00\x00'
tRp734
aa(lp735
g14
aI7
aa(lp736
g16
aI159
aa(lp737
g18
aI30
aa(lp738
g20
aI4
aa(lp739
g22
aI13
aa(lp740
g24
aI8
aa(lp741
g26
aI9
aa(lp742
g28
aF50.101697530864193
aa(lp743
g30
aF2.25
aa(lp744
g32
aF3.25
aa(lp745
g34
aF17.666666666666668
aa(lp746
g36
aI4
aa(lp747
g38
aI9
aa(lp748
g40
aI9
aa(lp749
g42
aF0.066666666666666666
aa(lp750
g44
aF416
aa(lp751
g46
aF0.66666666666666663
aa(lp752
g49
aF0.5
aa(lp753
g51
ag80
((lp754
S'gvaroqua@drago.saclay.inria.fr'
p755
aS'gaelvaroquaux'
p756
aS'ronald.phlypo@inria.fr'
p757
aS'virgilefritsch'
p758
atRp759
aatRp760
ag2
((lp761
(lp762
g5
aI28
aa(lp763
g7
ag8
(S'\x07\xde\x02\x0b\x00\x00\x00\x00\x00\x00'
tRp764
aa(lp765
g11
ag8
(S'\x07\xde\x02\x15\x00\x00\x00\x00\x00\x00'
tRp766
aa(lp767
g14
aI11
aa(lp768
g16
aI214
aa(lp769
g18
aI27
aa(lp770
g20
aI4
aa(lp771
g22
aI8
aa(lp772
g24
aI3
aa(lp773
g26
aI5
aa(lp774
g28
aF116.67433333333334
aa(lp775
g30
aF1.6666666666666667
aa(lp776
g32
aF2.6666666666666665
aa(lp777
g34
aF23.777777777777779
aa(lp778
g36
aI3
aa(lp779
g38
aI9
aa(lp780
g40
aI9
aa(lp781
g42
aF0
aa(lp782
g44
aF469.33333333333331
aa(lp783
g46
aF0
aa(lp784
g49
aF0.66666666666666663
aa(lp785
g51
ag80
((lp786
S'gaelvaroquaux'
p787
aS'dohmatob'
p788
aS'virgilefritsch'
p789
atRp790
aatRp791
ag2
((lp792
(lp793
g5
aI29
aa(lp794
g7
ag8
(S'\x07\xde\x03\x03\x00\x00\x00\x00\x00\x00'
tRp795
aa(lp796
g11
ag8
(S'\x07\xde\x03\x06\x00\x00\x00\x00\x00\x00'
tRp797
aa(lp798
g14
aI4
aa(lp799
g16
aI27
aa(lp800
g18
aI8
aa(lp801
g20
aI3
aa(lp802
g22
aI3
aa(lp803
g24
aI2
aa(lp804
g26
aI1
aa(lp805
g28
aF84.998333333333335
aa(lp806
g30
aF0.25
aa(lp807
g32
aF0.75
aa(lp808
g34
aF5.4000000000000004
aa(lp809
g36
aI4
aa(lp810
g38
aI2
aa(lp811
g40
aI5
aa(lp812
g42
aF0.03125
aa(lp813
g44
aF258.5
aa(lp814
g46
aF0.66666666666666663
aa(lp815
g49
aF0
aa(lp816
g51
ag80
((lp817
S'alexandreabraham'
p818
aS'ys218403@is220245.(none)'
p819
aS'eickenberg'
p820
aS'virgilefritsch'
p821
atRp822
aatRp823
ag2
((lp824
(lp825
g5
aI31
aa(lp826
g7
ag8
(S'\x07\xde\x03\x13\x00\x00\x00\x00\x00\x00'
tRp827
aa(lp828
g11
ag8
(S'\x07\xde\x03\x14\x00\x00\x00\x00\x00\x00'
tRp829
aa(lp830
g14
aI2
aa(lp831
g16
aI27
aa(lp832
g18
aI7
aa(lp833
g20
aI2
aa(lp834
g22
aI8
aa(lp835
g24
aI3
aa(lp836
g26
aI5
aa(lp837
g28
aF11.473666666666668
aa(lp838
g30
aF1.25
aa(lp839
g32
aF2
aa(lp840
g34
aF5.4000000000000004
aa(lp841
g36
aI4
aa(lp842
g38
aI5
aa(lp843
g40
aI5
aa(lp844
g42
aF0.035714285714285712
aa(lp845
g44
aF529
aa(lp846
g46
aF0.33333333333333331
aa(lp847
g49
aF1
aa(lp848
g51
ag80
((lp849
S'alexandreabraham'
p850
aS'gaelvaroquaux'
p851
aS'eickenberg'
p852
aS'virgilefritsch'
p853
atRp854
aatRp855
ag2
((lp856
(lp857
g5
aI32
aa(lp858
g7
ag8
(S'\x07\xde\x03\x19\x00\x00\x00\x00\x00\x00'
tRp859
aa(lp860
g11
ag8
(S'\x07\xde\x04\x04\x00\x00\x00\x00\x00\x00'
tRp861
aa(lp862
g14
aI11
aa(lp863
g16
aI137
aa(lp864
g18
aI13
aa(lp865
g20
aI2
aa(lp866
g22
aI11
aa(lp867
g24
aI5
aa(lp868
g26
aI7
aa(lp869
g28
aF119.18507936507936
aa(lp870
g30
aF1.3999999999999999
aa(lp871
g32
aF2.2000000000000002
aa(lp872
g34
aF15.222222222222221
aa(lp873
g36
aI5
aa(lp874
g38
aI8
aa(lp875
g40
aI9
aa(lp876
g42
aF0.1076923076923077
aa(lp877
g44
aF471.60000000000002
aa(lp878
g46
aF0.5
aa(lp879
g49
aF0.5
aa(lp880
g51
ag80
((lp881
S'alexandreabraham'
p882
aS'gaelvaroquaux'
p883
aS'ronald.phlypo@inria.fr'
p884
aS'eickenberg'
p885
aS'virgilefritsch'
p886
atRp887
aatRp888
ag2
((lp889
(lp890
g5
aI33
aa(lp891
g7
ag8
(S'\x07\xde\x04\t\x00\x00\x00\x00\x00\x00'
tRp892
aa(lp893
g11
ag8
(S'\x07\xde\x04\x11\x00\x00\x00\x00\x00\x00'
tRp894
aa(lp895
g14
aI9
aa(lp896
g16
aI110
aa(lp897
g18
aI22
aa(lp898
g20
aI3
aa(lp899
g22
aI5
aa(lp900
g24
aI5
aa(lp901
g26
aI0
aa(lp902
g28
aF0
aa(lp903
g30
aF0
aa(lp904
g32
aF1.6666666666666667
aa(lp905
g34
aF12.222222222222221
aa(lp906
g36
aI3
aa(lp907
g38
aI9
aa(lp908
g40
aI9
aa(lp909
g42
aF0.015151515151515152
aa(lp910
g44
aF499.33333333333331
aa(lp911
g46
aF0.33333333333333331
aa(lp912
g49
aF1
aa(lp913
g51
ag80
((lp914
S'gaelvaroquaux'
p915
aS'eickenberg'
p916
aS'virgilefritsch'
p917
atRp918
aatRp919
ag2
((lp920
(lp921
g5
aI34
aa(lp922
g7
ag8
(S'\x07\xde\x04\x15\x00\x00\x00\x00\x00\x00'
tRp923
aa(lp924
g11
ag8
(S'\x07\xde\x04\x18\x00\x00\x00\x00\x00\x00'
tRp925
aa(lp926
g14
aI4
aa(lp927
g16
aI101
aa(lp928
g18
aI16
aa(lp929
g20
aI3
aa(lp930
g22
aI4
aa(lp931
g24
aI1
aa(lp932
g26
aI3
aa(lp933
g28
aF31.20157407407407
aa(lp934
g30
aF0.75
aa(lp935
g32
aF1
aa(lp936
g34
aF20.199999999999999
aa(lp937
g36
aI4
aa(lp938
g38
aI5
aa(lp939
g40
aI5
aa(lp940
g42
aF0.015625
aa(lp941
g44
aF564
aa(lp942
g46
aF0.33333333333333331
aa(lp943
g49
aF1
aa(lp944
g51
ag80
((lp945
S'alexandreabraham'
p946
aS'gaelvaroquaux'
p947
aS'eickenberg'
p948
aS'virgilefritsch'
p949
atRp950
aatRp951
ag2
((lp952
(lp953
g5
aI35
aa(lp954
g7
ag8
(S'\x07\xde\x04\x1c\x00\x00\x00\x00\x00\x00'
tRp955
aa(lp956
g11
ag8
(S'\x07\xde\x04\x1c\x00\x00\x00\x00\x00\x00'
tRp957
aa(lp958
g14
aI1
aa(lp959
g16
aI11
aa(lp960
g18
aI6
aa(lp961
g20
aI2
aa(lp962
g22
aI4
aa(lp963
g24
aI3
aa(lp964
g26
aI3
aa(lp965
g28
aF6.919999999999999
aa(lp966
g30
aF1.5
aa(lp967
g32
aF2
aa(lp968
g34
aF2.75
aa(lp969
g36
aI2
aa(lp970
g38
aI4
aa(lp971
g40
aI4
aa(lp972
g42
aF0
aa(lp973
g44
aF414
aa(lp974
g46
aF0
aa(lp975
g49
aF1
aa(lp976
g51
ag80
((lp977
S'alexandreabraham'
p978
aS'virgilefritsch'
p979
atRp980
aatRp981
ag2
((lp982
(lp983
g5
aI36
aa(lp984
g7
ag8
(S'\x07\xde\x05\x10\x00\x00\x00\x00\x00\x00'
tRp985
aa(lp986
g11
ag8
(S'\x07\xde\x05\x15\x00\x00\x00\x00\x00\x00'
tRp987
aa(lp988
g14
aI6
aa(lp989
g16
aI37
aa(lp990
g18
aI9
aa(lp991
g20
aI2
aa(lp992
g22
aI5
aa(lp993
g24
aI1
aa(lp994
g26
aI4
aa(lp995
g28
aF79.708194444444445
aa(lp996
g30
aF1.3333333333333333
aa(lp997
g32
aF1.6666666666666667
aa(lp998
g34
aF5.2857142857142856
aa(lp999
g36
aI3
aa(lp1000
g38
aI7
aa(lp1001
g40
aI7
aa(lp1002
g42
aF0
aa(lp1003
g44
aF700.33333333333337
aa(lp1004
g46
aF0
aa(lp1005
g49
aF1
aa(lp1006
g51
ag80
((lp1007
S'alexandreabraham'
p1008
aS'gaelvaroquaux'
p1009
aS'virgilefritsch'
p1010
atRp1011
aatRp1012
ag2
((lp1013
(lp1014
g5
aI37
aa(lp1015
g7
ag8
(S'\x07\xde\x05\x1b\x00\x00\x00\x00\x00\x00'
tRp1016
aa(lp1017
g11
ag8
(S'\x07\xde\x05\x1d\x00\x00\x00\x00\x00\x00'
tRp1018
aa(lp1019
g14
aI3
aa(lp1020
g16
aI14
aa(lp1021
g18
aI3
aa(lp1022
g20
aI1
aa(lp1023
g22
aI3
aa(lp1024
g24
aI2
aa(lp1025
g26
aI2
aa(lp1026
g28
aF39.402638888888887
aa(lp1027
g30
aF0.66666666666666663
aa(lp1028
g32
aF1
aa(lp1029
g34
aF2.7999999999999998
aa(lp1030
g36
aI3
aa(lp1031
g38
aI4
aa(lp1032
g40
aI5
aa(lp1033
g42
aF0
aa(lp1034
g44
aF579.66666666666663
aa(lp1035
g46
aF0.33333333333333331
aa(lp1036
g49
aF0.33333333333333331
aa(lp1037
g51
ag80
((lp1038
S'gaelvaroquaux'
p1039
aS'bthirion'
p1040
aS'virgilefritsch'
p1041
atRp1042
aatRp1043
ag2
((lp1044
(lp1045
g5
aI38
aa(lp1046
g7
ag8
(S'\x07\xde\x06\x10\x00\x00\x00\x00\x00\x00'
tRp1047
aa(lp1048
g11
ag8
(S'\x07\xde\x06\x13\x00\x00\x00\x00\x00\x00'
tRp1049
aa(lp1050
g14
aI4
aa(lp1051
g16
aI270
aa(lp1052
g18
aI43
aa(lp1053
g20
aI4
aa(lp1054
g22
aI11
aa(lp1055
g24
aI10
aa(lp1056
g26
aI7
aa(lp1057
g28
aF9.2787698412698436
aa(lp1058
g30
aF1
aa(lp1059
g32
aF1.5714285714285714
aa(lp1060
g34
aF30
aa(lp1061
g36
aI7
aa(lp1062
g38
aI7
aa(lp1063
g40
aI9
aa(lp1064
g42
aF0
aa(lp1065
g44
aF417.85714285714283
aa(lp1066
g46
aF0.61904761904761907
aa(lp1067
g49
aF0.2857142857142857
aa(lp1068
g51
ag80
((lp1069
S'chrisfilo'
p1070
aS'gaelvaroquaux'
p1071
aS'eickenberg'
p1072
aS'virgilefritsch'
p1073
aS'ys218403@is220245.(none)'
p1074
aS'dohmatob'
p1075
aS'schwarty'
p1076
atRp1077
aatRp1078
ag2
((lp1079
(lp1080
g5
aI39
aa(lp1081
g7
ag8
(S'\x07\xde\x06\x1b\x00\x00\x00\x00\x00\x00'
tRp1082
aa(lp1083
g11
ag8
(S'\x07\xde\x07\x03\x00\x00\x00\x00\x00\x00'
tRp1084
aa(lp1085
g14
aI7
aa(lp1086
g16
aI216
aa(lp1087
g18
aI62
aa(lp1088
g20
aI4
aa(lp1089
g22
aI8
aa(lp1090
g24
aI6
aa(lp1091
g26
aI3
aa(lp1092
g28
aF72.030648148148146
aa(lp1093
g30
aF1
aa(lp1094
g32
aF2.6666666666666665
aa(lp1095
g34
aF16.615384615384617
aa(lp1096
g36
aI3
aa(lp1097
g38
aI13
aa(lp1098
g40
aI13
aa(lp1099
g42
aF0
aa(lp1100
g44
aF819.33333333333337
aa(lp1101
g46
aF0
aa(lp1102
g49
aF1
aa(lp1103
g51
ag80
((lp1104
S'alexandreabraham'
p1105
aS'dohmatob'
p1106
aS'gaelvaroquaux'
p1107
atRp1108
aatRp1109
ag2
((lp1110
(lp1111
g5
aI40
aa(lp1112
g7
ag8
(S'\x07\xde\x07\x15\x00\x00\x00\x00\x00\x00'
tRp1113
aa(lp1114
g11
ag8
(S'\x07\xde\x07\x16\x00\x00\x00\x00\x00\x00'
tRp1115
aa(lp1116
g14
aI2
aa(lp1117
g16
aI23
aa(lp1118
g18
aI1
aa(lp1119
g20
aI1
aa(lp1120
g22
aI1
aa(lp1121
g24
aI1
aa(lp1122
g26
aI0
aa(lp1123
g28
aF0
aa(lp1124
g30
aF0
aa(lp1125
g32
aF0.5
aa(lp1126
g34
aF3.2857142857142856
aa(lp1127
g36
aI2
aa(lp1128
g38
aI7
aa(lp1129
g40
aI7
aa(lp1130
g42
aF0
aa(lp1131
g44
aF465.5
aa(lp1132
g46
aF0
aa(lp1133
g49
aF0
aa(lp1134
g51
ag80
((lp1135
S'alexandreabraham'
p1136
aS'sb238920@is223297.intra.cea.fr'
p1137
atRp1138
aatRp1139
ag2
((lp1140
(lp1141
g5
aI43
aa(lp1142
g7
ag8
(S'\x07\xde\x08\x18\x00\x00\x00\x00\x00\x00'
tRp1143
aa(lp1144
g11
ag8
(S'\x07\xde\x08\x1b\x00\x00\x00\x00\x00\x00'
tRp1145
aa(lp1146
g14
aI4
aa(lp1147
g16
aI25
aa(lp1148
g18
aI41
aa(lp1149
g20
aI5
aa(lp1150
g22
aI1
aa(lp1151
g24
aI0
aa(lp1152
g26
aI1
aa(lp1153
g28
aF16.713055555555556
aa(lp1154
g30
aF0.33333333333333331
aa(lp1155
g32
aF0.33333333333333331
aa(lp1156
g34
aF3.5714285714285716
aa(lp1157
g36
aI3
aa(lp1158
g38
aI5
aa(lp1159
g40
aI7
aa(lp1160
g42
aF0.016260162601626018
aa(lp1161
g44
aF634
aa(lp1162
g46
aF0.33333333333333331
aa(lp1163
g49
aF0
aa(lp1164
g51
ag80
((lp1165
S'gaelvaroquaux'
p1166
aS'sb238920@is223297.intra.cea.fr'
p1167
aS'dohmatob'
p1168
atRp1169
aatRp1170
ag2
((lp1171
(lp1172
g5
aI44
aa(lp1173
g7
ag8
(S'\x07\xde\t\x02\x00\x00\x00\x00\x00\x00'
tRp1174
aa(lp1175
g11
ag8
(S'\x07\xde\t\x03\x00\x00\x00\x00\x00\x00'
tRp1176
aa(lp1177
g14
aI2
aa(lp1178
g16
aI19
aa(lp1179
g18
aI2
aa(lp1180
g20
aI1
aa(lp1181
g22
aI1
aa(lp1182
g24
aI1
aa(lp1183
g26
aI1
aa(lp1184
g28
aF0.051388888888888887
aa(lp1185
g30
aF0.33333333333333331
aa(lp1186
g32
aF0.33333333333333331
aa(lp1187
g34
aF6.333333333333333
aa(lp1188
g36
aI3
aa(lp1189
g38
aI2
aa(lp1190
g40
aI3
aa(lp1191
g42
aF1.3333333333333333
aa(lp1192
g44
aF608
aa(lp1193
g46
aF0
aa(lp1194
g49
aF0
aa(lp1195
g51
ag80
((lp1196
S'dohmatob'
p1197
aS'gaelvaroquaux'
p1198
aS'lesteve'
p1199
atRp1200
aatRp1201
ag2
((lp1202
(lp1203
g5
aI45
aa(lp1204
g7
ag8
(S'\x07\xde\t\n\x00\x00\x00\x00\x00\x00'
tRp1205
aa(lp1206
g11
ag8
(S'\x07\xde\t\x11\x00\x00\x00\x00\x00\x00'
tRp1207
aa(lp1208
g14
aI8
aa(lp1209
g16
aI163
aa(lp1210
g18
aI54
aa(lp1211
g20
aI6
aa(lp1212
g22
aI21
aa(lp1213
g24
aI11
aa(lp1214
g26
aI13
aa(lp1215
g28
aF103.71192307692309
aa(lp1216
g30
aF3.25
aa(lp1217
g32
aF5.25
aa(lp1218
g34
aF27.166666666666668
aa(lp1219
g36
aI4
aa(lp1220
g38
aI6
aa(lp1221
g40
aI6
aa(lp1222
g42
aF0.18981481481481483
aa(lp1223
g44
aF687.25
aa(lp1224
g46
aF0.16666666666666666
aa(lp1225
g49
aF0.83333333333333337
aa(lp1226
g51
ag80
((lp1227
S'alexandreabraham'
p1228
aS'dohmatob'
p1229
aS'gaelvaroquaux'
p1230
aS'lesteve'
p1231
atRp1232
aatRp1233
ag2
((lp1234
(lp1235
g5
aI46
aa(lp1236
g7
ag8
(S'\x07\xde\t\x16\x00\x00\x00\x00\x00\x00'
tRp1237
aa(lp1238
g11
ag8
(S'\x07\xde\n\x02\x00\x00\x00\x00\x00\x00'
tRp1239
aa(lp1240
g14
aI11
aa(lp1241
g16
aI217
aa(lp1242
g18
aI53
aa(lp1243
g20
aI5
aa(lp1244
g22
aI12
aa(lp1245
g24
aI9
aa(lp1246
g26
aI7
aa(lp1247
g28
aF112.07619047619049
aa(lp1248
g30
aF1.3999999999999999
aa(lp1249
g32
aF2.3999999999999999
aa(lp1250
g34
aF31
aa(lp1251
g36
aI5
aa(lp1252
g38
aI7
aa(lp1253
g40
aI7
aa(lp1254
g42
aF0.34339622641509432
aa(lp1255
g44
aF634.79999999999995
aa(lp1256
g46
aF0.40000000000000002
aa(lp1257
g49
aF0.90000000000000002
aa(lp1258
g51
ag80
((lp1259
S'alexandreabraham'
p1260
aS'dohmatob'
p1261
aS'lesteve'
p1262
aS'gaelvaroquaux'
p1263
aS'banilo'
p1264
atRp1265
aatRp1266
ag2
((lp1267
(lp1268
g5
aI47
aa(lp1269
g7
ag8
(S'\x07\xde\n\x06\x00\x00\x00\x00\x00\x00'
tRp1270
aa(lp1271
g11
ag8
(S'\x07\xde\x0b\x05\x00\x00\x00\x00\x00\x00'
tRp1272
aa(lp1273
g14
aI31
aa(lp1274
g16
aI869
aa(lp1275
g18
aI74
aa(lp1276
g20
aI6
aa(lp1277
g22
aI33
aa(lp1278
g24
aI23
aa(lp1279
g26
aI28
aa(lp1280
g28
aF158.762371031746
aa(lp1281
g30
aF4
aa(lp1282
g32
aF4.7142857142857144
aa(lp1283
g34
aF86.900000000000006
aa(lp1284
g36
aI7
aa(lp1285
g38
aI10
aa(lp1286
g40
aI10
aa(lp1287
g42
aF0.26640926640926643
aa(lp1288
g44
aF558.42857142857144
aa(lp1289
g46
aF0.61904761904761907
aa(lp1290
g49
aF0.7142857142857143
aa(lp1291
g51
ag80
((lp1292
S'gaelvaroquaux'
p1293
aS'lesteve'
p1294
aS'alexandreabraham'
p1295
aS'titan-c'
p1296
aS'mekman'
p1297
aS'dohmatob'
p1298
aS'banilo'
p1299
atRp1300
aatRp1301
ag2
((lp1302
(lp1303
g5
aI48
aa(lp1304
g7
ag8
(S'\x07\xde\x0b\x0b\x00\x00\x00\x00\x00\x00'
tRp1305
aa(lp1306
g11
ag8
(S'\x07\xde\x0b\x0e\x00\x00\x00\x00\x00\x00'
tRp1307
aa(lp1308
g14
aI4
aa(lp1309
g16
aI74
aa(lp1310
g18
aI16
aa(lp1311
g20
aI4
aa(lp1312
g22
aI9
aa(lp1313
g24
aI6
aa(lp1314
g26
aI7
aa(lp1315
g28
aF29.620833333333337
aa(lp1316
g30
aF1.75
aa(lp1317
g32
aF2.25
aa(lp1318
g34
aF12.333333333333334
aa(lp1319
g36
aI4
aa(lp1320
g38
aI6
aa(lp1321
g40
aI6
aa(lp1322
g42
aF1.734375
aa(lp1323
g44
aF612
aa(lp1324
g46
aF0.5
aa(lp1325
g49
aF1
aa(lp1326
g51
ag80
((lp1327
S'dohmatob'
p1328
aS'lesteve'
p1329
aS'gaelvaroquaux'
p1330
aS'banilo'
p1331
atRp1332
aatRp1333
ag2
((lp1334
(lp1335
g5
aI49
aa(lp1336
g7
ag8
(S'\x07\xde\x0b\x13\x00\x00\x00\x00\x00\x00'
tRp1337
aa(lp1338
g11
ag8
(S'\x07\xde\x0c\x13\x00\x00\x00\x00\x00\x00'
tRp1339
aa(lp1340
g14
aI31
aa(lp1341
g16
aI831
aa(lp1342
g18
aI149
aa(lp1343
g20
aI7
aa(lp1344
g22
aI52
aa(lp1345
g24
aI44
aa(lp1346
g26
aI42
aa(lp1347
g28
aF117.40830687830687
aa(lp1348
g30
aF7
aa(lp1349
g32
aF8.6666666666666661
aa(lp1350
g34
aF75.545454545454547
aa(lp1351
g36
aI6
aa(lp1352
g38
aI11
aa(lp1353
g40
aI11
aa(lp1354
g42
aF0.20805369127516779
aa(lp1355
g44
aF673.16666666666663
aa(lp1356
g46
aF0.53333333333333333
aa(lp1357
g49
aF0.93333333333333335
aa(lp1358
g51
ag80
((lp1359
S'gaelvaroquaux'
p1360
aS'lesteve'
p1361
aS'banilo'
p1362
aS'alexandreabraham'
p1363
aS'dohmatob'
p1364
aS'eickenberg'
p1365
atRp1366
aatRp1367
ag2
((lp1368
(lp1369
g5
aI50
aa(lp1370
g7
ag8
(S'\x07\xde\x0c\x17\x00\x00\x00\x00\x00\x00'
tRp1371
aa(lp1372
g11
ag8
(S'\x07\xde\x0c\x17\x00\x00\x00\x00\x00\x00'
tRp1373
aa(lp1374
g14
aI1
aa(lp1375
g16
aI1
aa(lp1376
g18
aI0
aa(lp1377
g20
aI0
aa(lp1378
g22
aI1
aa(lp1379
g24
aI1
aa(lp1380
g26
aI0
aa(lp1381
g28
aF0
aa(lp1382
g30
aF0
aa(lp1383
g32
aF1
aa(lp1384
g34
aF0.25
aa(lp1385
g36
aI1
aa(lp1386
g38
aI4
aa(lp1387
g40
aI4
aa(lp1388
g42
aF0
aa(lp1389
g44
aF447
aa(lp1390
g46
ag47
aa(lp1391
g49
ag47
aa(lp1392
g51
a(lp1393
S'banilo'
p1394
aaatRp1395
ag2
((lp1396
(lp1397
g5
aI51
aa(lp1398
g7
ag8
(S'\x07\xdf\x01\x06\x00\x00\x00\x00\x00\x00'
tRp1399
aa(lp1400
g11
ag8
(S'\x07\xdf\x01\x16\x00\x00\x00\x00\x00\x00'
tRp1401
aa(lp1402
g14
aI17
aa(lp1403
g16
aI442
aa(lp1404
g18
aI64
aa(lp1405
g20
aI5
aa(lp1406
g22
aI40
aa(lp1407
g24
aI32
aa(lp1408
g26
aI23
aa(lp1409
g28
aF91.325289855072455
aa(lp1410
g30
aF2.875
aa(lp1411
g32
aF5
aa(lp1412
g34
aF36.833333333333336
aa(lp1413
g36
aI8
aa(lp1414
g38
aI11
aa(lp1415
g40
aI12
aa(lp1416
g42
aF0.302734375
aa(lp1417
g44
aF816.57142857142856
aa(lp1418
g46
aF0.4642857142857143
aa(lp1419
g49
aF0.5
aa(lp1420
g51
ag80
((lp1421
S'gaelvaroquaux'
p1422
aS'eickenberg'
p1423
aS'bcipolli@ucsd.edu'
p1424
aS'alexandreabraham'
p1425
aS'lesteve'
p1426
aS'agramfort'
p1427
aS'dohmatob'
p1428
aS'banilo'
p1429
atRp1430
aatRp1431
ag2
((lp1432
(lp1433
g5
aI52
aa(lp1434
g7
ag8
(S'\x07\xdf\x01\x1a\x00\x00\x00\x00\x00\x00'
tRp1435
aa(lp1436
g11
ag8
(S'\x07\xdf\x03\x1e\x00\x00\x00\x00\x00\x00'
tRp1437
aa(lp1438
g14
aI64
aa(lp1439
g16
aI2462
aa(lp1440
g18
aI136
aa(lp1441
g20
aI8
aa(lp1442
g22
aI177
aa(lp1443
g24
aI154
aa(lp1444
g26
aI149
aa(lp1445
g28
aF158.28637024608497
aa(lp1446
g30
aF10.642857142857142
aa(lp1447
g32
aF12.642857142857142
aa(lp1448
g34
aF111.90909090909091
aa(lp1449
g36
aI14
aa(lp1450
g38
aI22
aa(lp1451
g40
aI22
aa(lp1452
g42
aF0.17594537815126052
aa(lp1453
g44
aF519.5454545454545
aa(lp1454
g46
aF0.62637362637362637
aa(lp1455
g49
aF0.47252747252747251
aa(lp1456
g51
ag80
((lp1457
S'gaelvaroquaux'
p1458
aS'bthirion'
p1459
aS'eickenberg'
p1460
aS'banilo'
p1461
aS'mehdi.rahim@cea.fr'
p1462
aS'bcipolli@ucsd.edu'
p1463
aS'alexandreabraham'
p1464
aS'titan-c'
p1465
aS'mrahim'
p1466
aS'kamalakerdadi'
p1467
aS'kshmelkov'
p1468
aS'dohmatob'
p1469
aS'salma@is223297.intra.cea.fr'
p1470
aS'lesteve'
p1471
atRp1472
aatRp1473
ag2
((lp1474
(lp1475
g5
aI53
aa(lp1476
g7
ag8
(S'\x07\xdf\x04\x08\x00\x00\x00\x00\x00\x00'
tRp1477
aa(lp1478
g11
ag8
(S'\x07\xdf\x04\x18\x00\x00\x00\x00\x00\x00'
tRp1479
aa(lp1480
g14
aI17
aa(lp1481
g16
aI334
aa(lp1482
g18
aI80
aa(lp1483
g20
aI5
aa(lp1484
g22
aI40
aa(lp1485
g24
aI24
aa(lp1486
g26
aI34
aa(lp1487
g28
aF100.53808823529413
aa(lp1488
g30
aF3.3999999999999999
aa(lp1489
g32
aF4
aa(lp1490
g34
aF22.266666666666666
aa(lp1491
g36
aI10
aa(lp1492
g38
aI15
aa(lp1493
g40
aI15
aa(lp1494
g42
aF0.47749999999999998
aa(lp1495
g44
aF793.5
aa(lp1496
g46
aF0.62222222222222223
aa(lp1497
g49
aF0.44444444444444442
aa(lp1498
g51
ag80
((lp1499
S'gaelvaroquaux'
p1500
aS'bthirion'
p1501
aS'lesteve'
p1502
aS'fabianp'
p1503
aS'alexandreabraham'
p1504
aS'titan-c'
p1505
aS'sb238920@is223297.intra.cea.fr'
p1506
aS'agramfort'
p1507
aS'demianw'
p1508
aS'banilo'
p1509
atRp1510
aatRp1511
ag2
((lp1512
(lp1513
g5
aI54
aa(lp1514
g7
ag8
(S'\x07\xdf\x04\x1c\x00\x00\x00\x00\x00\x00'
tRp1515
aa(lp1516
g11
ag8
(S'\x07\xdf\x05\x0e\x00\x00\x00\x00\x00\x00'
tRp1517
aa(lp1518
g14
aI17
aa(lp1519
g16
aI415
aa(lp1520
g18
aI42
aa(lp1521
g20
aI3
aa(lp1522
g22
aI37
aa(lp1523
g24
aI24
aa(lp1524
g26
aI30
aa(lp1525
g28
aF148.32930555555555
aa(lp1526
g30
aF3.3333333333333335
aa(lp1527
g32
aF4.1111111111111107
aa(lp1528
g34
aF24.411764705882351
aa(lp1529
g36
aI9
aa(lp1530
g38
aI17
aa(lp1531
g40
aI17
aa(lp1532
g42
aF0.57407407407407407
aa(lp1533
g44
aF706.33333333333337
aa(lp1534
g46
aF0.41666666666666669
aa(lp1535
g49
aF0.55555555555555558
aa(lp1536
g51
ag80
((lp1537
S'gaelvaroquaux'
p1538
aS'banilo'
p1539
aS'agramfort'
p1540
aS'alexandreabraham'
p1541
aS'sb238920@is223297.intra.cea.fr'
p1542
aS'kamalakerdadi'
p1543
aS'dohmatob'
p1544
aS'demianw'
p1545
aS'lesteve'
p1546
atRp1547
aatRp1548
ag2
((lp1549
(lp1550
g5
aI55
aa(lp1551
g7
ag8
(S'\x07\xdf\x05\x12\x00\x00\x00\x00\x00\x00'
tRp1552
aa(lp1553
g11
ag8
(S'\x07\xdf\x05\x1a\x00\x00\x00\x00\x00\x00'
tRp1554
aa(lp1555
g14
aI9
aa(lp1556
g16
aI56
aa(lp1557
g18
aI9
aa(lp1558
g20
aI3
aa(lp1559
g22
aI8
aa(lp1560
g24
aI6
aa(lp1561
g26
aI3
aa(lp1562
g28
aF13.97462962962963
aa(lp1563
g30
aF0.59999999999999998
aa(lp1564
g32
aF1.6000000000000001
aa(lp1565
g34
aF6.2222222222222223
aa(lp1566
g36
aI5
aa(lp1567
g38
aI9
aa(lp1568
g40
aI9
aa(lp1569
g42
aF0.066666666666666666
aa(lp1570
g44
aF724.60000000000002
aa(lp1571
g46
aF0.40000000000000002
aa(lp1572
g49
aF0.69999999999999996
aa(lp1573
g51
ag80
((lp1574
S'alexandreabraham'
p1575
aS'titan-c'
p1576
aS'gaelvaroquaux'
p1577
aS'banilo'
p1578
aS'kamalakerdadi'
p1579
atRp1580
aatRp1581
ag2
((lp1582
(lp1583
g5
aI56
aa(lp1584
g7
ag8
(S'\x07\xdf\x06\x01\x00\x00\x00\x00\x00\x00'
tRp1585
aa(lp1586
g11
ag8
(S'\x07\xdf\x06\x04\x00\x00\x00\x00\x00\x00'
tRp1587
aa(lp1588
g14
aI4
aa(lp1589
g16
aI57
aa(lp1590
g18
aI25
aa(lp1591
g20
aI4
aa(lp1592
g22
aI9
aa(lp1593
g24
aI4
aa(lp1594
g26
aI7
aa(lp1595
g28
aF19.71043650793651
aa(lp1596
g30
aF1.75
aa(lp1597
g32
aF2.25
aa(lp1598
g34
aF6.333333333333333
aa(lp1599
g36
aI4
aa(lp1600
g38
aI8
aa(lp1601
g40
aI9
aa(lp1602
g42
aF0.98999999999999999
aa(lp1603
g44
aF826
aa(lp1604
g46
aF0.66666666666666663
aa(lp1605
g49
aF0.5
aa(lp1606
g51
ag80
((lp1607
S'alexandreabraham'
p1608
aS'titan-c'
p1609
aS'gaelvaroquaux'
p1610
aS'lesteve'
p1611
atRp1612
aatRp1613
ag2
((lp1614
(lp1615
g5
aI57
aa(lp1616
g7
ag8
(S'\x07\xdf\x06\x08\x00\x00\x00\x00\x00\x00'
tRp1617
aa(lp1618
g11
ag8
(S'\x07\xdf\x06\x12\x00\x00\x00\x00\x00\x00'
tRp1619
aa(lp1620
g14
aI11
aa(lp1621
g16
aI192
aa(lp1622
g18
aI26
aa(lp1623
g20
aI3
aa(lp1624
g22
aI14
aa(lp1625
g24
aI11
aa(lp1626
g26
aI7
aa(lp1627
g28
aF77.839801587301594
aa(lp1628
g30
aF1.1666666666666667
aa(lp1629
g32
aF2.3333333333333335
aa(lp1630
g34
aF19.199999999999999
aa(lp1631
g36
aI6
aa(lp1632
g38
aI10
aa(lp1633
g40
aI10
aa(lp1634
g42
aF0.8141025641025641
aa(lp1635
g44
aF676.5
aa(lp1636
g46
aF0.53333333333333333
aa(lp1637
g49
aF0.80000000000000004
aa(lp1638
g51
ag80
((lp1639
S'gaelvaroquaux'
p1640
aS'lesteve'
p1641
aS'alexandreabraham'
p1642
aS'mrahim'
p1643
aS'kamalakerdadi'
p1644
aS'banilo'
p1645
atRp1646
aatRp1647
ag2
((lp1648
(lp1649
g5
aI58
aa(lp1650
g7
ag8
(S'\x07\xdf\x06\x16\x00\x00\x00\x00\x00\x00'
tRp1651
aa(lp1652
g11
ag8
(S'\x07\xdf\x07\x1f\x00\x00\x00\x00\x00\x00'
tRp1653
aa(lp1654
g14
aI40
aa(lp1655
g16
aI2333
aa(lp1656
g18
aI146
aa(lp1657
g20
aI8
aa(lp1658
g22
aI139
aa(lp1659
g24
aI115
aa(lp1660
g26
aI122
aa(lp1661
g28
aF155.76261612021847
aa(lp1662
g30
aF8.7142857142857135
aa(lp1663
g32
aF9.9285714285714288
aa(lp1664
g34
aF106.04545454545455
aa(lp1665
g36
aI14
aa(lp1666
g38
aI21
aa(lp1667
g40
aI22
aa(lp1668
g42
aF0.36399217221135027
aa(lp1669
g44
aF437.07142857142856
aa(lp1670
g46
aF0.5
aa(lp1671
g49
aF0.63636363636363635
aa(lp1672
g51
ag80
((lp1673
S'chrisfilo'
p1674
aS'mih'
p1675
aS'gaelvaroquaux'
p1676
aS'martinperez'
p1677
aS'lesteve'
p1678
aS'arthurmensch'
p1679
aS'ahoyosid'
p1680
aS'alexandreabraham'
p1681
aS'juhuntenburg'
p1682
aS'kamalakerdadi'
p1683
aS'amadeus.kanan@gmail.com'
p1684
aS'dohmatob'
p1685
aS'sb238920@is223297.intra.cea.fr'
p1686
aS'banilo'
p1687
atRp1688
aatRp1689
ag2
((lp1690
(lp1691
g5
aI59
aa(lp1692
g7
ag8
(S'\x07\xdf\x08\x04\x00\x00\x00\x00\x00\x00'
tRp1693
aa(lp1694
g11
ag8
(S'\x07\xdf\x08\x06\x00\x00\x00\x00\x00\x00'
tRp1695
aa(lp1696
g14
aI3
aa(lp1697
g16
aI70
aa(lp1698
g18
aI19
aa(lp1699
g20
aI3
aa(lp1700
g22
aI8
aa(lp1701
g24
aI6
aa(lp1702
g26
aI5
aa(lp1703
g28
aF5.0346111111111105
aa(lp1704
g30
aF1
aa(lp1705
g32
aF1.6000000000000001
aa(lp1706
g34
aF14
aa(lp1707
g36
aI5
aa(lp1708
g38
aI4
aa(lp1709
g40
aI5
aa(lp1710
g42
aF0.89473684210526316
aa(lp1711
g44
aF684.79999999999995
aa(lp1712
g46
aF0.16666666666666666
aa(lp1713
g49
aF0.83333333333333337
aa(lp1714
g51
ag80
((lp1715
S'alexandreabraham'
p1716
aS'gaelvaroquaux'
p1717
aS'lesteve'
p1718
aS'kamalakerdadi'
p1719
aS'amadeus.kanan@gmail.com'
p1720
atRp1721
aatRp1722
ag2
((lp1723
(lp1724
g5
aI60
aa(lp1725
g7
ag8
(S'\x07\xdf\x08\x0b\x00\x00\x00\x00\x00\x00'
tRp1726
aa(lp1727
g11
ag8
(S'\x07\xdf\x08\x0b\x00\x00\x00\x00\x00\x00'
tRp1728
aa(lp1729
g14
aI1
aa(lp1730
g16
aI7
aa(lp1731
g18
aI1
aa(lp1732
g20
aI1
aa(lp1733
g22
aI1
aa(lp1734
g24
aI1
aa(lp1735
g26
aI1
aa(lp1736
g28
aF5.5072222222222225
aa(lp1737
g30
aF0.5
aa(lp1738
g32
aF0.5
aa(lp1739
g34
aF3.5
aa(lp1740
g36
aI2
aa(lp1741
g38
aI1
aa(lp1742
g40
aI2
aa(lp1743
g42
aF0
aa(lp1744
g44
aF619
aa(lp1745
g46
aF0
aa(lp1746
g49
aF0
aa(lp1747
g51
ag80
((lp1748
S'alexandreabraham'
p1749
aS'martinperez'
p1750
atRp1751
aatRp1752
ag2
((lp1753
(lp1754
g5
aI61
aa(lp1755
g7
ag8
(S'\x07\xdf\x08\x11\x00\x00\x00\x00\x00\x00'
tRp1756
aa(lp1757
g11
ag8
(S'\x07\xdf\x08\x1b\x00\x00\x00\x00\x00\x00'
tRp1758
aa(lp1759
g14
aI11
aa(lp1760
g16
aI194
aa(lp1761
g18
aI29
aa(lp1762
g20
aI3
aa(lp1763
g22
aI19
aa(lp1764
g24
aI9
aa(lp1765
g26
aI15
aa(lp1766
g28
aF63.781907407407402
aa(lp1767
g30
aF3.75
aa(lp1768
g32
aF4.75
aa(lp1769
g34
aF19.399999999999999
aa(lp1770
g36
aI4
aa(lp1771
g38
aI10
aa(lp1772
g40
aI10
aa(lp1773
g42
aF1.2413793103448276
aa(lp1774
g44
aF438
aa(lp1775
g46
aF0.66666666666666663
aa(lp1776
g49
aF0.83333333333333337
aa(lp1777
g51
ag80
((lp1778
S'alexandreabraham'
p1779
aS'martinperez'
p1780
aS'lesteve'
p1781
aS'arthurmensch'
p1782
atRp1783
aatRp1784
ag2
((lp1785
(lp1786
g5
aI62
aa(lp1787
g7
ag8
(S'\x07\xdf\t\x03\x00\x00\x00\x00\x00\x00'
tRp1788
aa(lp1789
g11
ag8
(S'\x07\xdf\t\x04\x00\x00\x00\x00\x00\x00'
tRp1790
aa(lp1791
g14
aI2
aa(lp1792
g16
aI9
aa(lp1793
g18
aI125
aa(lp1794
g20
aI5
aa(lp1795
g22
aI2
aa(lp1796
g24
aI2
aa(lp1797
g26
aI0
aa(lp1798
g28
aF0
aa(lp1799
g30
aF0
aa(lp1800
g32
aF0.66666666666666663
aa(lp1801
g34
aF1.5
aa(lp1802
g36
aI3
aa(lp1803
g38
aI5
aa(lp1804
g40
aI6
aa(lp1805
g42
aF0
aa(lp1806
g44
aF765
aa(lp1807
g46
aF1
aa(lp1808
g49
aF0.33333333333333331
aa(lp1809
g51
ag80
((lp1810
S'gaelvaroquaux'
p1811
aS'sb238920@is223297.intra.cea.fr'
p1812
aS'arthurmensch'
p1813
atRp1814
aatRp1815
ag2
((lp1816
(lp1817
g5
aI63
aa(lp1818
g7
ag8
(S'\x07\xdf\t\x08\x00\x00\x00\x00\x00\x00'
tRp1819
aa(lp1820
g11
ag8
(S'\x07\xdf\t\x0b\x00\x00\x00\x00\x00\x00'
tRp1821
aa(lp1822
g14
aI4
aa(lp1823
g16
aI23
aa(lp1824
g18
aI13
aa(lp1825
g20
aI3
aa(lp1826
g22
aI4
aa(lp1827
g24
aI4
aa(lp1828
g26
aI1
aa(lp1829
g28
aF22.785555555555554
aa(lp1830
g30
aF0.25
aa(lp1831
g32
aF1
aa(lp1832
g34
aF3.2857142857142856
aa(lp1833
g36
aI4
aa(lp1834
g38
aI5
aa(lp1835
g40
aI7
aa(lp1836
g42
aF0.019230769230769232
aa(lp1837
g44
aF581
aa(lp1838
g46
aF0.5
aa(lp1839
g49
aF0
aa(lp1840
g51
ag80
((lp1841
S'alexandreabraham'
p1842
aS'dohmatob'
p1843
aS'kamalakerdadi'
p1844
aS'arthurmensch'
p1845
atRp1846
aatRp1847
ag2
((lp1848
(lp1849
g5
aI65
aa(lp1850
g7
ag8
(S'\x07\xdf\t\x15\x00\x00\x00\x00\x00\x00'
tRp1851
aa(lp1852
g11
ag8
(S'\x07\xdf\t\x16\x00\x00\x00\x00\x00\x00'
tRp1853
aa(lp1854
g14
aI2
aa(lp1855
g16
aI13
aa(lp1856
g18
aI6
aa(lp1857
g20
aI2
aa(lp1858
g22
aI3
aa(lp1859
g24
aI1
aa(lp1860
g26
aI3
aa(lp1861
g28
aF29.34805555555555
aa(lp1862
g30
aF1.5
aa(lp1863
g32
aF1.5
aa(lp1864
g34
aF2.6000000000000001
aa(lp1865
g36
aI2
aa(lp1866
g38
aI4
aa(lp1867
g40
aI5
aa(lp1868
g42
aF0.25
aa(lp1869
g44
aF482.5
aa(lp1870
g46
aF0
aa(lp1871
g49
aF0
aa(lp1872
g51
ag80
((lp1873
S'sb238920@is223297.intra.cea.fr'
p1874
aS'lesteve'
p1875
atRp1876
aatRp1877
ag2
((lp1878
(lp1879
g5
aI66
aa(lp1880
g7
ag8
(S'\x07\xdf\t\x1d\x00\x00\x00\x00\x00\x00'
tRp1881
aa(lp1882
g11
ag8
(S'\x07\xdf\t\x1d\x00\x00\x00\x00\x00\x00'
tRp1883
aa(lp1884
g14
aI1
aa(lp1885
g16
aI4
aa(lp1886
g18
aI2
aa(lp1887
g20
aI1
aa(lp1888
g22
aI1
aa(lp1889
g24
aI1
aa(lp1890
g26
aI0
aa(lp1891
g28
aF0
aa(lp1892
g30
aF0
aa(lp1893
g32
aF1
aa(lp1894
g34
aF0.66666666666666663
aa(lp1895
g36
aI1
aa(lp1896
g38
aI6
aa(lp1897
g40
aI6
aa(lp1898
g42
aF0
aa(lp1899
g44
aF194
aa(lp1900
g46
ag47
aa(lp1901
g49
ag47
aa(lp1902
g51
a(lp1903
S'kamalakerdadi'
p1904
aaatRp1905
ag2
((lp1906
(lp1907
g5
aI67
aa(lp1908
g7
ag8
(S'\x07\xdf\n\x05\x00\x00\x00\x00\x00\x00'
tRp1909
aa(lp1910
g11
ag8
(S'\x07\xdf\n\x07\x00\x00\x00\x00\x00\x00'
tRp1911
aa(lp1912
g14
aI3
aa(lp1913
g16
aI20
aa(lp1914
g18
aI4
aa(lp1915
g20
aI2
aa(lp1916
g22
aI4
aa(lp1917
g24
aI1
aa(lp1918
g26
aI4
aa(lp1919
g28
aF29.449374999999996
aa(lp1920
g30
aF1
aa(lp1921
g32
aF1
aa(lp1922
g34
aF2.2222222222222223
aa(lp1923
g36
aI4
aa(lp1924
g38
aI8
aa(lp1925
g40
aI9
aa(lp1926
g42
aF0.125
aa(lp1927
g44
aF693.5
aa(lp1928
g46
aF0.33333333333333331
aa(lp1929
g49
aF0.33333333333333331
aa(lp1930
g51
ag80
((lp1931
S'gaelvaroquaux'
p1932
aS'sb238920@is223297.intra.cea.fr'
p1933
aS'dimitripapadopoulos'
p1934
aS'kamalakerdadi'
p1935
atRp1936
aatRp1937
ag2
((lp1938
(lp1939
g5
aI68
aa(lp1940
g7
ag8
(S'\x07\xdf\n\r\x00\x00\x00\x00\x00\x00'
tRp1941
aa(lp1942
g11
ag8
(S'\x07\xdf\n\x17\x00\x00\x00\x00\x00\x00'
tRp1943
aa(lp1944
g14
aI11
aa(lp1945
g16
aI222
aa(lp1946
g18
aI34
aa(lp1947
g20
aI5
aa(lp1948
g22
aI20
aa(lp1949
g24
aI15
aa(lp1950
g26
aI11
aa(lp1951
g28
aF98.213282828282843
aa(lp1952
g30
aF1.375
aa(lp1953
g32
aF2.5
aa(lp1954
g34
aF14.800000000000001
aa(lp1955
g36
aI8
aa(lp1956
g38
aI15
aa(lp1957
g40
aI15
aa(lp1958
g42
aF0.25367647058823528
aa(lp1959
g44
aF636.14285714285711
aa(lp1960
g46
aF0.6785714285714286
aa(lp1961
g49
aF0.6785714285714286
aa(lp1962
g51
ag80
((lp1963
S'aabadie'
p1964
aS'lesteve'
p1965
aS'gaelvaroquaux'
p1966
aS'alexandreabraham'
p1967
aS'titan-c'
p1968
aS'mrahim'
p1969
aS'kamalakerdadi'
p1970
aS'alexandre.abadie@therapixel.com'
p1971
atRp1972
aatRp1973
ag2
((lp1974
(lp1975
g5
aI69
aa(lp1976
g7
ag8
(S'\x07\xdf\n\x1b\x00\x00\x00\x00\x00\x00'
tRp1977
aa(lp1978
g11
ag8
(S'\x07\xdf\x0c\x14\x00\x00\x00\x00\x00\x00'
tRp1979
aa(lp1980
g14
aI55
aa(lp1981
g16
aI2023
aa(lp1982
g18
aI170
aa(lp1983
g20
aI10
aa(lp1984
g22
aI123
aa(lp1985
g24
aI102
aa(lp1986
g26
aI95
aa(lp1987
g28
aF195.82007017543856
aa(lp1988
g30
aF5.5882352941176467
aa(lp1989
g32
aF7.2352941176470589
aa(lp1990
g34
aF80.920000000000002
aa(lp1991
g36
aI17
aa(lp1992
g38
aI24
aa(lp1993
g40
aI25
aa(lp1994
g42
aF0.28961937716262975
aa(lp1995
g44
aF571.13333333333333
aa(lp1996
g46
aF0.56617647058823528
aa(lp1997
g49
aF0.48529411764705882
aa(lp1998
g51
ag80
((lp1999
S'ahoyosid'
p2000
aS'arokem'
p2001
aS'lesteve'
p2002
aS'ainafp'
p2003
aS'bcipolli@ucsd.edu'
p2004
aS'gaelvaroquaux'
p2005
aS'alexandreabraham'
p2006
aS'titan-c'
p2007
aS'bthirion'
p2008
aS'mrahim'
p2009
aS'arthurmensch'
p2010
aS'sb238920@is223297.intra.cea.fr'
p2011
aS'aabadie'
p2012
aS'dohmatob'
p2013
aS'kamalakerdadi'
p2014
aS'alexandre.abadie@therapixel.com'
p2015
aS'banilo'
p2016
atRp2017
aatRp2018
ag2
((lp2019
(lp2020
g5
aI70
aa(lp2021
g7
ag8
(S'\x07\xe0\x01\x04\x00\x00\x00\x00\x00\x00'
tRp2022
aa(lp2023
g11
ag8
(S'\x07\xe0\x01\x15\x00\x00\x00\x00\x00\x00'
tRp2024
aa(lp2025
g14
aI18
aa(lp2026
g16
aI327
aa(lp2027
g18
aI165
aa(lp2028
g20
aI8
aa(lp2029
g22
aI39
aa(lp2030
g24
aI25
aa(lp2031
g26
aI27
aa(lp2032
g28
aF133.22435185185188
aa(lp2033
g30
aF3
aa(lp2034
g32
aF4.333333333333333
aa(lp2035
g34
aF25.153846153846153
aa(lp2036
g36
aI9
aa(lp2037
g38
aI13
aa(lp2038
g40
aI13
aa(lp2039
g42
aF0.35488215488215491
aa(lp2040
g44
aF751.125
aa(lp2041
g46
aF0.55555555555555558
aa(lp2042
g49
aF0.69444444444444442
aa(lp2043
g51
ag80
((lp2044
S'aabadie'
p2045
aS'salma1601'
p2046
aS'lesteve'
p2047
aS'bcipolli@ucsd.edu'
p2048
aS'gaelvaroquaux'
p2049
aS'alexandreabraham'
p2050
aS'mrahim'
p2051
aS'kamalakerdadi'
p2052
aS'banilo'
p2053
atRp2054
aatRp2055
ag2
((lp2056
(lp2057
g5
aI71
aa(lp2058
g7
ag8
(S'\x07\xe0\x01\x1a\x00\x00\x00\x00\x00\x00'
tRp2059
aa(lp2060
g11
ag8
(S'\x07\xe0\x01\x1c\x00\x00\x00\x00\x00\x00'
tRp2061
aa(lp2062
g14
aI3
aa(lp2063
g16
aI32
aa(lp2064
g18
aI8
aa(lp2065
g20
aI2
aa(lp2066
g22
aI3
aa(lp2067
g24
aI3
aa(lp2068
g26
aI3
aa(lp2069
g28
aF17.726018518518519
aa(lp2070
g30
aF0.59999999999999998
aa(lp2071
g32
aF0.59999999999999998
aa(lp2072
g34
aF4.5714285714285712
aa(lp2073
g36
aI5
aa(lp2074
g38
aI7
aa(lp2075
g40
aI7
aa(lp2076
g42
aF0.69999999999999996
aa(lp2077
g44
aF969.60000000000002
aa(lp2078
g46
aF0.5
aa(lp2079
g49
aF0.40000000000000002
aa(lp2080
g51
ag80
((lp2081
S'alexandreabraham'
p2082
aS'dohmatob'
p2083
aS'gaelvaroquaux'
p2084
aS'aabadie'
p2085
aS'lesteve'
p2086
atRp2087
aatRp2088
ag2
((lp2089
(lp2090
g5
aI72
aa(lp2091
g7
ag8
(S'\x07\xe0\x02\x01\x00\x00\x00\x00\x00\x00'
tRp2092
aa(lp2093
g11
ag8
(S'\x07\xe0\x03\x03\x00\x00\x00\x00\x00\x00'
tRp2094
aa(lp2095
g14
aI32
aa(lp2096
g16
aI1236
aa(lp2097
g18
aI63
aa(lp2098
g20
aI5
aa(lp2099
g22
aI90
aa(lp2100
g24
aI63
aa(lp2101
g26
aI79
aa(lp2102
g28
aF121.01248593530239
aa(lp2103
g30
aF4.9375
aa(lp2104
g32
aF5.625
aa(lp2105
g34
aF58.857142857142854
aa(lp2106
g36
aI16
aa(lp2107
g38
aI21
aa(lp2108
g40
aI21
aa(lp2109
g42
aF0.26884920634920634
aa(lp2110
g44
aF586.92857142857144
aa(lp2111
g46
aF0.59340659340659341
aa(lp2112
g49
aF0.5494505494505495
aa(lp2113
g51
ag80
((lp2114
S'shd339@gmail.com'
p2115
aS'aabadie'
p2116
aS'salma1601'
p2117
aS'martinperez'
p2118
aS'lesteve'
p2119
aS'gaelvaroquaux'
p2120
aS'abraham@drago.saclay.inria.fr'
p2121
aS'alexandreabraham'
p2122
aS'titan-c'
p2123
aS'juhuntenburg'
p2124
aS'franz.liem'
p2125
aS'arthurmensch'
p2126
aS'mjboos'
p2127
aS'dohmatob'
p2128
aS'kamalakerdadi'
p2129
aS'banilo'
p2130
atRp2131
aatRp2132
ag2
((lp2133
(lp2134
g5
aI73
aa(lp2135
g7
ag8
(S'\x07\xe0\x03\t\x00\x00\x00\x00\x00\x00'
tRp2136
aa(lp2137
g11
ag8
(S'\x07\xe0\x03\n\x00\x00\x00\x00\x00\x00'
tRp2138
aa(lp2139
g14
aI2
aa(lp2140
g16
aI34
aa(lp2141
g18
aI5
aa(lp2142
g20
aI2
aa(lp2143
g22
aI4
aa(lp2144
g24
aI2
aa(lp2145
g26
aI2
aa(lp2146
g28
aF32.529722222222219
aa(lp2147
g30
aF0.5
aa(lp2148
g32
aF1
aa(lp2149
g34
aF3.7777777777777777
aa(lp2150
g36
aI4
aa(lp2151
g38
aI8
aa(lp2152
g40
aI9
aa(lp2153
g42
aF1.55
aa(lp2154
g44
aF603.5
aa(lp2155
g46
aF0.66666666666666663
aa(lp2156
g49
aF0.33333333333333331
aa(lp2157
g51
ag80
((lp2158
S'alexandreabraham'
p2159
aS'aabadie'
p2160
aS'martinperez'
p2161
aS'lesteve'
p2162
atRp2163
aatRp2164
ag2
((lp2165
(lp2166
g5
aI74
aa(lp2167
g7
ag8
(S'\x07\xe0\x03\x10\x00\x00\x00\x00\x00\x00'
tRp2168
aa(lp2169
g11
ag8
(S'\x07\xe0\x03\x17\x00\x00\x00\x00\x00\x00'
tRp2170
aa(lp2171
g14
aI8
aa(lp2172
g16
aI94
aa(lp2173
g18
aI12
aa(lp2174
g20
aI3
aa(lp2175
g22
aI9
aa(lp2176
g24
aI7
aa(lp2177
g26
aI4
aa(lp2178
g28
aF61.474583333333342
aa(lp2179
g30
aF1
aa(lp2180
g32
aF2.25
aa(lp2181
g34
aF10.444444444444445
aa(lp2182
g36
aI4
aa(lp2183
g38
aI8
aa(lp2184
g40
aI9
aa(lp2185
g42
aF0.10416666666666667
aa(lp2186
g44
aF579.5
aa(lp2187
g46
aF0.66666666666666663
aa(lp2188
g49
aF0.5
aa(lp2189
g51
ag80
((lp2190
S'naereen'
p2191
aS'aabadie'
p2192
aS'martinperez'
p2193
aS'gaelvaroquaux'
p2194
atRp2195
aatRp2196
ag2
((lp2197
(lp2198
g5
aI75
aa(lp2199
g7
ag8
(S'\x07\xe0\x03\x1d\x00\x00\x00\x00\x00\x00'
tRp2200
aa(lp2201
g11
ag8
(S'\x07\xe0\x03\x1f\x00\x00\x00\x00\x00\x00'
tRp2202
aa(lp2203
g14
aI3
aa(lp2204
g16
aI22
aa(lp2205
g18
aI2
aa(lp2206
g20
aI2
aa(lp2207
g22
aI3
aa(lp2208
g24
aI3
aa(lp2209
g26
aI2
aa(lp2210
g28
aF17.75236111111111
aa(lp2211
g30
aF0.66666666666666663
aa(lp2212
g32
aF1
aa(lp2213
g34
aF3.6666666666666665
aa(lp2214
g36
aI3
aa(lp2215
g38
aI6
aa(lp2216
g40
aI6
aa(lp2217
g42
aF0
aa(lp2218
g44
aF946.66666666666663
aa(lp2219
g46
aF0
aa(lp2220
g49
aF0.66666666666666663
aa(lp2221
g51
ag80
((lp2222
S'alexandreabraham'
p2223
aS'dohmatob'
p2224
aS'kamalakerdadi'
p2225
atRp2226
aatRp2227
ag2
((lp2228
(lp2229
g5
aI76
aa(lp2230
g7
ag8
(S'\x07\xe0\x04\x07\x00\x00\x00\x00\x00\x00'
tRp2231
aa(lp2232
g11
ag8
(S'\x07\xe0\x04\x07\x00\x00\x00\x00\x00\x00'
tRp2233
aa(lp2234
g14
aI1
aa(lp2235
g16
aI14
aa(lp2236
g18
aI4
aa(lp2237
g20
aI2
aa(lp2238
g22
aI2
aa(lp2239
g24
aI2
aa(lp2240
g26
aI1
aa(lp2241
g28
aF2.1030555555555557
aa(lp2242
g30
aF1
aa(lp2243
g32
aF2
aa(lp2244
g34
aF2.3333333333333335
aa(lp2245
g36
aI1
aa(lp2246
g38
aI6
aa(lp2247
g40
aI6
aa(lp2248
g42
aF0
aa(lp2249
g44
aF1914
aa(lp2250
g46
ag47
aa(lp2251
g49
ag47
aa(lp2252
g51
a(lp2253
S'gaelvaroquaux'
p2254
aaatRp2255
ag2
((lp2256
(lp2257
g5
aI77
aa(lp2258
g7
ag8
(S'\x07\xe0\x04\x0c\x00\x00\x00\x00\x00\x00'
tRp2259
aa(lp2260
g11
ag8
(S'\x07\xe0\x04\x13\x00\x00\x00\x00\x00\x00'
tRp2261
aa(lp2262
g14
aI8
aa(lp2263
g16
aI63
aa(lp2264
g18
aI16
aa(lp2265
g20
aI2
aa(lp2266
g22
aI11
aa(lp2267
g24
aI11
aa(lp2268
g26
aI5
aa(lp2269
g28
aF16.847666666666669
aa(lp2270
g30
aF0.83333333333333337
aa(lp2271
g32
aF1.8333333333333333
aa(lp2272
g34
aF4.8461538461538458
aa(lp2273
g36
aI6
aa(lp2274
g38
aI11
aa(lp2275
g40
aI13
aa(lp2276
g42
aF0.041666666666666664
aa(lp2277
g44
aF587
aa(lp2278
g46
aF0.69999999999999996
aa(lp2279
g49
aF0.40000000000000002
aa(lp2280
g51
ag80
((lp2281
S'ahoyosid'
p2282
aS'gaelvaroquaux'
p2283
aS'franz.liem'
p2284
aS'kamalakerdadi'
p2285
aS'aabadie'
p2286
aS'alexsavio'
p2287
atRp2288
aatRp2289
ag2
((lp2290
(lp2291
g5
aI78
aa(lp2292
g7
ag8
(S'\x07\xe0\x04\x19\x00\x00\x00\x00\x00\x00'
tRp2293
aa(lp2294
g11
ag8
(S'\x07\xe0\x04\x1b\x00\x00\x00\x00\x00\x00'
tRp2295
aa(lp2296
g14
aI3
aa(lp2297
g16
aI24
aa(lp2298
g18
aI7
aa(lp2299
g20
aI2
aa(lp2300
g22
aI1
aa(lp2301
g24
aI0
aa(lp2302
g26
aI1
aa(lp2303
g28
aF34.984444444444442
aa(lp2304
g30
aF0.25
aa(lp2305
g32
aF0.25
aa(lp2306
g34
aF4
aa(lp2307
g36
aI4
aa(lp2308
g38
aI4
aa(lp2309
g40
aI6
aa(lp2310
g42
aF0.75
aa(lp2311
g44
aF703.5
aa(lp2312
g46
aF0.5
aa(lp2313
g49
aF0.16666666666666666
aa(lp2314
g51
ag80
((lp2315
S'alexandreabraham'
p2316
aS'martinperez'
p2317
aS'lesteve'
p2318
aS'kamalakerdadi'
p2319
atRp2320
aatRp2321
ag2
((lp2322
(lp2323
g5
aI79
aa(lp2324
g7
ag8
(S'\x07\xe0\x05\t\x00\x00\x00\x00\x00\x00'
tRp2325
aa(lp2326
g11
ag8
(S'\x07\xe0\x05\t\x00\x00\x00\x00\x00\x00'
tRp2327
aa(lp2328
g14
aI1
aa(lp2329
g16
aI2
aa(lp2330
g18
aI1
aa(lp2331
g20
aI1
aa(lp2332
g22
aI1
aa(lp2333
g24
aI1
aa(lp2334
g26
aI0
aa(lp2335
g28
aF0
aa(lp2336
g30
aF0
aa(lp2337
g32
aF1
aa(lp2338
g34
aF0.66666666666666663
aa(lp2339
g36
aI1
aa(lp2340
g38
aI3
aa(lp2341
g40
aI3
aa(lp2342
g42
aF0
aa(lp2343
g44
aF417
aa(lp2344
g46
ag47
aa(lp2345
g49
ag47
aa(lp2346
g51
a(lp2347
S'kamalakerdadi'
p2348
aaatRp2349
ag2
((lp2350
(lp2351
g5
aI80
aa(lp2352
g7
ag8
(S'\x07\xe0\x05\x13\x00\x00\x00\x00\x00\x00'
tRp2353
aa(lp2354
g11
ag8
(S'\x07\xe0\x05\x1b\x00\x00\x00\x00\x00\x00'
tRp2355
aa(lp2356
g14
aI9
aa(lp2357
g16
aI98
aa(lp2358
g18
aI34
aa(lp2359
g20
aI2
aa(lp2360
g22
aI12
aa(lp2361
g24
aI6
aa(lp2362
g26
aI8
aa(lp2363
g28
aF68.656423611111109
aa(lp2364
g30
aF1.3333333333333333
aa(lp2365
g32
aF2
aa(lp2366
g34
aF8.1666666666666661
aa(lp2367
g36
aI6
aa(lp2368
g38
aI10
aa(lp2369
g40
aI12
aa(lp2370
g42
aF0.073529411764705885
aa(lp2371
g44
aF946.83333333333337
aa(lp2372
g46
aF0.59999999999999998
aa(lp2373
g49
aF0.40000000000000002
aa(lp2374
g51
ag80
((lp2375
S'gaelvaroquaux'
p2376
aS'bthirion'
p2377
aS'martinperez'
p2378
aS'kamalakerdadi'
p2379
aS'alexandreabraham'
p2380
aS'arthurmensch'
p2381
atRp2382
aatRp2383
ag2
((lp2384
(lp2385
g5
aI81
aa(lp2386
g7
ag8
(S'\x07\xe0\x06\x07\x00\x00\x00\x00\x00\x00'
tRp2387
aa(lp2388
g11
ag8
(S'\x07\xe0\x06\x10\x00\x00\x00\x00\x00\x00'
tRp2389
aa(lp2390
g14
aI10
aa(lp2391
g16
aI403
aa(lp2392
g18
aI75
aa(lp2393
g20
aI4
aa(lp2394
g22
aI45
aa(lp2395
g24
aI21
aa(lp2396
g26
aI39
aa(lp2397
g28
aF46.998888888888885
aa(lp2398
g30
aF6.5
aa(lp2399
g32
aF7.5
aa(lp2400
g34
aF21.210526315789473
aa(lp2401
g36
aI6
aa(lp2402
g38
aI18
aa(lp2403
g40
aI19
aa(lp2404
g42
aF0.58444444444444443
aa(lp2405
g44
aF873.83333333333337
aa(lp2406
g46
aF0.40000000000000002
aa(lp2407
g49
aF0.66666666666666663
aa(lp2408
g51
ag80
((lp2409
S'ahoyosid'
p2410
aS'lesteve'
p2411
aS'gaelvaroquaux'
p2412
aS'aabadie'
p2413
aS'alexandreabraham'
p2414
aS'kamalakerdadi'
p2415
atRp2416
aatRp2417
ag2
((lp2418
(lp2419
g5
aI82
aa(lp2420
g7
ag8
(S'\x07\xe0\x06\x14\x00\x00\x00\x00\x00\x00'
tRp2421
aa(lp2422
g11
ag8
(S'\x07\xe0\x06\x18\x00\x00\x00\x00\x00\x00'
tRp2423
aa(lp2424
g14
aI5
aa(lp2425
g16
aI61
aa(lp2426
g18
aI21
aa(lp2427
g20
aI4
aa(lp2428
g22
aI11
aa(lp2429
g24
aI10
aa(lp2430
g26
aI3
aa(lp2431
g28
aF38.925555555555555
aa(lp2432
g30
aF0.42857142857142855
aa(lp2433
g32
aF1.5714285714285714
aa(lp2434
g34
aF4.3571428571428568
aa(lp2435
g36
aI7
aa(lp2436
g38
aI13
aa(lp2437
g40
aI14
aa(lp2438
g42
aF0.42857142857142855
aa(lp2439
g44
aF1009.5
aa(lp2440
g46
aF0.59999999999999998
aa(lp2441
g49
aF0.40000000000000002
aa(lp2442
g51
ag80
((lp2443
S'shd339@gmail.com'
p2444
aS'gaelvaroquaux'
p2445
aS'martinperez'
p2446
aS'ahoyosid'
p2447
aS'alexandreabraham'
p2448
aS'dohmatob'
p2449
aS'alexsavio'
p2450
atRp2451
aatRp2452
ag2
((lp2453
(lp2454
g5
aI83
aa(lp2455
g7
ag8
(S'\x07\xe0\x06\x1c\x00\x00\x00\x00\x00\x00'
tRp2456
aa(lp2457
g11
ag8
(S'\x07\xe0\x07\x15\x00\x00\x00\x00\x00\x00'
tRp2458
aa(lp2459
g14
aI24
aa(lp2460
g16
aI236
aa(lp2461
g18
aI49
aa(lp2462
g20
aI5
aa(lp2463
g22
aI36
aa(lp2464
g24
aI19
aa(lp2465
g26
aI32
aa(lp2466
g28
aF242.77781250000001
aa(lp2467
g30
aF2.9090909090909092
aa(lp2468
g32
aF3.2727272727272729
aa(lp2469
g34
aF12.421052631578947
aa(lp2470
g36
aI11
aa(lp2471
g38
aI18
aa(lp2472
g40
aI19
aa(lp2473
g42
aF0.50463821892393323
aa(lp2474
g44
aF793.5
aa(lp2475
g46
aF0.61818181818181817
aa(lp2476
g49
aF0.43636363636363634
aa(lp2477
g51
ag80
((lp2478
S'gaelvaroquaux'
p2479
aS'salma1601'
p2480
aS'martinperez'
p2481
aS'lesteve'
p2482
aS'miykael'
p2483
aS'ahoyosid'
p2484
aS'alexandreabraham'
p2485
aS'juhuntenburg'
p2486
aS'kamalakerdadi'
p2487
aS'dohmatob'
p2488
aS'joaoloula'
p2489
atRp2490
aatRp2491
ag2
((lp2492
(lp2493
g5
aI84
aa(lp2494
g7
ag8
(S'\x07\xe0\x07\x1b\x00\x00\x00\x00\x00\x00'
tRp2495
aa(lp2496
g11
ag8
(S'\x07\xe0\x07\x1c\x00\x00\x00\x00\x00\x00'
tRp2497
aa(lp2498
g14
aI2
aa(lp2499
g16
aI6
aa(lp2500
g18
aI100
aa(lp2501
g20
aI4
aa(lp2502
g22
aI1
aa(lp2503
g24
aI0
aa(lp2504
g26
aI1
aa(lp2505
g28
aF9.3208333333333329
aa(lp2506
g30
aF0.5
aa(lp2507
g32
aF0.5
aa(lp2508
g34
aF1.5
aa(lp2509
g36
aI2
aa(lp2510
g38
aI3
aa(lp2511
g40
aI4
aa(lp2512
g42
aF0
aa(lp2513
g44
aF837
aa(lp2514
g46
aF0
aa(lp2515
g49
aF0
aa(lp2516
g51
ag80
((lp2517
S'alexandreabraham'
p2518
aS'jeromedockes'
p2519
atRp2520
aatRp2521
ag2
((lp2522
(lp2523
g5
aI85
aa(lp2524
g7
ag8
(S'\x07\xe0\x08\x02\x00\x00\x00\x00\x00\x00'
tRp2525
aa(lp2526
g11
ag8
(S'\x07\xe0\x08\x13\x00\x00\x00\x00\x00\x00'
tRp2527
aa(lp2528
g14
aI18
aa(lp2529
g16
aI323
aa(lp2530
g18
aI51
aa(lp2531
g20
aI5
aa(lp2532
g22
aI46
aa(lp2533
g24
aI42
aa(lp2534
g26
aI32
aa(lp2535
g28
aF55.91214409722221
aa(lp2536
g30
aF3.5555555555555554
aa(lp2537
g32
aF5.1111111111111107
aa(lp2538
g34
aF23.071428571428573
aa(lp2539
g36
aI9
aa(lp2540
g38
aI14
aa(lp2541
g40
aI14
aa(lp2542
g42
aF0.11764705882352941
aa(lp2543
g44
aF814.33333333333337
aa(lp2544
g46
aF0.52777777777777779
aa(lp2545
g49
aF0.44444444444444442
aa(lp2546
g51
ag80
((lp2547
S'gaelvaroquaux'
p2548
aS'salma1601'
p2549
aS'dillonplunkett'
p2550
aS'ahoyosid'
p2551
aS'alexandreabraham'
p2552
aS'titan-c'
p2553
aS'bthirion'
p2554
aS'kamalakerdadi'
p2555
aS'jeromedockes'
p2556
atRp2557
aatRp2558
ag2
((lp2559
(lp2560
g5
aI86
aa(lp2561
g7
ag8
(S'\x07\xe0\x08\x19\x00\x00\x00\x00\x00\x00'
tRp2562
aa(lp2563
g11
ag8
(S'\x07\xe0\x08\x1a\x00\x00\x00\x00\x00\x00'
tRp2564
aa(lp2565
g14
aI2
aa(lp2566
g16
aI7
aa(lp2567
g18
aI36
aa(lp2568
g20
aI3
aa(lp2569
g22
aI2
aa(lp2570
g24
aI1
aa(lp2571
g26
aI1
aa(lp2572
g28
aF1.6436111111111111
aa(lp2573
g30
aF0.33333333333333331
aa(lp2574
g32
aF0.66666666666666663
aa(lp2575
g34
aF1.3999999999999999
aa(lp2576
g36
aI3
aa(lp2577
g38
aI4
aa(lp2578
g40
aI5
aa(lp2579
g42
aF0.092592592592592587
aa(lp2580
g44
aF995.66666666666663
aa(lp2581
g46
aF0
aa(lp2582
g49
aF0.33333333333333331
aa(lp2583
g51
ag80
((lp2584
S'gaelvaroquaux'
p2585
aS'ahoyosid'
p2586
aS'kamalakerdadi'
p2587
atRp2588
aatRp2589
ag2
((lp2590
(lp2591
g5
aI87
aa(lp2592
g7
ag8
(S'\x07\xe0\x08\x1e\x00\x00\x00\x00\x00\x00'
tRp2593
aa(lp2594
g11
ag8
(S'\x07\xe0\t\x01\x00\x00\x00\x00\x00\x00'
tRp2595
aa(lp2596
g14
aI3
aa(lp2597
g16
aI17
aa(lp2598
g18
aI50
aa(lp2599
g20
aI3
aa(lp2600
g22
aI7
aa(lp2601
g24
aI2
aa(lp2602
g26
aI6
aa(lp2603
g28
aF46.82791666666666
aa(lp2604
g30
aF2
aa(lp2605
g32
aF2.3333333333333335
aa(lp2606
g34
aF2.8333333333333335
aa(lp2607
g36
aI3
aa(lp2608
g38
aI6
aa(lp2609
g40
aI6
aa(lp2610
g42
aF0
aa(lp2611
g44
aF1397
aa(lp2612
g46
aF0
aa(lp2613
g49
aF1
aa(lp2614
g51
ag80
((lp2615
S'alexandreabraham'
p2616
aS'gaelvaroquaux'
p2617
aS'kamalakerdadi'
p2618
atRp2619
aatRp2620
ag2
((lp2621
(lp2622
g5
aI88
aa(lp2623
g7
ag8
(S'\x07\xe0\t\x06\x00\x00\x00\x00\x00\x00'
tRp2624
aa(lp2625
g11
ag8
(S'\x07\xe0\t\x08\x00\x00\x00\x00\x00\x00'
tRp2626
aa(lp2627
g14
aI3
aa(lp2628
g16
aI24
aa(lp2629
g18
aI9
aa(lp2630
g20
aI2
aa(lp2631
g22
aI8
aa(lp2632
g24
aI6
aa(lp2633
g26
aI3
aa(lp2634
g28
aF26.089629629629631
aa(lp2635
g30
aF0.59999999999999998
aa(lp2636
g32
aF1.6000000000000001
aa(lp2637
g34
aF2.6666666666666665
aa(lp2638
g36
aI5
aa(lp2639
g38
aI9
aa(lp2640
g40
aI9
aa(lp2641
g42
aF0.35555555555555557
aa(lp2642
g44
aF838.79999999999995
aa(lp2643
g46
aF0.66666666666666663
aa(lp2644
g49
aF0.66666666666666663
aa(lp2645
g51
ag80
((lp2646
S'alexandreabraham'
p2647
aS'titan-c'
p2648
aS'aabadie'
p2649
aS'salma1601'
p2650
aS'lesteve'
p2651
atRp2652
aatRp2653
ag2
((lp2654
(lp2655
g5
aI89
aa(lp2656
g7
ag8
(S'\x07\xe0\t\x0c\x00\x00\x00\x00\x00\x00'
tRp2657
aa(lp2658
g11
ag8
(S'\x07\xe0\n\x07\x00\x00\x00\x00\x00\x00'
tRp2659
aa(lp2660
g14
aI26
aa(lp2661
g16
aI269
aa(lp2662
g18
aI43
aa(lp2663
g20
aI4
aa(lp2664
g22
aI35
aa(lp2665
g24
aI28
aa(lp2666
g26
aI23
aa(lp2667
g28
aF114.36607487922709
aa(lp2668
g30
aF1.7692307692307692
aa(lp2669
g32
aF2.6923076923076925
aa(lp2670
g34
aF14.157894736842104
aa(lp2671
g36
aI13
aa(lp2672
g38
aI18
aa(lp2673
g40
aI19
aa(lp2674
g42
aF0.051878354203935599
aa(lp2675
g44
aF612.15384615384619
aa(lp2676
g46
aF0.76923076923076927
aa(lp2677
g49
aF0.29487179487179488
aa(lp2678
g51
ag80
((lp2679
S'aabadie'
p2680
aS'salma1601'
p2681
aS'erramuzpe'
p2682
aS'arthurmensch'
p2683
aS'juhuntenburg'
p2684
aS'gaelvaroquaux'
p2685
aS'alexandreabraham'
p2686
aS'jehane'
p2687
aS'kamalakerdadi'
p2688
aS'akinikolaidis'
p2689
aS'alexsavio'
p2690
aS'ahoyosid'
p2691
aS'joaoloula'
p2692
atRp2693
aatRp2694
ag2
((lp2695
(lp2696
g5
aI90
aa(lp2697
g7
ag8
(S'\x07\xe0\n\x11\x00\x00\x00\x00\x00\x00'
tRp2698
aa(lp2699
g11
ag8
(S'\x07\xe0\n\x14\x00\x00\x00\x00\x00\x00'
tRp2700
aa(lp2701
g14
aI4
aa(lp2702
g16
aI6
aa(lp2703
g18
aI8
aa(lp2704
g20
aI1
aa(lp2705
g22
aI4
aa(lp2706
g24
aI2
aa(lp2707
g26
aI2
aa(lp2708
g28
aF93.916666666666671
aa(lp2709
g30
aF0.66666666666666663
aa(lp2710
g32
aF1.3333333333333333
aa(lp2711
g34
aF0.75
aa(lp2712
g36
aI3
aa(lp2713
g38
aI6
aa(lp2714
g40
aI8
aa(lp2715
g42
aF0
aa(lp2716
g44
aF1090.3333333333333
aa(lp2717
g46
aF1
aa(lp2718
g49
aF0
aa(lp2719
g51
ag80
((lp2720
S'gaelvaroquaux'
p2721
aS'eickenberg'
p2722
aS'erramuzpe'
p2723
atRp2724
aatRp2725
ag2
((lp2726
(lp2727
g5
aI91
aa(lp2728
g7
ag8
(S'\x07\xe0\n\x18\x00\x00\x00\x00\x00\x00'
tRp2729
aa(lp2730
g11
ag8
(S'\x07\xe0\n\x1a\x00\x00\x00\x00\x00\x00'
tRp2731
aa(lp2732
g14
aI3
aa(lp2733
g16
aI41
aa(lp2734
g18
aI25
aa(lp2735
g20
aI3
aa(lp2736
g22
aI6
aa(lp2737
g24
aI3
aa(lp2738
g26
aI3
aa(lp2739
g28
aF44.993796296296296
aa(lp2740
g30
aF1
aa(lp2741
g32
aF2
aa(lp2742
g34
aF6.833333333333333
aa(lp2743
g36
aI3
aa(lp2744
g38
aI6
aa(lp2745
g40
aI6
aa(lp2746
g42
aF0
aa(lp2747
g44
aF791
aa(lp2748
g46
aF0.66666666666666663
aa(lp2749
g49
aF0.66666666666666663
aa(lp2750
g51
ag80
((lp2751
S'alexandreabraham'
p2752
aS'kamalakerdadi'
p2753
aS'joaoloula'
p2754
atRp2755
aatRp2756
ag2
((lp2757
(lp2758
g5
aI92
aa(lp2759
g7
ag8
(S'\x07\xe0\n\x1f\x00\x00\x00\x00\x00\x00'
tRp2760
aa(lp2761
g11
ag8
(S'\x07\xe0\x0b\x04\x00\x00\x00\x00\x00\x00'
tRp2762
aa(lp2763
g14
aI5
aa(lp2764
g16
aI46
aa(lp2765
g18
aI9
aa(lp2766
g20
aI2
aa(lp2767
g22
aI10
aa(lp2768
g24
aI3
aa(lp2769
g26
aI10
aa(lp2770
g28
aF36.201611111111106
aa(lp2771
g30
aF2.5
aa(lp2772
g32
aF2.5
aa(lp2773
g34
aF7.666666666666667
aa(lp2774
g36
aI4
aa(lp2775
g38
aI6
aa(lp2776
g40
aI6
aa(lp2777
g42
aF0
aa(lp2778
g44
aF1131.25
aa(lp2779
g46
aF0.5
aa(lp2780
g49
aF0.83333333333333337
aa(lp2781
g51
ag80
((lp2782
S'alexandreabraham'
p2783
aS'gaelvaroquaux'
p2784
aS'kamalakerdadi'
p2785
aS'joaoloula'
p2786
atRp2787
aatRp2788
ag2
((lp2789
(lp2790
g5
aI93
aa(lp2791
g7
ag8
(S'\x07\xe0\x0b\x0e\x00\x00\x00\x00\x00\x00'
tRp2792
aa(lp2793
g11
ag8
(S'\x07\xe0\x0b\x0e\x00\x00\x00\x00\x00\x00'
tRp2794
aa(lp2795
g14
aI1
aa(lp2796
g16
aI4
aa(lp2797
g18
aI78
aa(lp2798
g20
aI5
aa(lp2799
g22
aI2
aa(lp2800
g24
aI1
aa(lp2801
g26
aI1
aa(lp2802
g28
aF10.94
aa(lp2803
g30
aF1
aa(lp2804
g32
aF2
aa(lp2805
g34
aF1
aa(lp2806
g36
aI1
aa(lp2807
g38
aI3
aa(lp2808
g40
aI4
aa(lp2809
g42
aF0
aa(lp2810
g44
aF220
aa(lp2811
g46
ag47
aa(lp2812
g49
ag47
aa(lp2813
g51
a(lp2814
S'jeromedockes'
p2815
aaatRp2816
ag2
((lp2817
(lp2818
g5
aI95
aa(lp2819
g7
ag8
(S'\x07\xe0\x0c\x04\x00\x00\x00\x00\x00\x00'
tRp2820
aa(lp2821
g11
ag8
(S'\x07\xe0\x0c\x0b\x00\x00\x00\x00\x00\x00'
tRp2822
aa(lp2823
g14
aI8
aa(lp2824
g16
aI61
aa(lp2825
g18
aI9
aa(lp2826
g20
aI3
aa(lp2827
g22
aI11
aa(lp2828
g24
aI9
aa(lp2829
g26
aI7
aa(lp2830
g28
aF19.457976190476192
aa(lp2831
g30
aF1.3999999999999999
aa(lp2832
g32
aF2.2000000000000002
aa(lp2833
g34
aF4.3571428571428568
aa(lp2834
g36
aI5
aa(lp2835
g38
aI14
aa(lp2836
g40
aI14
aa(lp2837
g42
aF0.088888888888888892
aa(lp2838
g44
aF898.25
aa(lp2839
g46
aF0.90000000000000002
aa(lp2840
g49
aF0.40000000000000002
aa(lp2841
g51
ag80
((lp2842
S'htygithub'
p2843
aS'ahoyosid'
p2844
aS'gaelvaroquaux'
p2845
aS'xgrg'
p2846
aS'alexsavio'
p2847
atRp2848
aatRp2849
ag2
((lp2850
(lp2851
g5
aI96
aa(lp2852
g7
ag8
(S'\x07\xe0\x0c\x11\x00\x00\x00\x00\x00\x00'
tRp2853
aa(lp2854
g11
ag8
(S'\x07\xe0\x0c\x16\x00\x00\x00\x00\x00\x00'
tRp2855
aa(lp2856
g14
aI6
aa(lp2857
g16
aI95
aa(lp2858
g18
aI18
aa(lp2859
g20
aI3
aa(lp2860
g22
aI6
aa(lp2861
g24
aI4
aa(lp2862
g26
aI4
aa(lp2863
g28
aF37.450555555555553
aa(lp2864
g30
aF2
aa(lp2865
g32
aF3
aa(lp2866
g34
aF13.571428571428571
aa(lp2867
g36
aI2
aa(lp2868
g38
aI7
aa(lp2869
g40
aI7
aa(lp2870
g42
aF0.083333333333333329
aa(lp2871
g44
aF1348.5
aa(lp2872
g46
aF0
aa(lp2873
g49
aF1
aa(lp2874
g51
ag80
((lp2875
S'ahoyosid'
p2876
aS'gaelvaroquaux'
p2877
atRp2878
aatRp2879
ag2
((lp2880
(lp2881
g5
aI98
aa(lp2882
g7
ag8
(S'\x07\xe1\x01\t\x00\x00\x00\x00\x00\x00'
tRp2883
aa(lp2884
g11
ag8
(S'\x07\xe1\x01\r\x00\x00\x00\x00\x00\x00'
tRp2885
aa(lp2886
g14
aI5
aa(lp2887
g16
aI36
aa(lp2888
g18
aI12
aa(lp2889
g20
aI2
aa(lp2890
g22
aI4
aa(lp2891
g24
aI3
aa(lp2892
g26
aI2
aa(lp2893
g28
aF74.284999999999997
aa(lp2894
g30
aF0.5
aa(lp2895
g32
aF1
aa(lp2896
g34
aF7.2000000000000002
aa(lp2897
g36
aI4
aa(lp2898
g38
aI4
aa(lp2899
g40
aI5
aa(lp2900
g42
aF0.16666666666666666
aa(lp2901
g44
aF999.25
aa(lp2902
g46
aF0.66666666666666663
aa(lp2903
g49
aF0.33333333333333331
aa(lp2904
g51
ag80
((lp2905
S'gaelvaroquaux'
p2906
aS'juhuntenburg'
p2907
aS'souravsingh'
p2908
aS'kamalakerdadi'
p2909
atRp2910
aatRp2911
ag2
((lp2912
(lp2913
g5
aI99
aa(lp2914
g7
ag8
(S'\x07\xe1\x01\x13\x00\x00\x00\x00\x00\x00'
tRp2915
aa(lp2916
g11
ag8
(S'\x07\xe1\x01\x1b\x00\x00\x00\x00\x00\x00'
tRp2917
aa(lp2918
g14
aI9
aa(lp2919
g16
aI171
aa(lp2920
g18
aI47
aa(lp2921
g20
aI7
aa(lp2922
g22
aI15
aa(lp2923
g24
aI10
aa(lp2924
g26
aI12
aa(lp2925
g28
aF22.048796296296292
aa(lp2926
g30
aF1.2
aa(lp2927
g32
aF1.5
aa(lp2928
g34
aF10.6875
aa(lp2929
g36
aI10
aa(lp2930
g38
aI12
aa(lp2931
g40
aI16
aa(lp2932
g42
aF0.21276595744680851
aa(lp2933
g44
aF949.29999999999995
aa(lp2934
g46
aF0.51111111111111107
aa(lp2935
g49
aF0.20000000000000001
aa(lp2936
g51
ag80
((lp2937
S'ahoyosid'
p2938
aS'bthirion'
p2939
aS'gaelvaroquaux'
p2940
aS'alexandreabraham'
p2941
aS'titan-c'
p2942
aS'juhuntenburg'
p2943
aS'kamalakerdadi'
p2944
aS'jeromedockes'
p2945
aS'darya-chyzhyk'
p2946
aS'alexsavio'
p2947
atRp2948
aatRp2949
ag2
((lp2950
(lp2951
g5
aI100
aa(lp2952
g7
ag8
(S'\x07\xe1\x02\x02\x00\x00\x00\x00\x00\x00'
tRp2953
aa(lp2954
g11
ag8
(S'\x07\xe1\x02\x03\x00\x00\x00\x00\x00\x00'
tRp2955
aa(lp2956
g14
aI2
aa(lp2957
g16
aI38
aa(lp2958
g18
aI14
aa(lp2959
g20
aI4
aa(lp2960
g22
aI2
aa(lp2961
g24
aI1
aa(lp2962
g26
aI1
aa(lp2963
g28
aF30.040555555555557
aa(lp2964
g30
aF0.33333333333333331
aa(lp2965
g32
aF0.66666666666666663
aa(lp2966
g34
aF6.333333333333333
aa(lp2967
g36
aI3
aa(lp2968
g38
aI3
aa(lp2969
g40
aI6
aa(lp2970
g42
aF0.66666666666666663
aa(lp2971
g44
aF915.66666666666663
aa(lp2972
g46
aF0.66666666666666663
aa(lp2973
g49
aF0
aa(lp2974
g51
ag80
((lp2975
S'alexandreabraham'
p2976
aS'jeromedockes'
p2977
aS'juhuntenburg'
p2978
atRp2979
aatRp2980
ag2
((lp2981
(lp2982
g5
aI101
aa(lp2983
g7
ag8
(S'\x07\xe1\x02\x08\x00\x00\x00\x00\x00\x00'
tRp2984
aa(lp2985
g11
ag8
(S'\x07\xe1\x02\x08\x00\x00\x00\x00\x00\x00'
tRp2986
aa(lp2987
g14
aI1
aa(lp2988
g16
aI7
aa(lp2989
g18
aI5
aa(lp2990
g20
aI1
aa(lp2991
g22
aI2
aa(lp2992
g24
aI0
aa(lp2993
g26
aI2
aa(lp2994
g28
aF6.7422222222222228
aa(lp2995
g30
aF1
aa(lp2996
g32
aF1
aa(lp2997
g34
aF1.75
aa(lp2998
g36
aI2
aa(lp2999
g38
aI3
aa(lp3000
g40
aI4
aa(lp3001
g42
aF0
aa(lp3002
g44
aF1197
aa(lp3003
g46
aF1
aa(lp3004
g49
aF0
aa(lp3005
g51
ag80
((lp3006
S'gaelvaroquaux'
p3007
aS'darya-chyzhyk'
p3008
atRp3009
aatRp3010
ag2
((lp3011
(lp3012
g5
aI102
aa(lp3013
g7
ag8
(S'\x07\xe1\x02\x0e\x00\x00\x00\x00\x00\x00'
tRp3014
aa(lp3015
g11
ag8
(S'\x07\xe1\x03\x07\x00\x00\x00\x00\x00\x00'
tRp3016
aa(lp3017
g14
aI22
aa(lp3018
g16
aI604
aa(lp3019
g18
aI109
aa(lp3020
g20
aI7
aa(lp3021
g22
aI44
aa(lp3022
g24
aI24
aa(lp3023
g26
aI41
aa(lp3024
g28
aF173.9921409214092
aa(lp3025
g30
aF2.5625
aa(lp3026
g32
aF2.75
aa(lp3027
g34
aF24.16
aa(lp3028
g36
aI16
aa(lp3029
g38
aI24
aa(lp3030
g40
aI25
aa(lp3031
g42
aF0.23910550458715596
aa(lp3032
g44
aF852.57142857142856
aa(lp3033
g46
aF0.68067226890756305
aa(lp3034
g49
aF0.24369747899159663
aa(lp3035
g51
ag80
((lp3036
S'ahoyosid'
p3037
aS'salma1601'
p3038
aS'mrahim'
p3039
aS'gaelvaroquaux'
p3040
aS'simon.richard.steinkamp@uni-oldenburg.de'
p3041
aS'alexandreabraham'
p3042
aS'moritz.boos@uni-oldenburg.de'
p3043
aS'juhuntenburg'
p3044
aS'arthurmensch'
p3045
aS'souravsingh'
p3046
aS'jeromedockes'
p3047
aS'dohmatob'
p3048
aS'kamalakerdadi'
p3049
aS'akshayah3'
p3050
aS'darya-chyzhyk'
p3051
aS'alexsavio'
p3052
atRp3053
aatRp3054
ag2
((lp3055
(lp3056
g5
aI103
aa(lp3057
g7
ag8
(S'\x07\xe1\x03\r\x00\x00\x00\x00\x00\x00'
tRp3058
aa(lp3059
g11
ag8
(S'\x07\xe1\x03\x10\x00\x00\x00\x00\x00\x00'
tRp3060
aa(lp3061
g14
aI4
aa(lp3062
g16
aI12
aa(lp3063
g18
aI6
aa(lp3064
g20
aI2
aa(lp3065
g22
aI2
aa(lp3066
g24
aI1
aa(lp3067
g26
aI2
aa(lp3068
g28
aF41.079861111111107
aa(lp3069
g30
aF0.66666666666666663
aa(lp3070
g32
aF0.66666666666666663
aa(lp3071
g34
aF3
aa(lp3072
g36
aI3
aa(lp3073
g38
aI3
aa(lp3074
g40
aI4
aa(lp3075
g42
aF0
aa(lp3076
g44
aF995.66666666666663
aa(lp3077
g46
aF0.66666666666666663
aa(lp3078
g49
aF0.33333333333333331
aa(lp3079
g51
ag80
((lp3080
S'gaelvaroquaux'
p3081
aS'simon steinkamp'
p3082
aS'kamalakerdadi'
p3083
atRp3084
aatRp3085
ag2
((lp3086
(lp3087
g5
aI104
aa(lp3088
g7
ag8
(S'\x07\xe1\x03\x15\x00\x00\x00\x00\x00\x00'
tRp3089
aa(lp3090
g11
ag8
(S'\x07\xe1\x03\x18\x00\x00\x00\x00\x00\x00'
tRp3091
aa(lp3092
g14
aI4
aa(lp3093
g16
aI21
aa(lp3094
g18
aI3
aa(lp3095
g20
aI2
aa(lp3096
g22
aI2
aa(lp3097
g24
aI2
aa(lp3098
g26
aI0
aa(lp3099
g28
aF0
aa(lp3100
g30
aF0
aa(lp3101
g32
aF0.5
aa(lp3102
g34
aF4.2000000000000002
aa(lp3103
g36
aI4
aa(lp3104
g38
aI3
aa(lp3105
g40
aI5
aa(lp3106
g42
aF0.83333333333333337
aa(lp3107
g44
aF456.33333333333331
aa(lp3108
g46
aF0.66666666666666663
aa(lp3109
g49
aF0
aa(lp3110
g51
ag80
((lp3111
S'johngriffiths'
p3112
aS'ahoyosid'
p3113
aS'akshayah3'
p3114
aS'kamalakerdadi'
p3115
atRp3116
aatRp3117
ag2
((lp3118
(lp3119
g5
aI106
aa(lp3120
g7
ag8
(S'\x07\xe1\x04\x03\x00\x00\x00\x00\x00\x00'
tRp3121
aa(lp3122
g11
ag8
(S'\x07\xe1\x04\x0b\x00\x00\x00\x00\x00\x00'
tRp3123
aa(lp3124
g14
aI9
aa(lp3125
g16
aI151
aa(lp3126
g18
aI9
aa(lp3127
g20
aI2
aa(lp3128
g22
aI11
aa(lp3129
g24
aI11
aa(lp3130
g26
aI4
aa(lp3131
g28
aF21.641874999999999
aa(lp3132
g30
aF0.66666666666666663
aa(lp3133
g32
aF1.8333333333333333
aa(lp3134
g34
aF16.777777777777779
aa(lp3135
g36
aI6
aa(lp3136
g38
aI7
aa(lp3137
g40
aI9
aa(lp3138
g42
aF0.42592592592592593
aa(lp3139
g44
aF551.39999999999998
aa(lp3140
g46
aF0.8666666666666667
aa(lp3141
g49
aF0.26666666666666666
aa(lp3142
g51
ag80
((lp3143
S'sylvainlan'
p3144
aS'ahoyosid'
p3145
aS'salma1601'
p3146
aS'kamalakerdadi'
p3147
aS'sylvain@dhcp-147-251.via.ecp.fr'
p3148
aS'jeromedockes'
p3149
atRp3150
aatRp3151
ag2
((lp3152
(lp3153
g5
aI107
aa(lp3154
g7
ag8
(S'\x07\xe1\x04\x18\x00\x00\x00\x00\x00\x00'
tRp3155
aa(lp3156
g11
ag8
(S'\x07\xe1\x04\x19\x00\x00\x00\x00\x00\x00'
tRp3157
aa(lp3158
g14
aI2
aa(lp3159
g16
aI9
aa(lp3160
g18
aI0
aa(lp3161
g20
aI0
aa(lp3162
g22
aI1
aa(lp3163
g24
aI0
aa(lp3164
g26
aI1
aa(lp3165
g28
aF35.891111111111108
aa(lp3166
g30
aF0.33333333333333331
aa(lp3167
g32
aF0.33333333333333331
aa(lp3168
g34
aF1.5
aa(lp3169
g36
aI3
aa(lp3170
g38
aI4
aa(lp3171
g40
aI6
aa(lp3172
g42
aF0
aa(lp3173
g44
aF808
aa(lp3174
g46
ag47
aa(lp3175
g49
ag47
aa(lp3176
g51
a(lp3177
S'ahoyosid'
p3178
aS'salma1601'
p3179
aS'kamalakerdadi'
p3180
aaatRp3181
ag2
((lp3182
(lp3183
g5
aI108
aa(lp3184
g7
ag8
(S'\x07\xe1\x05\x06\x00\x00\x00\x00\x00\x00'
tRp3185
aa(lp3186
g11
ag8
(S'\x07\xe1\x05\x06\x00\x00\x00\x00\x00\x00'
tRp3187
aa(lp3188
g14
aI1
aa(lp3189
g16
aI4
aa(lp3190
g18
aI2
aa(lp3191
g20
aI1
aa(lp3192
g22
aI1
aa(lp3193
g24
aI1
aa(lp3194
g26
aI0
aa(lp3195
g28
aF0
aa(lp3196
g30
aF0
aa(lp3197
g32
aF0.5
aa(lp3198
g34
aF0.66666666666666663
aa(lp3199
g36
aI2
aa(lp3200
g38
aI5
aa(lp3201
g40
aI6
aa(lp3202
g42
aF0
aa(lp3203
g44
aF719
aa(lp3204
g46
aF0
aa(lp3205
g49
aF0
aa(lp3206
g51
ag80
((lp3207
S'ahoyosid'
p3208
aS'kamalakerdadi'
p3209
atRp3210
aatRp3211
ag2
((lp3212
(lp3213
g5
aI109
aa(lp3214
g7
ag8
(S'\x07\xe1\x05\x17\x00\x00\x00\x00\x00\x00'
tRp3215
aa(lp3216
g11
ag8
(S'\x07\xe1\x05\x17\x00\x00\x00\x00\x00\x00'
tRp3217
aa(lp3218
g14
aI1
aa(lp3219
g16
aI13
aa(lp3220
g18
aI8
aa(lp3221
g20
aI1
aa(lp3222
g22
aI3
aa(lp3223
g24
aI0
aa(lp3224
g26
aI3
aa(lp3225
g28
aF9.8907407407407408
aa(lp3226
g30
aF1.5
aa(lp3227
g32
aF1.5
aa(lp3228
g34
aF2.6000000000000001
aa(lp3229
g36
aI2
aa(lp3230
g38
aI5
aa(lp3231
g40
aI5
aa(lp3232
g42
aF0
aa(lp3233
g44
aF1560.5
aa(lp3234
g46
aF0
aa(lp3235
g49
aF1
aa(lp3236
g51
ag80
((lp3237
S'gaelvaroquaux'
p3238
aS'kamalakerdadi'
p3239
atRp3240
aatRp3241
ag2
((lp3242
(lp3243
g5
aI110
aa(lp3244
g7
ag8
(S'\x07\xe1\x05\x1d\x00\x00\x00\x00\x00\x00'
tRp3245
aa(lp3246
g11
ag8
(S'\x07\xe1\x05\x1e\x00\x00\x00\x00\x00\x00'
tRp3247
aa(lp3248
g14
aI2
aa(lp3249
g16
aI40
aa(lp3250
g18
aI4
aa(lp3251
g20
aI1
aa(lp3252
g22
aI5
aa(lp3253
g24
aI1
aa(lp3254
g26
aI5
aa(lp3255
g28
aF28.811388888888889
aa(lp3256
g30
aF1.6666666666666667
aa(lp3257
g32
aF1.6666666666666667
aa(lp3258
g34
aF6.666666666666667
aa(lp3259
g36
aI3
aa(lp3260
g38
aI5
aa(lp3261
g40
aI6
aa(lp3262
g42
aF0
aa(lp3263
g44
aF1392.6666666666667
aa(lp3264
g46
aF0.66666666666666663
aa(lp3265
g49
aF0.33333333333333331
aa(lp3266
g51
ag80
((lp3267
S'gaelvaroquaux'
p3268
aS'salma1601'
p3269
aS'kamalakerdadi'
p3270
atRp3271
aatRp3272
ag2
((lp3273
(lp3274
g5
aI111
aa(lp3275
g7
ag8
(S'\x07\xe1\x06\x0c\x00\x00\x00\x00\x00\x00'
tRp3276
aa(lp3277
g11
ag8
(S'\x07\xe1\x06\x0f\x00\x00\x00\x00\x00\x00'
tRp3278
aa(lp3279
g14
aI4
aa(lp3280
g16
aI23
aa(lp3281
g18
aI14
aa(lp3282
g20
aI4
aa(lp3283
g22
aI7
aa(lp3284
g24
aI2
aa(lp3285
g26
aI6
aa(lp3286
g28
aF87.25611111111111
aa(lp3287
g30
aF2
aa(lp3288
g32
aF2.3333333333333335
aa(lp3289
g34
aF2.5555555555555554
aa(lp3290
g36
aI3
aa(lp3291
g38
aI9
aa(lp3292
g40
aI9
aa(lp3293
g42
aF0
aa(lp3294
g44
aF1257
aa(lp3295
g46
aF0.66666666666666663
aa(lp3296
g49
aF1
aa(lp3297
g51
ag80
((lp3298
S'gaelvaroquaux'
p3299
aS'thechymera'
p3300
aS'kamalakerdadi'
p3301
atRp3302
aatRp3303
ag2
((lp3304
(lp3305
g5
aI112
aa(lp3306
g7
ag8
(S'\x07\xe1\x06\x13\x00\x00\x00\x00\x00\x00'
tRp3307
aa(lp3308
g11
ag8
(S'\x07\xe1\x06\x1a\x00\x00\x00\x00\x00\x00'
tRp3309
aa(lp3310
g14
aI8
aa(lp3311
g16
aI110
aa(lp3312
g18
aI37
aa(lp3313
g20
aI3
aa(lp3314
g22
aI18
aa(lp3315
g24
aI11
aa(lp3316
g26
aI18
aa(lp3317
g28
aF47.865061728395062
aa(lp3318
g30
aF3.6000000000000001
aa(lp3319
g32
aF3.6000000000000001
aa(lp3320
g34
aF9.1666666666666661
aa(lp3321
g36
aI5
aa(lp3322
g38
aI12
aa(lp3323
g40
aI12
aa(lp3324
g42
aF0
aa(lp3325
g44
aF985.39999999999998
aa(lp3326
g46
aF0.69999999999999996
aa(lp3327
g49
aF0.59999999999999998
aa(lp3328
g51
ag80
((lp3329
S'gaelvaroquaux'
p3330
aS'alpinho'
p3331
aS'yarikoptic'
p3332
aS'kamalakerdadi'
p3333
aS'sfvndtu'
p3334
atRp3335
aatRp3336
ag2
((lp3337
(lp3338
g5
aI114
aa(lp3339
g7
ag8
(S'\x07\xe1\x07\x1a\x00\x00\x00\x00\x00\x00'
tRp3340
aa(lp3341
g11
ag8
(S'\x07\xe1\x07\x1e\x00\x00\x00\x00\x00\x00'
tRp3342
aa(lp3343
g14
aI5
aa(lp3344
g16
aI78
aa(lp3345
g18
aI17
aa(lp3346
g20
aI3
aa(lp3347
g22
aI8
aa(lp3348
g24
aI6
aa(lp3349
g26
aI7
aa(lp3350
g28
aF42.229404761904767
aa(lp3351
g30
aF1.1666666666666667
aa(lp3352
g32
aF1.3333333333333333
aa(lp3353
g34
aF8.6666666666666661
aa(lp3354
g36
aI6
aa(lp3355
g38
aI9
aa(lp3356
g40
aI9
aa(lp3357
g42
aF0.078431372549019607
aa(lp3358
g44
aF951.5
aa(lp3359
g46
aF0.8666666666666667
aa(lp3360
g49
aF0.46666666666666667
aa(lp3361
g51
ag80
((lp3362
S'meghana.madhyastha@inria.fr'
p3363
aS'gaelvaroquaux'
p3364
aS'kamalakerdadi'
p3365
aS'moritz.boos@uni-oldenburg.de'
p3366
aS'njchiang'
p3367
aS'kingjr'
p3368
atRp3369
aatRp3370
ag2
((lp3371
(lp3372
g5
aI115
aa(lp3373
g7
ag8
(S'\x07\xe1\x08\x12\x00\x00\x00\x00\x00\x00'
tRp3374
aa(lp3375
g11
ag8
(S'\x07\xe1\x08\x18\x00\x00\x00\x00\x00\x00'
tRp3376
aa(lp3377
g14
aI7
aa(lp3378
g16
aI41
aa(lp3379
g18
aI14
aa(lp3380
g20
aI3
aa(lp3381
g22
aI8
aa(lp3382
g24
aI6
aa(lp3383
g26
aI5
aa(lp3384
g28
aF69.698333333333338
aa(lp3385
g30
aF1.6666666666666667
aa(lp3386
g32
aF2.6666666666666665
aa(lp3387
g34
aF8.1999999999999993
aa(lp3388
g36
aI3
aa(lp3389
g38
aI5
aa(lp3390
g40
aI5
aa(lp3391
g42
aF0
aa(lp3392
g44
aF1381.3333333333333
aa(lp3393
g46
aF0.66666666666666663
aa(lp3394
g49
aF1
aa(lp3395
g51
ag80
((lp3396
S'gaelvaroquaux'
p3397
aS'larsoner'
p3398
aS'kamalakerdadi'
p3399
atRp3400
aatRp3401
ag2
((lp3402
(lp3403
g5
aI116
aa(lp3404
g7
ag8
(S'\x07\xe1\t\x04\x00\x00\x00\x00\x00\x00'
tRp3405
aa(lp3406
g11
ag8
(S'\x07\xe1\t\x04\x00\x00\x00\x00\x00\x00'
tRp3407
aa(lp3408
g14
aI1
aa(lp3409
g16
aI2
aa(lp3410
g18
aI1
aa(lp3411
g20
aI1
aa(lp3412
g22
aI1
aa(lp3413
g24
aI0
aa(lp3414
g26
aI1
aa(lp3415
g28
aF7.0650000000000004
aa(lp3416
g30
aF1
aa(lp3417
g32
aF1
aa(lp3418
g34
aF1
aa(lp3419
g36
aI1
aa(lp3420
g38
aI2
aa(lp3421
g40
aI2
aa(lp3422
g42
aF0
aa(lp3423
g44
aF900
aa(lp3424
g46
ag47
aa(lp3425
g49
ag47
aa(lp3426
g51
a(lp3427
S'kamalakerdadi'
p3428
aaatRp3429
ag2
((lp3430
(lp3431
g5
aI117
aa(lp3432
g7
ag8
(S'\x07\xe1\t\x13\x00\x00\x00\x00\x00\x00'
tRp3433
aa(lp3434
g11
ag8
(S'\x07\xe1\t\x13\x00\x00\x00\x00\x00\x00'
tRp3435
aa(lp3436
g14
aI1
aa(lp3437
g16
aI12
aa(lp3438
g18
aI2
aa(lp3439
g20
aI1
aa(lp3440
g22
aI1
aa(lp3441
g24
aI0
aa(lp3442
g26
aI1
aa(lp3443
g28
aF13.488888888888889
aa(lp3444
g30
aF0.5
aa(lp3445
g32
aF0.5
aa(lp3446
g34
aF3
aa(lp3447
g36
aI2
aa(lp3448
g38
aI4
aa(lp3449
g40
aI4
aa(lp3450
g42
aF0
aa(lp3451
g44
aF1363.5
aa(lp3452
g46
aF1
aa(lp3453
g49
aF1
aa(lp3454
g51
ag80
((lp3455
S'gaelvaroquaux'
p3456
aS'jnecus'
p3457
atRp3458
aatRp3459
ag2
((lp3460
(lp3461
g5
aI118
aa(lp3462
g7
ag8
(S'\x07\xe1\t\x1c\x00\x00\x00\x00\x00\x00'
tRp3463
aa(lp3464
g11
ag8
(S'\x07\xe1\t\x1e\x00\x00\x00\x00\x00\x00'
tRp3465
aa(lp3466
g14
aI3
aa(lp3467
g16
aI41
aa(lp3468
g18
aI5
aa(lp3469
g20
aI2
aa(lp3470
g22
aI6
aa(lp3471
g24
aI4
aa(lp3472
g26
aI5
aa(lp3473
g28
aF5.9401111111111113
aa(lp3474
g30
aF1
aa(lp3475
g32
aF1.2
aa(lp3476
g34
aF4.0999999999999996
aa(lp3477
g36
aI5
aa(lp3478
g38
aI10
aa(lp3479
g40
aI10
aa(lp3480
g42
aF0.28000000000000003
aa(lp3481
g44
aF1139.4000000000001
aa(lp3482
g46
aF0.88888888888888884
aa(lp3483
g49
aF0.44444444444444442
aa(lp3484
g51
ag80
((lp3485
S'jeromedockes'
p3486
aS'gaelvaroquaux'
p3487
aS'kamalakerdadi'
p3488
aS'thechymera'
p3489
aS'mrahim'
p3490
atRp3491
aatRp3492
ag2
((lp3493
(lp3494
g5
aI119
aa(lp3495
g7
ag8
(S'\x07\xe1\n\r\x00\x00\x00\x00\x00\x00'
tRp3496
aa(lp3497
g11
ag8
(S'\x07\xe1\n\r\x00\x00\x00\x00\x00\x00'
tRp3498
aa(lp3499
g14
aI1
aa(lp3500
g16
aI13
aa(lp3501
g18
aI1
aa(lp3502
g20
aI1
aa(lp3503
g22
aI3
aa(lp3504
g24
aI1
aa(lp3505
g26
aI3
aa(lp3506
g28
aF8.781296296296297
aa(lp3507
g30
aF1.5
aa(lp3508
g32
aF1.5
aa(lp3509
g34
aF2.1666666666666665
aa(lp3510
g36
aI2
aa(lp3511
g38
aI5
aa(lp3512
g40
aI6
aa(lp3513
g42
aF3.5
aa(lp3514
g44
aF746
aa(lp3515
g46
aF0
aa(lp3516
g49
aF0
aa(lp3517
g51
ag80
((lp3518
S'jeromedockes'
p3519
aS'kamalakerdadi'
p3520
atRp3521
aatRp3522
ag2
((lp3523
(lp3524
g5
aI120
aa(lp3525
g7
ag8
(S'\x07\xe1\n\x12\x00\x00\x00\x00\x00\x00'
tRp3526
aa(lp3527
g11
ag8
(S'\x07\xe1\n\x12\x00\x00\x00\x00\x00\x00'
tRp3528
aa(lp3529
g14
aI1
aa(lp3530
g16
aI9
aa(lp3531
g18
aI3
aa(lp3532
g20
aI1
aa(lp3533
g22
aI2
aa(lp3534
g24
aI2
aa(lp3535
g26
aI0
aa(lp3536
g28
aF0
aa(lp3537
g30
aF0
aa(lp3538
g32
aF2
aa(lp3539
g34
aF2.25
aa(lp3540
g36
aI1
aa(lp3541
g38
aI4
aa(lp3542
g40
aI4
aa(lp3543
g42
aF0
aa(lp3544
g44
aF2473
aa(lp3545
g46
ag47
aa(lp3546
g49
ag47
aa(lp3547
g51
a(lp3548
S'gaelvaroquaux'
p3549
aaatRp3550
ag2
((lp3551
(lp3552
g5
aI121
aa(lp3553
g7
ag8
(S'\x07\xe1\n\x1e\x00\x00\x00\x00\x00\x00'
tRp3554
aa(lp3555
g11
ag8
(S'\x07\xe1\x0b\x06\x00\x00\x00\x00\x00\x00'
tRp3556
aa(lp3557
g14
aI8
aa(lp3558
g16
aI59
aa(lp3559
g18
aI36
aa(lp3560
g20
aI2
aa(lp3561
g22
aI15
aa(lp3562
g24
aI6
aa(lp3563
g26
aI13
aa(lp3564
g28
aF144.69091880341878
aa(lp3565
g30
aF4.333333333333333
aa(lp3566
g32
aF5
aa(lp3567
g34
aF5.9000000000000004
aa(lp3568
g36
aI3
aa(lp3569
g38
aI10
aa(lp3570
g40
aI10
aa(lp3571
g42
aF0.018518518518518517
aa(lp3572
g44
aF1552.6666666666667
aa(lp3573
g46
aF0.66666666666666663
aa(lp3574
g49
aF1
aa(lp3575
g51
ag80
((lp3576
S'gaelvaroquaux'
p3577
aS'salma1601'
p3578
aS'kamalakerdadi'
p3579
atRp3580
aatRp3581
ag2
((lp3582
(lp3583
g5
aI122
aa(lp3584
g7
ag8
(S'\x07\xe1\x0b\n\x00\x00\x00\x00\x00\x00'
tRp3585
aa(lp3586
g11
ag8
(S'\x07\xe1\x0b\x17\x00\x00\x00\x00\x00\x00'
tRp3587
aa(lp3588
g14
aI14
aa(lp3589
g16
aI600
aa(lp3590
g18
aI78
aa(lp3591
g20
aI5
aa(lp3592
g22
aI40
aa(lp3593
g24
aI24
aa(lp3594
g26
aI38
aa(lp3595
g28
aF93.927368421052648
aa(lp3596
g30
aF4.75
aa(lp3597
g32
aF5
aa(lp3598
g34
aF28.571428571428573
aa(lp3599
g36
aI8
aa(lp3600
g38
aI21
aa(lp3601
g40
aI21
aa(lp3602
g42
aF0.34294871794871795
aa(lp3603
g44
aF872.625
aa(lp3604
g46
aF0.7142857142857143
aa(lp3605
g49
aF0.6428571428571429
aa(lp3606
g51
ag80
((lp3607
S'gaelvaroquaux'
p3608
aS'salma1601'
p3609
aS'cbedetti'
p3610
aS'poquirion'
p3611
aS'bthirion'
p3612
aS'kamalakerdadi'
p3613
aS'emdupre'
p3614
aS'jeromedockes'
p3615
atRp3616
aatRp3617
ag2
((lp3618
(lp3619
g5
aI123
aa(lp3620
g7
ag8
(S'\x07\xe1\x0b\x1e\x00\x00\x00\x00\x00\x00'
tRp3621
aa(lp3622
g11
ag8
(S'\x07\xe1\x0c\x01\x00\x00\x00\x00\x00\x00'
tRp3623
aa(lp3624
g14
aI2
aa(lp3625
g16
aI5
aa(lp3626
g18
aI1
aa(lp3627
g20
aI1
aa(lp3628
g22
aI3
aa(lp3629
g24
aI0
aa(lp3630
g26
aI3
aa(lp3631
g28
aF16.893888888888888
aa(lp3632
g30
aF3
aa(lp3633
g32
aF3
aa(lp3634
g34
aF0.83333333333333337
aa(lp3635
g36
aI1
aa(lp3636
g38
aI6
aa(lp3637
g40
aI6
aa(lp3638
g42
aF0
aa(lp3639
g44
aF2517
aa(lp3640
g46
ag47
aa(lp3641
g49
ag47
aa(lp3642
g51
a(lp3643
S'gaelvaroquaux'
p3644
aaatRp3645
a.