(lp1
ccollections
OrderedDict
p2
((lp3
(lp4
S'burst_id'
p5
aI0
aa(lp6
S'burst_start'
p7
acdatetime
datetime
p8
(S'\x07\xdf\x03\x1b\x00\x00\x00\x00\x00\x00'
tRp9
aa(lp10
S'burst_end'
p11
ag8
(S'\x07\xdf\x03\x1b\x00\x00\x00\x00\x00\x00'
tRp12
aa(lp13
S'burst_duration_days'
p14
aI1
aa(lp15
S'total_activity'
p16
aI3
aa(lp17
S'num_files (Change Size)'
p18
aI2
aa(lp19
S'file_modules (#Teams)'
p20
aI1
aa(lp21
S'total_num_issues'
p22
aI2
aa(lp23
S'issues_opened'
p24
aI2
aa(lp25
S'issues_closed'
p26
aI0
aa(lp27
S'avg_res_time_hours'
p28
aF0
aa(lp29
S'efficiency'
p30
aF0
aa(lp31
S'issue_per_person (Team Load)'
p32
aF2
aa(lp33
S'activity_per_person'
p34
aF3
aa(lp35
S'committing_users'
p36
aI1
aa(lp37
S'commenting_users'
p38
aI0
aa(lp39
S'total_actors'
p40
aI1
aa(lp41
S'component_experience'
p42
aF0
aa(lp43
S'tenure'
p44
aF610
aa(lp45
S'structural_congruence_fct'
p46
aS'NA'
p47
aa(lp48
S'mr_congruence_fct'
p49
ag47
aa(lp50
S'users_to_coordinate'
p51
a(lp52
S'pcmanticore'
p53
aaatRp54
ag2
((lp55
(lp56
g5
aI1
aa(lp57
g7
ag8
(S'\x07\xdf\x04\x10\x00\x00\x00\x00\x00\x00'
tRp58
aa(lp59
g11
ag8
(S'\x07\xdf\x04\x10\x00\x00\x00\x00\x00\x00'
tRp60
aa(lp61
g14
aI1
aa(lp62
g16
aI0
aa(lp63
g18
aI0
aa(lp64
g20
aI0
aa(lp65
g22
aI5
aa(lp66
g24
aI5
aa(lp67
g26
aI0
aa(lp68
g28
aF0
aa(lp69
g30
ag47
aa(lp70
g32
ag47
aa(lp71
g34
aF0
aa(lp72
g36
aI0
aa(lp73
g38
aI1
aa(lp74
g40
aI1
aa(lp75
g42
aF0
aa(lp76
g44
aF0
aa(lp77
g46
ag47
aa(lp78
g49
ag47
aa(lp79
g51
a(lp80
aatRp81
ag2
((lp82
(lp83
g5
aI2
aa(lp84
g7
ag8
(S'\x07\xdf\x06\x02\x00\x00\x00\x00\x00\x00'
tRp85
aa(lp86
g11
ag8
(S'\x07\xdf\x06\x02\x00\x00\x00\x00\x00\x00'
tRp87
aa(lp88
g14
aI1
aa(lp89
g16
aI4
aa(lp90
g18
aI9
aa(lp91
g20
aI2
aa(lp92
g22
aI3
aa(lp93
g24
aI3
aa(lp94
g26
aI0
aa(lp95
g28
aF0
aa(lp96
g30
aF0
aa(lp97
g32
aF1.5
aa(lp98
g34
aF2
aa(lp99
g36
aI2
aa(lp100
g38
aI0
aa(lp101
g40
aI2
aa(lp102
g42
aF0.27777777777777779
aa(lp103
g44
aF338.5
aa(lp104
g46
aF1
aa(lp105
g49
aF0
aa(lp106
g51
ac__builtin__
set
p107
((lp108
S'pcmanticore'
p109
aS'thedrow'
p110
atRp111
aatRp112
ag2
((lp113
(lp114
g5
aI3
aa(lp115
g7
ag8
(S'\x07\xdf\x06\x14\x00\x00\x00\x00\x00\x00'
tRp116
aa(lp117
g11
ag8
(S'\x07\xdf\x06\x14\x00\x00\x00\x00\x00\x00'
tRp118
aa(lp119
g14
aI1
aa(lp120
g16
aI5
aa(lp121
g18
aI4
aa(lp122
g20
aI1
aa(lp123
g22
aI14
aa(lp124
g24
aI14
aa(lp125
g26
aI0
aa(lp126
g28
aF0
aa(lp127
g30
aF0
aa(lp128
g32
aF14
aa(lp129
g34
aF5
aa(lp130
g36
aI1
aa(lp131
g38
aI1
aa(lp132
g40
aI1
aa(lp133
g42
aF0
aa(lp134
g44
aF695
aa(lp135
g46
ag47
aa(lp136
g49
ag47
aa(lp137
g51
a(lp138
S'pcmanticore'
p139
aaatRp140
ag2
((lp141
(lp142
g5
aI4
aa(lp143
g7
ag8
(S'\x07\xdf\x07\x03\x00\x00\x00\x00\x00\x00'
tRp144
aa(lp145
g11
ag8
(S'\x07\xdf\x07\x03\x00\x00\x00\x00\x00\x00'
tRp146
aa(lp147
g14
aI1
aa(lp148
g16
aI6
aa(lp149
g18
aI9
aa(lp150
g20
aI1
aa(lp151
g22
aI5
aa(lp152
g24
aI5
aa(lp153
g26
aI0
aa(lp154
g28
aF0
aa(lp155
g30
aF0
aa(lp156
g32
aF5
aa(lp157
g34
aF6
aa(lp158
g36
aI1
aa(lp159
g38
aI1
aa(lp160
g40
aI1
aa(lp161
g42
aF0
aa(lp162
g44
aF708
aa(lp163
g46
ag47
aa(lp164
g49
ag47
aa(lp165
g51
a(lp166
S'pcmanticore'
p167
aaatRp168
ag2
((lp169
(lp170
g5
aI5
aa(lp171
g7
ag8
(S'\x07\xdf\x07\r\x00\x00\x00\x00\x00\x00'
tRp172
aa(lp173
g11
ag8
(S'\x07\xdf\x07\r\x00\x00\x00\x00\x00\x00'
tRp174
aa(lp175
g14
aI1
aa(lp176
g16
aI2
aa(lp177
g18
aI2
aa(lp178
g20
aI1
aa(lp179
g22
aI4
aa(lp180
g24
aI4
aa(lp181
g26
aI0
aa(lp182
g28
aF0
aa(lp183
g30
aF0
aa(lp184
g32
aF4
aa(lp185
g34
aF2
aa(lp186
g36
aI1
aa(lp187
g38
aI1
aa(lp188
g40
aI1
aa(lp189
g42
aF0
aa(lp190
g44
aF718
aa(lp191
g46
ag47
aa(lp192
g49
ag47
aa(lp193
g51
a(lp194
S'pcmanticore'
p195
aaatRp196
ag2
((lp197
(lp198
g5
aI6
aa(lp199
g7
ag8
(S'\x07\xdf\x07\x19\x00\x00\x00\x00\x00\x00'
tRp200
aa(lp201
g11
ag8
(S'\x07\xdf\x07\x19\x00\x00\x00\x00\x00\x00'
tRp202
aa(lp203
g14
aI1
aa(lp204
g16
aI34
aa(lp205
g18
aI18
aa(lp206
g20
aI2
aa(lp207
g22
aI1
aa(lp208
g24
aI1
aa(lp209
g26
aI0
aa(lp210
g28
aF0
aa(lp211
g30
aF0
aa(lp212
g32
aF0.33333333333333331
aa(lp213
g34
aF11.333333333333334
aa(lp214
g36
aI3
aa(lp215
g38
aI0
aa(lp216
g40
aI3
aa(lp217
g42
aF0
aa(lp218
g44
aF730
aa(lp219
g46
aF1
aa(lp220
g49
aF0
aa(lp221
g51
ag107
((lp222
S'pcmanticore'
p223
aS'radowit'
p224
aS'the-compiler'
p225
atRp226
aatRp227
ag2
((lp228
(lp229
g5
aI7
aa(lp230
g7
ag8
(S'\x07\xdf\x08\x14\x00\x00\x00\x00\x00\x00'
tRp231
aa(lp232
g11
ag8
(S'\x07\xdf\x08\x14\x00\x00\x00\x00\x00\x00'
tRp233
aa(lp234
g14
aI1
aa(lp235
g16
aI4
aa(lp236
g18
aI4
aa(lp237
g20
aI1
aa(lp238
g22
aI3
aa(lp239
g24
aI3
aa(lp240
g26
aI0
aa(lp241
g28
aF0
aa(lp242
g30
aF0
aa(lp243
g32
aF3
aa(lp244
g34
aF4
aa(lp245
g36
aI1
aa(lp246
g38
aI1
aa(lp247
g40
aI1
aa(lp248
g42
aF0
aa(lp249
g44
aF756
aa(lp250
g46
ag47
aa(lp251
g49
ag47
aa(lp252
g51
a(lp253
S'pcmanticore'
p254
aaatRp255
ag2
((lp256
(lp257
g5
aI9
aa(lp258
g7
ag8
(S'\x07\xdf\t\x1d\x00\x00\x00\x00\x00\x00'
tRp259
aa(lp260
g11
ag8
(S'\x07\xdf\t\x1d\x00\x00\x00\x00\x00\x00'
tRp261
aa(lp262
g14
aI1
aa(lp263
g16
aI2
aa(lp264
g18
aI1
aa(lp265
g20
aI1
aa(lp266
g22
aI2
aa(lp267
g24
aI2
aa(lp268
g26
aI0
aa(lp269
g28
aF0
aa(lp270
g30
aF0
aa(lp271
g32
aF2
aa(lp272
g34
aF2
aa(lp273
g36
aI1
aa(lp274
g38
aI1
aa(lp275
g40
aI1
aa(lp276
g42
aF0
aa(lp277
g44
aF796
aa(lp278
g46
ag47
aa(lp279
g49
ag47
aa(lp280
g51
a(lp281
S'pcmanticore'
p282
aaatRp283
ag2
((lp284
(lp285
g5
aI10
aa(lp286
g7
ag8
(S'\x07\xdf\n\x1a\x00\x00\x00\x00\x00\x00'
tRp287
aa(lp288
g11
ag8
(S'\x07\xdf\n\x1a\x00\x00\x00\x00\x00\x00'
tRp289
aa(lp290
g14
aI1
aa(lp291
g16
aI6
aa(lp292
g18
aI22
aa(lp293
g20
aI2
aa(lp294
g22
aI4
aa(lp295
g24
aI4
aa(lp296
g26
aI0
aa(lp297
g28
aF0
aa(lp298
g30
aF0
aa(lp299
g32
aF4
aa(lp300
g34
aF3
aa(lp301
g36
aI1
aa(lp302
g38
aI2
aa(lp303
g40
aI2
aa(lp304
g42
aF0
aa(lp305
g44
aF823
aa(lp306
g46
ag47
aa(lp307
g49
ag47
aa(lp308
g51
a(lp309
S'pcmanticore'
p310
aaatRp311
ag2
((lp312
(lp313
g5
aI11
aa(lp314
g7
ag8
(S'\x07\xdf\n\x1e\x00\x00\x00\x00\x00\x00'
tRp315
aa(lp316
g11
ag8
(S'\x07\xdf\n\x1e\x00\x00\x00\x00\x00\x00'
tRp317
aa(lp318
g14
aI1
aa(lp319
g16
aI4
aa(lp320
g18
aI5
aa(lp321
g20
aI1
aa(lp322
g22
aI1
aa(lp323
g24
aI1
aa(lp324
g26
aI0
aa(lp325
g28
aF0
aa(lp326
g30
aF0
aa(lp327
g32
aF0.5
aa(lp328
g34
aF2
aa(lp329
g36
aI2
aa(lp330
g38
aI0
aa(lp331
g40
aI2
aa(lp332
g42
aF0
aa(lp333
g44
aF827
aa(lp334
g46
aF1
aa(lp335
g49
aF0
aa(lp336
g51
ag107
((lp337
S'laura.medioni@logilab.fr'
p338
aS'pcmanticore'
p339
atRp340
aatRp341
ag2
((lp342
(lp343
g5
aI12
aa(lp344
g7
ag8
(S'\x07\xdf\x0b\x03\x00\x00\x00\x00\x00\x00'
tRp345
aa(lp346
g11
ag8
(S'\x07\xdf\x0b\x03\x00\x00\x00\x00\x00\x00'
tRp347
aa(lp348
g14
aI1
aa(lp349
g16
aI2
aa(lp350
g18
aI2
aa(lp351
g20
aI1
aa(lp352
g22
aI1
aa(lp353
g24
aI1
aa(lp354
g26
aI0
aa(lp355
g28
aF0
aa(lp356
g30
aF0
aa(lp357
g32
aF1
aa(lp358
g34
aF2
aa(lp359
g36
aI1
aa(lp360
g38
aI0
aa(lp361
g40
aI1
aa(lp362
g42
aF0
aa(lp363
g44
aF117
aa(lp364
g46
ag47
aa(lp365
g49
ag47
aa(lp366
g51
a(lp367
S'ceridwen'
p368
aaatRp369
ag2
((lp370
(lp371
g5
aI13
aa(lp372
g7
ag8
(S'\x07\xdf\x0b\x0e\x00\x00\x00\x00\x00\x00'
tRp373
aa(lp374
g11
ag8
(S'\x07\xdf\x0b\x0e\x00\x00\x00\x00\x00\x00'
tRp375
aa(lp376
g14
aI1
aa(lp377
g16
aI4
aa(lp378
g18
aI0
aa(lp379
g20
aI0
aa(lp380
g22
aI1
aa(lp381
g24
aI1
aa(lp382
g26
aI0
aa(lp383
g28
aF0
aa(lp384
g30
aF0
aa(lp385
g32
aF1
aa(lp386
g34
aF2
aa(lp387
g36
aI1
aa(lp388
g38
aI2
aa(lp389
g40
aI2
aa(lp390
g42
aF0
aa(lp391
g44
aF842
aa(lp392
g46
ag47
aa(lp393
g49
ag47
aa(lp394
g51
a(lp395
S'pcmanticore'
p396
aaatRp397
ag2
((lp398
(lp399
g5
aI14
aa(lp400
g7
ag8
(S'\x07\xdf\x0c\x01\x00\x00\x00\x00\x00\x00'
tRp401
aa(lp402
g11
ag8
(S'\x07\xdf\x0c\x01\x00\x00\x00\x00\x00\x00'
tRp403
aa(lp404
g14
aI1
aa(lp405
g16
aI3
aa(lp406
g18
aI2
aa(lp407
g20
aI1
aa(lp408
g22
aI2
aa(lp409
g24
aI2
aa(lp410
g26
aI0
aa(lp411
g28
aF0
aa(lp412
g30
aF0
aa(lp413
g32
aF2
aa(lp414
g34
aF1.5
aa(lp415
g36
aI1
aa(lp416
g38
aI1
aa(lp417
g40
aI2
aa(lp418
g42
aF0
aa(lp419
g44
aF859
aa(lp420
g46
ag47
aa(lp421
g49
ag47
aa(lp422
g51
a(lp423
S'pcmanticore'
p424
aaatRp425
ag2
((lp426
(lp427
g5
aI15
aa(lp428
g7
ag8
(S'\x07\xdf\x0c\t\x00\x00\x00\x00\x00\x00'
tRp429
aa(lp430
g11
ag8
(S'\x07\xdf\x0c\x15\x00\x00\x00\x00\x00\x00'
tRp431
aa(lp432
g14
aI13
aa(lp433
g16
aI106
aa(lp434
g18
aI31
aa(lp435
g20
aI2
aa(lp436
g22
aI174
aa(lp437
g24
aI18
aa(lp438
g26
aI165
aa(lp439
g28
aF10.769109427609427
aa(lp440
g30
aF33
aa(lp441
g32
aF34.799999999999997
aa(lp442
g34
aF13.25
aa(lp443
g36
aI5
aa(lp444
g38
aI8
aa(lp445
g40
aI8
aa(lp446
g42
aF0
aa(lp447
g44
aF250.59999999999999
aa(lp448
g46
aF0.83333333333333337
aa(lp449
g49
aF0.5
aa(lp450
g51
ag107
((lp451
S'laura.medioni@logilab.fr'
p452
aS'pcmanticore'
p453
aS'dashea'
p454
aS'arusahni'
p455
aS'the-compiler'
p456
atRp457
aatRp458
ag2
((lp459
(lp460
g5
aI16
aa(lp461
g7
ag8
(S'\x07\xe0\x01\x0e\x00\x00\x00\x00\x00\x00'
tRp462
aa(lp463
g11
ag8
(S'\x07\xe0\x01\x0f\x00\x00\x00\x00\x00\x00'
tRp464
aa(lp465
g14
aI2
aa(lp466
g16
aI22
aa(lp467
g18
aI5
aa(lp468
g20
aI1
aa(lp469
g22
aI6
aa(lp470
g24
aI6
aa(lp471
g26
aI5
aa(lp472
g28
aF12.084222222222223
aa(lp473
g30
aF1.25
aa(lp474
g32
aF1.5
aa(lp475
g34
aF3.6666666666666665
aa(lp476
g36
aI4
aa(lp477
g38
aI6
aa(lp478
g40
aI6
aa(lp479
g42
aF1.45
aa(lp480
g44
aF273.5
aa(lp481
g46
aF1
aa(lp482
g49
aF0.66666666666666663
aa(lp483
g51
ag107
((lp484
S'ceridwen'
p485
aS'pcmanticore'
p486
aS'dbaum'
p487
aS'mbdevpl'
p488
atRp489
aatRp490
ag2
((lp491
(lp492
g5
aI17
aa(lp493
g7
ag8
(S'\x07\xe0\x02\x0b\x00\x00\x00\x00\x00\x00'
tRp494
aa(lp495
g11
ag8
(S'\x07\xe0\x02\r\x00\x00\x00\x00\x00\x00'
tRp496
aa(lp497
g14
aI3
aa(lp498
g16
aI17
aa(lp499
g18
aI0
aa(lp500
g20
aI0
aa(lp501
g22
aI4
aa(lp502
g24
aI1
aa(lp503
g26
aI4
aa(lp504
g28
aF38.641666666666666
aa(lp505
g30
aF4
aa(lp506
g32
aF4
aa(lp507
g34
aF5.666666666666667
aa(lp508
g36
aI1
aa(lp509
g38
aI3
aa(lp510
g40
aI3
aa(lp511
g42
aF0
aa(lp512
g44
aF933
aa(lp513
g46
ag47
aa(lp514
g49
ag47
aa(lp515
g51
a(lp516
S'pcmanticore'
p517
aaatRp518
ag2
((lp519
(lp520
g5
aI18
aa(lp521
g7
ag8
(S'\x07\xe0\x02\x12\x00\x00\x00\x00\x00\x00'
tRp522
aa(lp523
g11
ag8
(S'\x07\xe0\x02\x12\x00\x00\x00\x00\x00\x00'
tRp524
aa(lp525
g14
aI1
aa(lp526
g16
aI2
aa(lp527
g18
aI3
aa(lp528
g20
aI1
aa(lp529
g22
aI7
aa(lp530
g24
aI0
aa(lp531
g26
aI7
aa(lp532
g28
aF22.008571428571429
aa(lp533
g30
aF7
aa(lp534
g32
aF7
aa(lp535
g34
aF0.66666666666666663
aa(lp536
g36
aI1
aa(lp537
g38
aI3
aa(lp538
g40
aI3
aa(lp539
g42
aF0
aa(lp540
g44
aF938
aa(lp541
g46
ag47
aa(lp542
g49
ag47
aa(lp543
g51
a(lp544
S'pcmanticore'
p545
aaatRp546
ag2
((lp547
(lp548
g5
aI19
aa(lp549
g7
ag8
(S'\x07\xe0\x02\x17\x00\x00\x00\x00\x00\x00'
tRp550
aa(lp551
g11
ag8
(S'\x07\xe0\x02\x17\x00\x00\x00\x00\x00\x00'
tRp552
aa(lp553
g14
aI1
aa(lp554
g16
aI0
aa(lp555
g18
aI0
aa(lp556
g20
aI0
aa(lp557
g22
aI1
aa(lp558
g24
aI0
aa(lp559
g26
aI1
aa(lp560
g28
aF22.900833333333335
aa(lp561
g30
ag47
aa(lp562
g32
ag47
aa(lp563
g34
aF0
aa(lp564
g36
aI0
aa(lp565
g38
aI2
aa(lp566
g40
aI2
aa(lp567
g42
aF0
aa(lp568
g44
aF0
aa(lp569
g46
ag47
aa(lp570
g49
ag47
aa(lp571
g51
a(lp572
aatRp573
ag2
((lp574
(lp575
g5
aI21
aa(lp576
g7
ag8
(S'\x07\xe0\x06\x1b\x00\x00\x00\x00\x00\x00'
tRp577
aa(lp578
g11
ag8
(S'\x07\xe0\x06\x1b\x00\x00\x00\x00\x00\x00'
tRp579
aa(lp580
g14
aI1
aa(lp581
g16
aI4
aa(lp582
g18
aI1
aa(lp583
g20
aI1
aa(lp584
g22
aI7
aa(lp585
g24
aI0
aa(lp586
g26
aI7
aa(lp587
g28
aF17.962341269841271
aa(lp588
g30
aF7
aa(lp589
g32
aF7
aa(lp590
g34
aF2
aa(lp591
g36
aI1
aa(lp592
g38
aI2
aa(lp593
g40
aI2
aa(lp594
g42
aF0
aa(lp595
g44
aF1068
aa(lp596
g46
ag47
aa(lp597
g49
ag47
aa(lp598
g51
a(lp599
S'pcmanticore'
p600
aaatRp601
ag2
((lp602
(lp603
g5
aI22
aa(lp604
g7
ag8
(S'\x07\xe0\x07\x17\x00\x00\x00\x00\x00\x00'
tRp605
aa(lp606
g11
ag8
(S'\x07\xe0\x07\x17\x00\x00\x00\x00\x00\x00'
tRp607
aa(lp608
g14
aI1
aa(lp609
g16
aI5
aa(lp610
g18
aI2
aa(lp611
g20
aI1
aa(lp612
g22
aI4
aa(lp613
g24
aI4
aa(lp614
g26
aI1
aa(lp615
g28
aF3.6052777777777778
aa(lp616
g30
aF0.33333333333333331
aa(lp617
g32
aF1.3333333333333333
aa(lp618
g34
aF1.6666666666666667
aa(lp619
g36
aI3
aa(lp620
g38
aI3
aa(lp621
g40
aI3
aa(lp622
g42
aF0
aa(lp623
g44
aF728.5
aa(lp624
g46
aF1
aa(lp625
g49
aF1
aa(lp626
g51
ag107
((lp627
S'pcmanticore'
p628
aS'the-compiler'
p629
aS'rogalski'
p630
atRp631
aatRp632
ag2
((lp633
(lp634
g5
aI23
aa(lp635
g7
ag8
(S'\x07\xe0\x08\x14\x00\x00\x00\x00\x00\x00'
tRp636
aa(lp637
g11
ag8
(S'\x07\xe0\x08\x18\x00\x00\x00\x00\x00\x00'
tRp638
aa(lp639
g14
aI5
aa(lp640
g16
aI55
aa(lp641
g18
aI31
aa(lp642
g20
aI2
aa(lp643
g22
aI4
aa(lp644
g24
aI4
aa(lp645
g26
aI2
aa(lp646
g28
aF46.874583333333334
aa(lp647
g30
aF0.66666666666666663
aa(lp648
g32
aF1.3333333333333333
aa(lp649
g34
aF13.75
aa(lp650
g36
aI3
aa(lp651
g38
aI4
aa(lp652
g40
aI4
aa(lp653
g42
aF0
aa(lp654
g44
aF535
aa(lp655
g46
aF1
aa(lp656
g49
aF1
aa(lp657
g51
ag107
((lp658
S'pcmanticore'
p659
aS'moylop260'
p660
aS'the-compiler'
p661
atRp662
aatRp663
ag2
((lp664
(lp665
g5
aI24
aa(lp666
g7
ag8
(S'\x07\xe0\x0c\x1d\x00\x00\x00\x00\x00\x00'
tRp667
aa(lp668
g11
ag8
(S'\x07\xe1\x01\x04\x00\x00\x00\x00\x00\x00'
tRp669
aa(lp670
g14
aI7
aa(lp671
g16
aI26
aa(lp672
g18
aI6
aa(lp673
g20
aI1
aa(lp674
g22
aI4
aa(lp675
g24
aI3
aa(lp676
g26
aI2
aa(lp677
g28
aF27.920277777777777
aa(lp678
g30
aF0.5
aa(lp679
g32
aF1
aa(lp680
g34
aF5.2000000000000002
aa(lp681
g36
aI4
aa(lp682
g38
aI5
aa(lp683
g40
aI5
aa(lp684
g42
aF0.083333333333333329
aa(lp685
g44
aF485.66666666666669
aa(lp686
g46
aF1
aa(lp687
g49
aF0.5
aa(lp688
g51
ag107
((lp689
S'david@dropbox.com'
p690
aS'degustaf'
p691
aS'pcmanticore'
p692
aS'rogalski'
p693
atRp694
aatRp695
ag2
((lp696
(lp697
g5
aI25
aa(lp698
g7
ag8
(S'\x07\xe1\x01\x19\x00\x00\x00\x00\x00\x00'
tRp699
aa(lp700
g11
ag8
(S'\x07\xe1\x01\x1e\x00\x00\x00\x00\x00\x00'
tRp701
aa(lp702
g14
aI6
aa(lp703
g16
aI45
aa(lp704
g18
aI12
aa(lp705
g20
aI1
aa(lp706
g22
aI9
aa(lp707
g24
aI7
aa(lp708
g26
aI3
aa(lp709
g28
aF73.288611111111109
aa(lp710
g30
aF0.59999999999999998
aa(lp711
g32
aF1.8
aa(lp712
g34
aF6.4285714285714288
aa(lp713
g36
aI5
aa(lp714
g38
aI7
aa(lp715
g40
aI7
aa(lp716
g42
aF0.11666666666666667
aa(lp717
g44
aF312
aa(lp718
g46
aF1
aa(lp719
g49
aF0.80000000000000004
aa(lp720
g51
ag107
((lp721
S'david@dropbox.com'
p722
aS'degustaf'
p723
aS'pcmanticore'
p724
aS'rr-'
p725
aS'rogalski'
p726
atRp727
aatRp728
ag2
((lp729
(lp730
g5
aI26
aa(lp731
g7
ag8
(S'\x07\xe1\x02\x05\x00\x00\x00\x00\x00\x00'
tRp732
aa(lp733
g11
ag8
(S'\x07\xe1\x02\t\x00\x00\x00\x00\x00\x00'
tRp734
aa(lp735
g14
aI5
aa(lp736
g16
aI75
aa(lp737
g18
aI5
aa(lp738
g20
aI1
aa(lp739
g22
aI10
aa(lp740
g24
aI7
aa(lp741
g26
aI7
aa(lp742
g28
aF49.273769841269832
aa(lp743
g30
aF2.3333333333333335
aa(lp744
g32
aF3.3333333333333335
aa(lp745
g34
aF15
aa(lp746
g36
aI3
aa(lp747
g38
aI5
aa(lp748
g40
aI5
aa(lp749
g42
aF0.066666666666666666
aa(lp750
g44
aF133.66666666666666
aa(lp751
g46
aF1
aa(lp752
g49
aF0.33333333333333331
aa(lp753
g51
ag107
((lp754
S'rr-'
p755
aS'royw'
p756
aS'rogalski'
p757
atRp758
aatRp759
ag2
((lp760
(lp761
g5
aI27
aa(lp762
g7
ag8
(S'\x07\xe1\x02\x1c\x00\x00\x00\x00\x00\x00'
tRp763
aa(lp764
g11
ag8
(S'\x07\xe1\x03\x01\x00\x00\x00\x00\x00\x00'
tRp765
aa(lp766
g14
aI2
aa(lp767
g16
aI20
aa(lp768
g18
aI11
aa(lp769
g20
aI1
aa(lp770
g22
aI7
aa(lp771
g24
aI3
aa(lp772
g26
aI6
aa(lp773
g28
aF29.767407407407408
aa(lp774
g30
aF1.2
aa(lp775
g32
aF1.3999999999999999
aa(lp776
g34
aF2.5
aa(lp777
g36
aI5
aa(lp778
g38
aI8
aa(lp779
g40
aI8
aa(lp780
g42
aF0.054545454545454543
aa(lp781
g44
aF329
aa(lp782
g46
aF1
aa(lp783
g49
aF1
aa(lp784
g51
ag107
((lp785
S'david@dropbox.com'
p786
aS'euresti'
p787
aS'pcmanticore'
p788
aS'rogalski'
p789
aS'asottile'
p790
atRp791
aatRp792
ag2
((lp793
(lp794
g5
aI28
aa(lp795
g7
ag8
(S'\x07\xe1\x03\x08\x00\x00\x00\x00\x00\x00'
tRp796
aa(lp797
g11
ag8
(S'\x07\xe1\x03\x08\x00\x00\x00\x00\x00\x00'
tRp798
aa(lp799
g14
aI1
aa(lp800
g16
aI9
aa(lp801
g18
aI2
aa(lp802
g20
aI1
aa(lp803
g22
aI3
aa(lp804
g24
aI3
aa(lp805
g26
aI0
aa(lp806
g28
aF0
aa(lp807
g30
aF0
aa(lp808
g32
aF1.5
aa(lp809
g34
aF1.8
aa(lp810
g36
aI2
aa(lp811
g38
aI5
aa(lp812
g40
aI5
aa(lp813
g42
aF6
aa(lp814
g44
aF608
aa(lp815
g46
aF1
aa(lp816
g49
aF1
aa(lp817
g51
ag107
((lp818
S'ceridwen'
p819
aS'cpennington'
p820
atRp821
aatRp822
ag2
((lp823
(lp824
g5
aI29
aa(lp825
g7
ag8
(S'\x07\xe1\x03\r\x00\x00\x00\x00\x00\x00'
tRp826
aa(lp827
g11
ag8
(S'\x07\xe1\x03\r\x00\x00\x00\x00\x00\x00'
tRp828
aa(lp829
g14
aI1
aa(lp830
g16
aI3
aa(lp831
g18
aI2
aa(lp832
g20
aI1
aa(lp833
g22
aI2
aa(lp834
g24
aI1
aa(lp835
g26
aI2
aa(lp836
g28
aF10.556944444444444
aa(lp837
g30
aF1
aa(lp838
g32
aF1
aa(lp839
g34
aF1
aa(lp840
g36
aI2
aa(lp841
g38
aI3
aa(lp842
g40
aI3
aa(lp843
g42
aF0
aa(lp844
g44
aF665.5
aa(lp845
g46
aF0
aa(lp846
g49
aF0
aa(lp847
g51
ag107
((lp848
S'cpennington'
p849
aS'pcmanticore'
p850
atRp851
aatRp852
ag2
((lp853
(lp854
g5
aI30
aa(lp855
g7
ag8
(S'\x07\xe1\x04\x02\x00\x00\x00\x00\x00\x00'
tRp856
aa(lp857
g11
ag8
(S'\x07\xe1\x04\x02\x00\x00\x00\x00\x00\x00'
tRp858
aa(lp859
g14
aI1
aa(lp860
g16
aI10
aa(lp861
g18
aI9
aa(lp862
g20
aI1
aa(lp863
g22
aI5
aa(lp864
g24
aI0
aa(lp865
g26
aI5
aa(lp866
g28
aF14.572444444444447
aa(lp867
g30
aF5
aa(lp868
g32
aF5
aa(lp869
g34
aF3.3333333333333335
aa(lp870
g36
aI1
aa(lp871
g38
aI3
aa(lp872
g40
aI3
aa(lp873
g42
aF0
aa(lp874
g44
aF252
aa(lp875
g46
ag47
aa(lp876
g49
ag47
aa(lp877
g51
a(lp878
S'rogalski'
p879
aaatRp880
ag2
((lp881
(lp882
g5
aI31
aa(lp883
g7
ag8
(S'\x07\xe1\x05\x16\x00\x00\x00\x00\x00\x00'
tRp884
aa(lp885
g11
ag8
(S'\x07\xe1\x05\x16\x00\x00\x00\x00\x00\x00'
tRp886
aa(lp887
g14
aI1
aa(lp888
g16
aI4
aa(lp889
g18
aI4
aa(lp890
g20
aI1
aa(lp891
g22
aI6
aa(lp892
g24
aI1
aa(lp893
g26
aI5
aa(lp894
g28
aF12.948555555555554
aa(lp895
g30
aF2.5
aa(lp896
g32
aF3
aa(lp897
g34
aF2
aa(lp898
g36
aI2
aa(lp899
g38
aI2
aa(lp900
g40
aI2
aa(lp901
g42
aF0.125
aa(lp902
g44
aF849.5
aa(lp903
g46
aF1
aa(lp904
g49
aF1
aa(lp905
g51
ag107
((lp906
S'pcmanticore'
p907
aS'rogalski'
p908
atRp909
aatRp910
ag2
((lp911
(lp912
g5
aI32
aa(lp913
g7
ag8
(S'\x07\xe1\x06\x03\x00\x00\x00\x00\x00\x00'
tRp914
aa(lp915
g11
ag8
(S'\x07\xe1\x06\x03\x00\x00\x00\x00\x00\x00'
tRp916
aa(lp917
g14
aI1
aa(lp918
g16
aI2
aa(lp919
g18
aI1
aa(lp920
g20
aI1
aa(lp921
g22
aI2
aa(lp922
g24
aI1
aa(lp923
g26
aI1
aa(lp924
g28
aF13.735277777777778
aa(lp925
g30
aF1
aa(lp926
g32
aF2
aa(lp927
g34
aF1
aa(lp928
g36
aI1
aa(lp929
g38
aI2
aa(lp930
g40
aI2
aa(lp931
g42
aF0
aa(lp932
g44
aF1409
aa(lp933
g46
ag47
aa(lp934
g49
ag47
aa(lp935
g51
a(lp936
S'pcmanticore'
p937
aaatRp938
ag2
((lp939
(lp940
g5
aI33
aa(lp941
g7
ag8
(S'\x07\xe1\n\x0c\x00\x00\x00\x00\x00\x00'
tRp942
aa(lp943
g11
ag8
(S'\x07\xe1\n\x0c\x00\x00\x00\x00\x00\x00'
tRp944
aa(lp945
g14
aI1
aa(lp946
g16
aI10
aa(lp947
g18
aI19
aa(lp948
g20
aI1
aa(lp949
g22
aI4
aa(lp950
g24
aI3
aa(lp951
g26
aI4
aa(lp952
g28
aF3.0338888888888889
aa(lp953
g30
aF2
aa(lp954
g32
aF2
aa(lp955
g34
aF3.3333333333333335
aa(lp956
g36
aI2
aa(lp957
g38
aI3
aa(lp958
g40
aI3
aa(lp959
g42
aF0
aa(lp960
g44
aF1540
aa(lp961
g46
aF1
aa(lp962
g49
aF1
aa(lp963
g51
ag107
((lp964
S'pcmanticore'
p965
aS'hugovk'
p966
atRp967
aatRp968
ag2
((lp969
(lp970
g5
aI34
aa(lp971
g7
ag8
(S'\x07\xe1\x0b\x02\x00\x00\x00\x00\x00\x00'
tRp972
aa(lp973
g11
ag8
(S'\x07\xe1\x0b\x03\x00\x00\x00\x00\x00\x00'
tRp974
aa(lp975
g14
aI2
aa(lp976
g16
aI11
aa(lp977
g18
aI3
aa(lp978
g20
aI2
aa(lp979
g22
aI2
aa(lp980
g24
aI1
aa(lp981
g26
aI1
aa(lp982
g28
aF12.879166666666666
aa(lp983
g30
aF0.25
aa(lp984
g32
aF0.5
aa(lp985
g34
aF2.75
aa(lp986
g36
aI4
aa(lp987
g38
aI2
aa(lp988
g40
aI4
aa(lp989
g42
aF0
aa(lp990
g44
aF531
aa(lp991
g46
aF0
aa(lp992
g49
aF0
aa(lp993
g51
ag107
((lp994
S'hippo91'
p995
aS'pcmanticore'
p996
aS'rogalski'
p997
aS'mathieui'
p998
atRp999
aatRp1000
ag2
((lp1001
(lp1002
g5
aI35
aa(lp1003
g7
ag8
(S'\x07\xe1\x0b\x0b\x00\x00\x00\x00\x00\x00'
tRp1004
aa(lp1005
g11
ag8
(S'\x07\xe1\x0b\x0b\x00\x00\x00\x00\x00\x00'
tRp1006
aa(lp1007
g14
aI1
aa(lp1008
g16
aI7
aa(lp1009
g18
aI5
aa(lp1010
g20
aI1
aa(lp1011
g22
aI1
aa(lp1012
g24
aI0
aa(lp1013
g26
aI1
aa(lp1014
g28
aF11.657222222222222
aa(lp1015
g30
aF1
aa(lp1016
g32
aF1
aa(lp1017
g34
aF3.5
aa(lp1018
g36
aI1
aa(lp1019
g38
aI2
aa(lp1020
g40
aI2
aa(lp1021
g42
aF0
aa(lp1022
g44
aF1570
aa(lp1023
g46
ag47
aa(lp1024
g49
ag47
aa(lp1025
g51
a(lp1026
S'pcmanticore'
p1027
aaatRp1028
ag2
((lp1029
(lp1030
g5
aI36
aa(lp1031
g7
ag8
(S'\x07\xe1\x0c\x0b\x00\x00\x00\x00\x00\x00'
tRp1032
aa(lp1033
g11
ag8
(S'\x07\xe1\x0c\x0b\x00\x00\x00\x00\x00\x00'
tRp1034
aa(lp1035
g14
aI1
aa(lp1036
g16
aI2
aa(lp1037
g18
aI2
aa(lp1038
g20
aI1
aa(lp1039
g22
aI2
aa(lp1040
g24
aI1
aa(lp1041
g26
aI1
aa(lp1042
g28
aF9.3436111111111106
aa(lp1043
g30
aF1
aa(lp1044
g32
aF2
aa(lp1045
g34
aF0.5
aa(lp1046
g36
aI1
aa(lp1047
g38
aI3
aa(lp1048
g40
aI4
aa(lp1049
g42
aF0
aa(lp1050
g44
aF59
aa(lp1051
g46
ag47
aa(lp1052
g49
ag47
aa(lp1053
g51
a(lp1054
S'hugovk'
p1055
aaatRp1056
ag2
((lp1057
(lp1058
g5
aI37
aa(lp1059
g7
ag8
(S'\x07\xe1\x0c\x0f\x00\x00\x00\x00\x00\x00'
tRp1060
aa(lp1061
g11
ag8
(S'\x07\xe1\x0c\x0f\x00\x00\x00\x00\x00\x00'
tRp1062
aa(lp1063
g14
aI1
aa(lp1064
g16
aI9
aa(lp1065
g18
aI9
aa(lp1066
g20
aI1
aa(lp1067
g22
aI5
aa(lp1068
g24
aI1
aa(lp1069
g26
aI5
aa(lp1070
g28
aF7.2332777777777775
aa(lp1071
g30
aF5
aa(lp1072
g32
aF5
aa(lp1073
g34
aF3
aa(lp1074
g36
aI1
aa(lp1075
g38
aI3
aa(lp1076
g40
aI3
aa(lp1077
g42
aF0
aa(lp1078
g44
aF1604
aa(lp1079
g46
ag47
aa(lp1080
g49
ag47
aa(lp1081
g51
a(lp1082
S'pcmanticore'
p1083
aaatRp1084
ag2
((lp1085
(lp1086
g5
aI38
aa(lp1087
g7
ag8
(S'\x07\xe1\x0c\x1b\x00\x00\x00\x00\x00\x00'
tRp1088
aa(lp1089
g11
ag8
(S'\x07\xe1\x0c\x1c\x00\x00\x00\x00\x00\x00'
tRp1090
aa(lp1091
g14
aI2
aa(lp1092
g16
aI3
aa(lp1093
g18
aI5
aa(lp1094
g20
aI1
aa(lp1095
g22
aI3
aa(lp1096
g24
aI2
aa(lp1097
g26
aI1
aa(lp1098
g28
aF13.929444444444444
aa(lp1099
g30
aF0.5
aa(lp1100
g32
aF1.5
aa(lp1101
g34
aF1.5
aa(lp1102
g36
aI2
aa(lp1103
g38
aI2
aa(lp1104
g40
aI2
aa(lp1105
g42
aF0
aa(lp1106
g44
aF837.5
aa(lp1107
g46
aF1
aa(lp1108
g49
aF1
aa(lp1109
g51
ag107
((lp1110
S'brycepg'
p1111
aS'pcmanticore'
p1112
atRp1113
aatRp1114
a.