ccollections
defaultdict
p1
(c__main__
dd
p2
tRp3
S'tailhook'
p4
g1
(c__builtin__
int
p5
tRp6
S'aioredis/commands/transaction.py'
p7
I1
sS'aioredis/commands/__init__.py'
p8
I2
sS'tests/pool_test.py'
p9
I1
sS'tests/multi_exec_test.py'
p10
I1
sS'docs/api_reference.rst'
p11
I1
sS'tests/reconnect_test.py'
p12
I2
sS'aioredis/__init__.py'
p13
I1
sS'aioredis/connection.py'
p14
I1
sS'tests/string_commands_test.py'
p15
I1
ssS'moserware'
p16
g1
(g5
tRp17
S'docs/api_reference.rst'
p18
I1
sS'aioredis/connection.py'
p19
I2
sS'aioredis/commands/__init__.py'
p20
I1
sS'aioredis/pool.py'
p21
I1
ssS'ins1ne'
p22
g1
(g5
tRp23
S'aioredis/util.py'
p24
I1
sS'aioredis/commands/sorted_set.py'
p25
I1
sS'.gitignore'
p26
I1
sS'tests/generic_commands_test.py'
p27
I1
ssS'jettify'
p28
g1
(g5
tRp29
S'tests/pool_test.py'
p30
I1
sS'tests/list_commands_test.py'
p31
I8
sS'aioredis/sentinel.py'
p32
I2
sS'aioredis/commands/scripting.py'
p33
I2
sS'aioredis/commands/string.py'
p34
I2
sS'aioredis/commands/list.py'
p35
I4
sS'tests/string_commands_test.py'
p36
I4
sS'tests/sentinel_test.py'
p37
I2
sS'aioredis/commands/sorted_set.py'
p38
I12
sS'.gitignore'
p39
I1
sS'aioredis/commands/hyperloglog.py'
p40
I4
sS'tests/hash_commands_test.py'
p41
I1
sS'aioredis/commands/hash.py'
p42
I1
sS'aioredis/commands/__init__.py'
p43
I5
sS'tests/hyperloglog_commands_test.py'
p44
I7
sS'tests/set_commands_test.py'
p45
I2
sS'tests/sentinel_pubsub_commands_test.py'
p46
I1
sS'tests/scripting_commands_test.py'
p47
I3
sS'tests/generic_commands_test.py'
p48
I3
sS'tests/connection_commands_test.py'
p49
I1
sS'tests/sorted_set_commands_test.py'
p50
I9
sS'aioredis/util.py'
p51
I2
sS'aioredis/commands/sentinel.py'
p52
I1
sS'.travis.yml'
p53
I1
sS'tests/connection_test.py'
p54
I1
sS'aioredis/commands/set.py'
p55
I1
ssS'iho'
p56
g1
(g5
tRp57
S'readme.rst'
p58
I1
ssS'shvechikov'
p59
g1
(g5
tRp60
S'changes.txt'
p61
I1
ssS'samuelcolvin'
p62
g1
(g5
tRp63
S'examples/python_3.5_pool.py'
p64
I1
sS'examples/python_3.5_iscan.py'
p65
I1
ssS'me@cynecx.net'
p66
g1
(g5
tRp67
S'tests/pool_test.py'
p68
I3
sS'aioredis/pool.py'
p69
I2
ssS'kxepal'
p70
g1
(g5
tRp71
S'tests/hyperloglog_commands_test.py'
p72
I1
sS'tests/set_commands_test.py'
p73
I1
sS'makefile'
p74
I1
sS'tests/sorted_set_commands_test.py'
p75
I1
sS'tests/generic_commands_test.py'
p76
I2
sS'.travis.yml'
p77
I2
sS'tests/hash_commands_test.py'
p78
I1
sS'tests/_testutil.py'
p79
I2
sS'tests/string_commands_test.py'
p80
I1
ssS'asvetlov'
p81
g1
(g5
tRp82
S'aioredis/commands/generic.py'
p83
I1
sS'aioredis/commands/hash.py'
p84
I1
sS'tests/pool_test.py'
p85
I3
sS'docs/conf.py'
p86
I1
sS'license'
p87
I1
sS'tests/set_commands_test.py'
p88
I1
sS'tests/generic_commands_test.py'
p89
I1
sS'docs/api_reference.rst'
p90
I1
sS'aioredis/pool.py'
p91
I5
sS'aioredis/commands/sorted_set.py'
p92
I1
sS'aioredis/util.py'
p93
I1
sS'aioredis/connection.py'
p94
I1
sS'readme.rst'
p95
I1
sS'changes.txt'
p96
I2
sS'.travis.yml'
p97
I3
sS'tests/hash_commands_test.py'
p98
I1
sS'tests/sorted_set_commands_test.py'
p99
I1
sS'aioredis/commands/set.py'
p100
I1
ssS'rutsky'
p101
g1
(g5
tRp102
S'aioredis/pool.py'
p103
I1
ssS'aamalev'
p104
g1
(g5
tRp105
S'aioredis/commands/hash.py'
p106
I1
sS'aioredis/util.py'
p107
I1
sS'tests/hash_commands_test.py'
p108
I1
ssS'krkd'
p109
g1
(g5
tRp110
S'aioredis/pool.py'
p111
I1
ssS'ciscorn'
p112
g1
(g5
tRp113
S'aioredis/util.py'
p114
I1
sS'aioredis/connection.py'
p115
I1
ssS'jamim'
p116
g1
(g5
tRp117
S'aioredis/pool.py'
p118
I1
ssS'polyn0m'
p119
g1
(g5
tRp120
S'aioredis/util.py'
p121
I1
sS'aioredis/commands/__init__.py'
p122
I1
sS'aioredis/commands/geo.py'
p123
I1
sS'tests/geo_commands_test.py'
p124
I1
ssS'popravich'
p125
g1
(g5
tRp126
S'aioredis/errors.py'
p127
I14
sS'aioredis/commands/sorted_set.py'
p128
I25
sS'aioredis/sentinel/__init__.py'
p129
I3
sS'docs/mpsc.rst'
p130
I2
sS'aioredis/pool.py'
p131
I51
sS'.pyup.yml'
p132
I1
sS'aioredis/log.py'
p133
I6
sS'examples/py34/pubsub.py'
p134
I2
sS'docs/devel.rst'
p135
I6
sS'.gitignore'
p136
I4
sS'tests/channel_test.py'
p137
I2
sS'tests/coerced_keys_dict_test.py'
p138
I3
sS'changes.txt'
p139
I31
sS'setup.py'
p140
I7
sS'aioredis/commands/hash.py'
p141
I24
sS'aioredis/sentinel/parser.py'
p142
I2
sS'tests/set_commands_test.py'
p143
I10
sS'examples/py34/pubsub2.py'
p144
I2
sS'examples/py34/pool_pubsub.py'
p145
I4
sS'examples/transaction2.py'
p146
I4
sS'docs/spelling_wordlist.txt'
p147
I12
sS'examples/iscan.py'
p148
I2
sS'docs/requirements.txt'
p149
I4
sS'tests/pubsub_receiver_test.py'
p150
I4
sS'aioredis/__init__.py'
p151
I46
sS'examples/connection.py'
p152
I6
sS'examples/py34/transaction.py'
p153
I2
sS'readme.rst'
p154
I25
sS'aioredis/commands/server.py'
p155
I24
sS'.travis.yml'
p156
I62
sS'docs/start.rst'
p157
I21
sS'tests/geo_commands_test.py'
p158
I2
sS'tests/multi_exec_test.py'
p159
I12
sS'tests/requirements.txt'
p160
I7
sS'examples/pool.py'
p161
I10
sS'tests/list_commands_test.py'
p162
I13
sS'aioredis/commands/set.py'
p163
I13
sS'aioredis/commands/string.py'
p164
I21
sS'aioredis/commands/list.py'
p165
I11
sS'tests/__init__.py'
p166
I2
sS'docs/glossary.rst'
p167
I5
sS'tests/_testutil.py'
p168
I16
sS'license'
p169
I2
sS'aioredis/protocol.py'
p170
I3
sS'docs/conf.py'
p171
I26
sS'docs/sentinel.rst'
p172
I2
sS'examples/python_3.5_pool.py'
p173
I7
sS'aioredis/commands/hyperloglog.py'
p174
I9
sS'aioredis/commands/keys.py'
p175
I2
sS'examples/py34/commands.py'
p176
I2
sS'tests/server_commands_test.py'
p177
I15
sS'aioredis/commands/__init__.py'
p178
I47
sS'tests/ssl_test.py'
p179
I6
sS'tests/protocol_test.py'
p180
I5
sS'tests/sentinel_pubsub_commands_test.py'
p181
I5
sS'runtests.py'
p182
I5
sS'tests/scripting_commands_test.py'
p183
I9
sS'examples/pipeline.py'
p184
I5
sS'tests/py35_generic_commands_test.py'
p185
I1
sS'tests/py35_pool_test.py'
p186
I4
sS'examples/pubsub.py'
p187
I7
sS'.appveyor.yml'
p188
I4
sS'tests/py35_set_commands_test.py'
p189
I1
sS'aioredis/sentinel/sentinel_old.py'
p190
I2
sS'history.rst'
p191
I1
sS'examples/transaction.py'
p192
I13
sS'.bumpversion.cfg'
p193
I10
sS'examples/sentinel.py'
p194
I2
sS'docs/abc.rst'
p195
I1
sS'aioredis/abc.py'
p196
I4
sS'tests/encode_command_test.py'
p197
I3
sS'aioredis/pubsub.py'
p198
I12
sS'examples/pubsub2.py'
p199
I5
sS'contributors.txt'
p200
I8
sS'aioredis/sentinel/commands.py'
p201
I5
sS'aioredis/commands/geo.py'
p202
I5
sS'tests/sentinel2_test.py'
p203
I3
sS'tests/string_commands_test.py'
p204
I28
sS'docs/releases.rst'
p205
I2
sS'examples/pool_pubsub.py'
p206
I8
sS'docs/api_reference.rst'
p207
I44
sS'makefile'
p208
I34
sS'aioredis/commands/scripting.py'
p209
I9
sS'aioredis/sentinel/pool.py'
p210
I4
sS'examples/commands.py'
p211
I5
sS'tests/hash_commands_test.py'
p212
I16
sS'examples/py34/transaction2.py'
p213
I2
sS'examples/py34/pipeline.py'
p214
I2
sS'tests/hyperloglog_commands_test.py'
p215
I6
sS'aioredis/_testutil.py'
p216
I5
sS'tests/task_cancellation_test.py'
p217
I7
sS'tests/connection_commands_test.py'
p218
I21
sS'tests/pubsub_listener_test.py'
p219
I8
sS'tests/py35_sorted_set_commands_test.py'
p220
I1
sS'setup.cfg'
p221
I3
sS'aioredis/commands/transaction.py'
p222
I45
sS'aioredis/commands/cluster.py'
p223
I5
sS'examples/py34/connection.py'
p224
I2
sS'tests/py35_hash_commands_test.py'
p225
I1
sS'examples/pool2.py'
p226
I4
sS'tests/connection_test.py'
p227
I52
sS'aioredis/commands/pubsub.py'
p228
I13
sS'tests/pubsub_commands_test.py'
p229
I16
sS'tests/pool_test.py'
p230
I38
sS'examples/py34/pool.py'
p231
I6
sS'tests/py35_pubsub_receiver_test.py'
p232
I1
sS'tests/reconnect_test.py'
p233
I9
sS'aioredis/sentinel.py'
p234
I1
sS'tests/conftest.py'
p235
I28
sS'readme.md'
p236
I2
sS'docs/mixins.rst'
p237
I26
sS'tests/sentinel_test.py'
p238
I8
sS'aioredis/connection.py'
p239
I103
sS'tests/py35_pubsub_commands_test.py'
p240
I2
sS'docs/examples.rst'
p241
I12
sS'examples/python_3.5_iscan.py'
p242
I5
sS'docs/makefile'
p243
I3
sS'examples/py34/scan.py'
p244
I2
sS'manifest.in'
p245
I3
sS'tests/sentinel_commands_test.py'
p246
I4
sS'aioredis/commands/sentinel.py'
p247
I3
sS'tests/generic_commands_test.py'
p248
I33
sS'tests/sorted_set_commands_test.py'
p249
I15
sS'aioredis/commands/generic.py'
p250
I35
sS'docs/_templates/layout.html'
p251
I1
sS'aioredis/util.py'
p252
I43
sS'tests/sentinel_failover_test.py'
p253
I4
sS'tests/transaction_commands_test.py'
p254
I24
sS'examples/scan.py'
p255
I7
sS'docs/index.rst'
p256
I19
ssS'pyup-bot'
p257
g1
(g5
tRp258
S'tests/requirements.txt'
p259
I13
sS'docs/requirements.txt'
p260
I2
ssS'the-panda'
p261
g1
(g5
tRp262
S'aioredis/util.py'
p263
I2
sS'aioredis/connection.py'
p264
I1
sS'tests/connection_test.py'
p265
I2
sS'aioredis/pubsub.py'
p266
I2
ssS'kernel0'
p267
g1
(g5
tRp268
S'tests/pool_test.py'
p269
I1
sS'tests/string_commands_test.py'
p270
I1
sS'aioredis/commands/sorted_set.py'
p271
I1
sS'aioredis/util.py'
p272
I2
sS'aioredis/connection.py'
p273
I1
sS'tests/sorted_set_commands_test.py'
p274
I1
sS'tests/hash_commands_test.py'
p275
I1
sS'tests/_testutil.py'
p276
I1
ssS'hotsyk'
p277
g1
(g5
tRp278
S'tests/connection_commands_test.py'
p279
I1
sS'aioredis/connection.py'
p280
I1
sS'tests/connection_test.py'
p281
I2
sS'aioredis/errors.py'
p282
I1
sS'aioredis/__init__.py'
p283
I1
ssS'alefteris'
p284
g1
(g5
tRp285
S'aioredis/commands/server.py'
p286
I2
sS'tests/server_commands_test.py'
p287
I2
ssS'taras.voinarovskiy@levelupers.com'
p288
g1
(g5
tRp289
S'aioredis/commands/sorted_set.py'
p290
I1
sS'tests/sorted_set_commands_test.py'
p291
I1
ssS'marijngiesen'
p292
g1
(g5
tRp293
S'aioredis/commands/sorted_set.py'
p294
I2
sS'tests/sorted_set_commands_test.py'
p295
I3
ssS'bdrosen96'
p296
g1
(g5
tRp297
S'aioredis/commands/__init__.py'
p298
I1
sS'aioredis/errors.py'
p299
I1
sS'tests/sentinel_test.py'
p300
I3
sS'tests/sentinel_pubsub_commands_test.py'
p301
I1
sS'aioredis/__init__.py'
p302
I1
sS'aioredis/connection.py'
p303
I2
sS'aioredis/sentinel.py'
p304
I6
sS'aioredis/commands/server.py'
p305
I1
sS'aioredis/commands/sentinel.py'
p306
I2
ss.