ccollections
defaultdict
p1
(c__main__
dd
p2
tRp3
S'floppym'
p4
g1
(c__builtin__
int
p5
tRp6
S'setup.py'
p7
I1
sS'manifest.in'
p8
I1
ssS'synasius'
p9
g1
(g5
tRp10
S'oauthlib/oauth2/draft25/__init__.py'
p11
I1
sS'oauthlib/oauth2/draft25/grant_types.py'
p12
I1
sS'oauthlib/oauth2/draft25/errors.py'
p13
I1
ssS'ibl@localhost'
p14
g1
(g5
tRp15
S'oauthlib/oauth2/rfc6749/clients/service_application.py'
p16
I1
sS'oauthlib/oauth2/rfc6749/clients/backend_application.py'
p17
I1
sS'oauthlib/oauth2/__init__.py'
p18
I1
sS'oauthlib/oauth2/rfc6749/clients/web_application.py'
p19
I1
sS'oauthlib/oauth2/rfc6749/clients/legacy_application.py'
p20
I1
sS'oauthlib/oauth2/rfc6749/clients/__init__.py'
p21
I1
sS'tests/oauth2/rfc6749/clients/test_service_application.py'
p22
I1
sS'oauthlib/oauth2/rfc6749/clients/base.py'
p23
I1
ssS'whit537'
p24
g1
(g5
tRp25
S'oauthlib/oauth2/rfc6749/parameters.py'
p26
I3
sS'docs/oauth2/tokens/tokens.rst'
p27
I1
sS'tests/oauth2/rfc6749/test_parameters.py'
p28
I4
ssS'kevinv@aweber.com'
p29
g1
(g5
tRp30
S'tests/test_common.py'
p31
I1
sS'oauthlib/common.py'
p32
I1
ssS'aleksandr@butchershopcreative.com'
p33
g1
(g5
tRp34
S'oauthlib/oauth2/rfc6749/grant_types/client_credentials.py'
p35
I1
ssS'mistermocha'
p36
g1
(g5
tRp37
S'oauthlib/oauth1/rfc5849/__init__.py'
p38
I1
ssS'grunskis'
p39
g1
(g5
tRp40
S'docs/client.rst'
p41
I1
sS'docs/conf.py'
p42
I1
sS'docs/server.rst'
p43
I1
ssS'mikix'
p44
g1
(g5
tRp45
S'oauthlib/oauth1/rfc5849/utils.py'
p46
I2
sS'tests/oauth1/rfc5849/test_utils.py'
p47
I1
sS'oauthlib/common.py'
p48
I2
sS'oauthlib/oauth2/draft25/__init__.py'
p49
I1
sS'tests/test_common.py'
p50
I1
sS'oauthlib/oauth2/__init__.py'
p51
I1
sS'oauthlib/oauth1/__init__.py'
p52
I1
sS'tests/oauth1/rfc5849/test_signatures.py'
p53
I1
sS'tests/oauth2/draft25/test_utils.py'
p54
I1
sS'tests/oauth1/rfc5849/test_server.py'
p55
I1
sS'oauthlib/oauth2/draft25/utils.py'
p56
I2
sS'tests/oauth1/rfc5849/test_parameters.py'
p57
I1
sS'tests/oauth2/draft25/test_parameters.py'
p58
I1
sS'oauthlib/oauth1/rfc5849/signature.py'
p59
I2
sS'oauthlib/oauth1/rfc5849/__init__.py'
p60
I1
sS'tests/oauth2/draft25/test_client.py'
p61
I1
sS'setup.py'
p62
I2
sS'tests/oauth2/draft25/test_tokens.py'
p63
I1
sS'oauthlib/oauth2/draft25/parameters.py'
p64
I1
sS'oauthlib/oauth2/draft25/tokens.py'
p65
I1
sS'oauthlib/oauth1/rfc5849/parameters.py'
p66
I1
ssS'foxx'
p67
g1
(g5
tRp68
S'docs/oauth2/server.rst'
p69
I1
ssS'coolgoose'
p70
g1
(g5
tRp71
S'docs/oauth1/server.rst'
p72
I1
ssS'kumy'
p73
g1
(g5
tRp74
S'tests/test_common.py'
p75
I1
sS'oauthlib/common.py'
p76
I1
ssS'flippmoke'
p77
g1
(g5
tRp78
S'docs/server2.rst'
p79
I1
sS'oauthlib/oauth2/ext/django.py'
p80
I1
sS'authors'
p81
I1
sS'oauthlib/oauth2/ext/flask.py'
p82
I3
ssS'mitgr81'
p83
g1
(g5
tRp84
S'oauthlib/oauth1/rfc5849/__init__.py'
p85
I1
ssS'stephane'
p86
g1
(g5
tRp87
S'docs/server2.rst'
p88
I6
sS'docs/oauth2_overview.rst'
p89
I1
sS'examples/skeleton_oauth2_web_application_server.py'
p90
I2
sS'docs/client.rst'
p91
I1
sS'docs/tokens.rst'
p92
I1
sS'docs/oauth_1_versus_oauth_2.rst'
p93
I1
sS'docs/server.rst'
p94
I2
sS'docs/preconfigured_servers.rst'
p95
I1
sS'readme.rst'
p96
I1
sS'oauthlib/oauth2/draft25/grant_types.py'
p97
I2
sS'docs/endpoints.rst'
p98
I1
sS'docs/contributing.rst'
p99
I1
sS'docs/index.rst'
p100
I1
ssS'calebbrown'
p101
g1
(g5
tRp102
S'oauthlib/oauth1/rfc5849/utils.py'
p103
I2
sS'tests/oauth1/rfc5849/test_utils.py'
p104
I2
sS'oauthlib/oauth1/rfc5849/signature.py'
p105
I4
sS'oauthlib/oauth1/rfc5849/parameters.py'
p106
I2
sS'tests/oauth1/rfc5849/test_server.py'
p107
I5
sS'authors'
p108
I1
sS'oauthlib/oauth1/rfc5849/__init__.py'
p109
I5
ssS'russss'
p110
g1
(g5
tRp111
S'oauthlib/oauth1/rfc5849/__init__.py'
p112
I1
sS'tests/oauth1/rfc5849/test_server.py'
p113
I1
ssS'omerk@checkpoint.com'
p114
g1
(g5
tRp115
S'oauthlib/oauth2/rfc6749/grant_types/refresh_token.py'
p116
I1
sS'changelog.rst'
p117
I2
sS'oauthlib/oauth2/rfc6749/endpoints/base.py'
p118
I1
sS'oauthlib/oauth2/rfc6749/clients/backend_application.py'
p119
I1
sS'oauthlib/oauth2/rfc6749/tokens.py'
p120
I1
sS'oauthlib/oauth2/rfc6749/utils.py'
p121
I1
sS'tests/oauth2/rfc6749/endpoints/test_error_responses.py'
p122
I1
sS'tests/oauth1/rfc5849/endpoints/test_request_token.py'
p123
I1
sS'tests/oauth2/rfc6749/test_server.py'
p124
I1
sS'oauthlib/oauth1/rfc5849/endpoints/resource.py'
p125
I1
sS'oauthlib/oauth1/rfc5849/endpoints/authorization.py'
p126
I1
sS'oauthlib/uri_validate.py'
p127
I1
sS'tests/oauth2/rfc6749/clients/test_web_application.py'
p128
I1
sS'tests/oauth2/rfc6749/grant_types/test_resource_owner_password.py'
p129
I1
sS'tests/oauth2/rfc6749/grant_types/test_client_credentials.py'
p130
I1
sS'oauthlib/oauth1/rfc5849/request_validator.py'
p131
I1
sS'tests/oauth1/rfc5849/test_request_validator.py'
p132
I1
sS'oauthlib/oauth2/rfc6749/errors.py'
p133
I1
sS'tests/oauth2/rfc6749/endpoints/test_extra_credentials.py'
p134
I1
sS'oauthlib/oauth2/rfc6749/parameters.py'
p135
I1
sS'oauthlib/oauth2/rfc6749/grant_types/resource_owner_password_credentials.py'
p136
I1
sS'tests/oauth1/rfc5849/endpoints/test_access_token.py'
p137
I1
sS'docs/conf.py'
p138
I1
sS'oauthlib/oauth2/rfc6749/clients/mobile_application.py'
p139
I1
sS'tests/oauth2/rfc6749/test_parameters.py'
p140
I1
sS'oauthlib/oauth1/rfc5849/parameters.py'
p141
I1
sS'oauthlib/oauth1/rfc5849/errors.py'
p142
I1
sS'tests/oauth1/rfc5849/test_parameters.py'
p143
I1
sS'tests/oauth1/rfc5849/test_client.py'
p144
I1
sS'tests/oauth1/rfc5849/endpoints/test_base.py'
p145
I1
sS'oauthlib/oauth2/rfc6749/grant_types/authorization_code.py'
p146
I1
sS'oauthlib/oauth2/rfc6749/endpoints/authorization.py'
p147
I1
sS'tests/oauth2/rfc6749/grant_types/test_authorization_code.py'
p148
I1
sS'tests/oauth2/rfc6749/grant_types/test_openid_connect.py'
p149
I1
sS'oauthlib/oauth1/rfc5849/signature.py'
p150
I1
sS'tests/oauth2/rfc6749/endpoints/test_credentials_preservation.py'
p151
I1
sS'setup.py'
p152
I1
sS'oauthlib/oauth2/rfc6749/clients/base.py'
p153
I1
sS'oauthlib/oauth2/rfc6749/endpoints/revocation.py'
p154
I1
sS'oauthlib/oauth1/rfc5849/endpoints/base.py'
p155
I1
sS'oauthlib/oauth1/rfc5849/endpoints/access_token.py'
p156
I1
sS'oauthlib/oauth1/rfc5849/endpoints/request_token.py'
p157
I1
sS'tests/oauth2/rfc6749/test_utils.py'
p158
I1
sS'tests/oauth2/rfc6749/endpoints/test_revocation_endpoint.py'
p159
I1
sS'tests/oauth1/rfc5849/endpoints/test_signature_only.py'
p160
I1
sS'tests/test_common.py'
p161
I1
sS'oauthlib/oauth2/rfc6749/grant_types/base.py'
p162
I1
sS'oauthlib/oauth2/rfc6749/clients/legacy_application.py'
p163
I1
sS'oauthlib/oauth2/rfc6749/endpoints/pre_configured.py'
p164
I1
sS'oauthlib/oauth2/rfc6749/grant_types/openid_connect.py'
p165
I1
sS'tests/oauth2/rfc6749/endpoints/test_client_authentication.py'
p166
I1
sS'tests/oauth2/rfc6749/endpoints/test_base_endpoint.py'
p167
I1
sS'oauthlib/oauth2/rfc6749/grant_types/client_credentials.py'
p168
I1
sS'tests/oauth2/rfc6749/endpoints/test_resource_owner_association.py'
p169
I1
sS'oauthlib/oauth2/rfc6749/grant_types/implicit.py'
p170
I1
sS'tests/oauth2/rfc6749/endpoints/test_prompt_handling.py'
p171
I1
sS'tests/oauth2/rfc6749/clients/test_base.py'
p172
I1
sS'oauthlib/oauth2/rfc6749/endpoints/token.py'
p173
I1
sS'tests/oauth2/rfc6749/grant_types/test_refresh_token.py'
p174
I1
sS'tests/oauth1/rfc5849/endpoints/test_authorization.py'
p175
I1
sS'oauthlib/oauth1/rfc5849/utils.py'
p176
I1
sS'oauthlib/oauth2/rfc6749/clients/service_application.py'
p177
I1
sS'tests/oauth1/rfc5849/test_utils.py'
p178
I1
sS'oauthlib/oauth1/rfc5849/endpoints/pre_configured.py'
p179
I1
sS'oauthlib/oauth2/rfc6749/clients/web_application.py'
p180
I1
sS'oauthlib/oauth2/__init__.py'
p181
I1
sS'oauthlib/oauth1/rfc5849/endpoints/signature_only.py'
p182
I1
sS'tests/oauth1/rfc5849/test_signatures.py'
p183
I1
sS'tests/oauth2/rfc6749/endpoints/test_scope_handling.py'
p184
I1
sS'tests/oauth1/rfc5849/endpoints/test_resource.py'
p185
I1
sS'oauthlib/__init__.py'
p186
I2
sS'tests/oauth2/rfc6749/test_request_validator.py'
p187
I1
sS'tests/oauth2/rfc6749/grant_types/test_implicit.py'
p188
I1
sS'tests/oauth2/rfc6749/clients/test_backend_application.py'
p189
I1
sS'oauthlib/oauth2/rfc6749/request_validator.py'
p190
I1
sS'tests/oauth2/rfc6749/clients/test_service_application.py'
p191
I1
sS'tests/oauth2/rfc6749/test_tokens.py'
p192
I1
sS'tests/oauth2/rfc6749/endpoints/test_claims_handling.py'
p193
I1
ssS'r4fek'
p194
g1
(g5
tRp195
S'oauthlib/oauth2/rfc6749/grant_types/refresh_token.py'
p196
I1
sS'oauthlib/common.py'
p197
I1
ssS'dasevilla'
p198
g1
(g5
tRp199
S'docs/client.rst'
p200
I1
sS'docs/legacyapplicationclient.rst'
p201
I1
sS'docs/oauth2/grants/password.rst'
p202
I1
sS'oauthlib/oauth2/rfc6749/utils.py'
p203
I2
sS'docs/backendapplicationclient.rst'
p204
I1
sS'docs/client2.rst'
p205
I2
sS'docs/oauth2/server.rst'
p206
I1
sS'docs/authcode.rst'
p207
I1
sS'docs/endpoints.rst'
p208
I1
sS'docs/oauth2/clients/webapplicationclient.rst'
p209
I1
sS'docs/implicit.rst'
p210
I1
sS'docs/oauth2_overview.rst'
p211
I1
sS'docs/oauth2/overview.rst'
p212
I1
sS'docs/oauth2/clients/backendapplicationclient.rst'
p213
I1
sS'docs/oauth2/validator.rst'
p214
I1
sS'docs/oauth2/endpoints.rst'
p215
I1
sS'docs/server.rst'
p216
I1
sS'docs/baseclient.rst'
p217
I2
sS'docs/preconfigured_servers.rst'
p218
I1
sS'docs/oauth2/clients/legacyapplicationclient.rst'
p219
I1
sS'docs/oauth2/grants/credentials.rst'
p220
I1
sS'docs/validator.rst'
p221
I1
sS'tests/oauth2/rfc6749/test_utils.py'
p222
I1
sS'docs/oauth1/oauth1.rst'
p223
I1
sS'docs/oauth2/clients/mobileapplicationclient.rst'
p224
I1
sS'docs/server2.rst'
p225
I1
sS'oauthlib/oauth2/draft25/__init__.py'
p226
I2
sS'docs/oauth_1_versus_oauth_2.rst'
p227
I1
sS'docs/webapplicationclient.rst'
p228
I1
sS'docs/credentials.rst'
p229
I1
sS'docs/oauth1/client.rst'
p230
I1
sS'docs/mobileapplicationclient.rst'
p231
I1
sS'authors'
p232
I1
sS'docs/oauth2/clients/client.rst'
p233
I1
sS'docs/tokens.rst'
p234
I1
sS'docs/oauth2/tokens.rst'
p235
I1
sS'docs/oauth2/preconfigured_servers.rst'
p236
I1
sS'docs/oauth2/grants/authcode.rst'
p237
I1
sS'docs/oauth2/security.rst'
p238
I1
sS'docs/password.rst'
p239
I1
sS'docs/oauth2/clients/baseclient.rst'
p240
I1
sS'docs/oauth2/grants/implicit.rst'
p241
I1
sS'docs/oauth1/server.rst'
p242
I1
sS'docs/oauth2/oauth2.rst'
p243
I1
sS'docs/security.rst'
p244
I1
sS'docs/index.rst'
p245
I1
ssS'wannabehero'
p246
g1
(g5
tRp247
S'oauthlib/oauth1/rfc5849/__init__.py'
p248
I1
ssS'brettcannon'
p249
g1
(g5
tRp250
S'readme.rst'
p251
I1
ssS'svetlyak40wt'
p252
g1
(g5
tRp253
S'changelog.rst'
p254
I2
ssS'pydanny'
p255
g1
(g5
tRp256
S'docs/make.bat'
p257
I1
sS'docs/makefile'
p258
I1
sS'oauthlib/parameters.py'
p259
I1
sS'docs/client.rst'
p260
I1
sS'docs/conf.py'
p261
I1
sS'tests/parameters.py'
p262
I1
sS'oauthlib/utils.py'
p263
I1
sS'tests/test_signatures.py'
p264
I15
sS'.gitignore'
p265
I1
sS'docs/server.rst'
p266
I2
sS'tests/test_utils.py'
p267
I9
sS'oauthlib/oauth.py'
p268
I2
sS'tests/unittest/__init__.py'
p269
I1
sS'tests/__init__.py'
p270
I1
sS'docs/contributing.rst'
p271
I1
sS'oauthlib/signature.py'
p272
I3
sS'docs/index.rst'
p273
I4
ssS'thedrow'
p274
g1
(g5
tRp275
S'oauthlib/oauth2/rfc6749/grant_types/refresh_token.py'
p276
I3
sS'changelog.rst'
p277
I16
sS'docs/oauth2/server.rst'
p278
I3
sS'tests/oauth2/rfc6749/grant_types/test_refresh_token.py'
p279
I2
sS'oauthlib/oauth2/rfc6749/tokens.py'
p280
I5
sS'docs/feature_matrix.rst'
p281
I1
sS'oauthlib/oauth2/rfc6749/utils.py'
p282
I1
sS'tests/oauth2/rfc6749/endpoints/test_error_responses.py'
p283
I3
sS'tests/oauth2/rfc6749/test_server.py'
p284
I2
sS'oauthlib/oauth1/rfc5849/endpoints/resource.py'
p285
I1
sS'docs/oauth2/grants/grants.rst'
p286
I1
sS'tests/oauth2/rfc6749/test_utils.py'
p287
I1
sS'docs/oauth2/grants/credentials.rst'
p288
I1
sS'tests/oauth2/rfc6749/clients/test_web_application.py'
p289
I1
sS'tests/oauth2/rfc6749/grant_types/test_resource_owner_password.py'
p290
I2
sS'oauthlib/oauth1/rfc5849/__init__.py'
p291
I5
sS'oauthlib/oauth1/rfc5849/request_validator.py'
p292
I2
sS'oauthlib/oauth2/rfc6749/errors.py'
p293
I6
sS'requirements-test32.txt'
p294
I6
sS'tests/oauth2/rfc6749/endpoints/test_extra_credentials.py'
p295
I1
sS'tests/oauth2/rfc6749/endpoints/test_revocation_endpoint.py'
p296
I2
sS'tox.ini'
p297
I7
sS'oauthlib/oauth2/__init__.py'
p298
I1
sS'tests/oauth2/rfc6749/test_parameters.py'
p299
I1
sS'requirements.txt'
p300
I2
sS'oauthlib/oauth1/__init__.py'
p301
I1
sS'docs/oauth2/grants/password.rst'
p302
I1
sS'tests/oauth1/rfc5849/test_client.py'
p303
I2
sS'tests/oauth2/rfc6749/grant_types/test_client_credentials.py'
p304
I2
sS'oauthlib/oauth2/rfc6749/grant_types/authorization_code.py'
p305
I11
sS'oauthlib/oauth2/rfc6749/endpoints/authorization.py'
p306
I2
sS'tests/oauth2/rfc6749/grant_types/test_authorization_code.py'
p307
I5
sS'tests/oauth2/rfc6749/grant_types/test_openid_connect.py'
p308
I2
sS'oauthlib/oauth1/rfc5849/signature.py'
p309
I2
sS'tests/oauth2/rfc6749/endpoints/test_credentials_preservation.py'
p310
I1
sS'setup.py'
p311
I3
sS'oauthlib/oauth2/rfc6749/clients/base.py'
p312
I2
sS'oauthlib/oauth2/rfc6749/endpoints/revocation.py'
p313
I1
sS'oauthlib/oauth1/rfc5849/endpoints/base.py'
p314
I1
sS'oauthlib/oauth1/rfc5849/endpoints/access_token.py'
p315
I1
sS'oauthlib/oauth1/rfc5849/endpoints/request_token.py'
p316
I1
sS'examples/skeleton_oauth2_web_application_server.py'
p317
I1
sS'docs/oauth1/client.rst'
p318
I2
sS'tests/oauth2/rfc6749/endpoints/test_claims_handling.py'
p319
I1
sS'setup.cfg'
p320
I2
sS'oauthlib/common.py'
p321
I13
sS'oauthlib/oauth2/rfc6749/grant_types/base.py'
p322
I3
sS'tests/test_common.py'
p323
I5
sS'requirements-test.txt'
p324
I2
sS'oauthlib/oauth2/rfc6749/grant_types/resource_owner_password_credentials.py'
p325
I3
sS'manifest.in'
p326
I1
sS'oauthlib/oauth2/rfc6749/grant_types/client_credentials.py'
p327
I3
sS'docs/oauth2/oidc.rst'
p328
I1
sS'docs/oauth2/oidc/validator.rst'
p329
I1
sS'authors'
p330
I4
sS'docs/oauth2/grants/custom_validators.rst'
p331
I1
sS'oauthlib/oauth2/rfc6749/grant_types/implicit.py'
p332
I4
sS'docs/oauth2/oidc/id_tokens.rst'
p333
I1
sS'tests/oauth2/rfc6749/endpoints/test_prompt_handling.py'
p334
I3
sS'tests/oauth2/rfc6749/clients/test_base.py'
p335
I1
sS'tests/oauth2/rfc6749/endpoints/test_openid_connect_params_handling.py'
p336
I1
sS'oauthlib/oauth2/rfc6749/endpoints/token.py'
p337
I2
sS'oauthlib/oauth1/rfc5849/utils.py'
p338
I1
sS'oauthlib/__init__.py'
p339
I10
sS'tests/oauth2/rfc6749/grant_types/test_implicit.py'
p340
I2
sS'docs/oauth2/preconfigured_servers.rst'
p341
I1
sS'docs/oauth2/grants/authcode.rst'
p342
I1
sS'oauthlib/oauth1/rfc5849/endpoints/signature_only.py'
p343
I3
sS'tests/oauth1/rfc5849/test_signatures.py'
p344
I1
sS'tests/oauth2/rfc6749/endpoints/test_scope_handling.py'
p345
I1
sS'tests/oauth1/rfc5849/endpoints/test_resource.py'
p346
I1
sS'oauthlib/oauth2/rfc6749/clients/__init__.py'
p347
I1
sS'docs/oauth2/grants/implicit.rst'
p348
I1
sS'oauthlib/oauth2/rfc6749/grant_types/__init__.py'
p349
I1
sS'readme.rst'
p350
I3
sS'oauthlib/oauth2/rfc6749/request_validator.py'
p351
I3
sS'docs/oauth1/server.rst'
p352
I2
sS'oauthlib/oauth2/rfc6749/grant_types/openid_connect.py'
p353
I7
sS'.travis.yml'
p354
I14
sS'oauthlib/oauth2/rfc6749/endpoints/pre_configured.py'
p355
I2
sS'docs/index.rst'
p356
I1
ssS'greyli'
p357
g1
(g5
tRp358
S'oauthlib/oauth2/rfc6749/clients/base.py'
p359
I1
ssS'kroisse'
p360
g1
(g5
tRp361
S'tests/oauth2/draft25/test_client.py'
p362
I1
sS'examples/skeleton_oauth2_web_application_server.py'
p363
I1
ssS'rodneyrichardson'
p364
g1
(g5
tRp365
S'oauthlib/oauth2/rfc6749/grant_types/refresh_token.py'
p366
I1
sS'tests/oauth2/rfc6749/endpoints/test_revocation_endpoint.py'
p367
I1
sS'oauthlib/oauth2/rfc6749/grant_types/resource_owner_password_credentials.py'
p368
I1
sS'oauthlib/oauth2/rfc6749/grant_types/client_credentials.py'
p369
I1
sS'oauthlib/oauth2/rfc6749/grant_types/authorization_code.py'
p370
I1
sS'oauthlib/oauth2/rfc6749/grant_types/base.py'
p371
I1
sS'oauthlib/oauth2/rfc6749/grant_types/implicit.py'
p372
I1
sS'oauthlib/oauth2/rfc6749/endpoints/revocation.py'
p373
I1
sS'oauthlib/oauth2/rfc6749/errors.py'
p374
I1
ssS'joelstevenson'
p375
g1
(g5
tRp376
S'oauthlib/oauth2/rfc6749/grant_types/refresh_token.py'
p377
I2
sS'tests/oauth2/rfc6749/grant_types/test_refresh_token.py'
p378
I1
sS'oauthlib/oauth2/rfc6749/tokens.py'
p379
I2
sS'tests/oauth2/rfc6749/test_server.py'
p380
I4
sS'docs/oauth2/oidc/id_tokens.rst'
p381
I1
sS'tests/oauth2/rfc6749/grant_types/test_client_credentials.py'
p382
I1
sS'tests/oauth2/rfc6749/grant_types/test_resource_owner_password.py'
p383
I1
sS'tox.ini'
p384
I2
sS'oauthlib/oauth2/rfc6749/grant_types/authorization_code.py'
p385
I9
sS'oauthlib/oauth2/rfc6749/endpoints/authorization.py'
p386
I6
sS'tests/oauth2/rfc6749/grant_types/test_authorization_code.py'
p387
I2
sS'tests/oauth2/rfc6749/grant_types/test_openid_connect.py'
p388
I3
sS'oauthlib/oauth2/rfc6749/grant_types/base.py'
p389
I4
sS'tests/oauth2/rfc6749/endpoints/test_claims_handling.py'
p390
I1
sS'oauthlib/oauth2/rfc6749/endpoints/revocation.py'
p391
I2
sS'oauthlib/common.py'
p392
I2
sS'oauthlib/oauth2/rfc6749/grant_types/resource_owner_password_credentials.py'
p393
I2
sS'oauthlib/oauth2/rfc6749/grant_types/client_credentials.py'
p394
I2
sS'docs/oauth2/oidc.rst'
p395
I1
sS'docs/oauth2/oidc/validator.rst'
p396
I1
sS'authors'
p397
I1
sS'oauthlib/oauth2/rfc6749/grant_types/implicit.py'
p398
I5
sS'oauthlib/oauth2/rfc6749/endpoints/token.py'
p399
I3
sS'docs/feature_matrix.rst'
p400
I1
sS'tests/oauth2/rfc6749/endpoints/test_scope_handling.py'
p401
I1
sS'tests/oauth2/rfc6749/grant_types/test_implicit.py'
p402
I1
sS'oauthlib/oauth2/rfc6749/grant_types/__init__.py'
p403
I1
sS'oauthlib/oauth2/rfc6749/endpoints/resource.py'
p404
I3
sS'oauthlib/oauth2/rfc6749/request_validator.py'
p405
I5
sS'oauthlib/oauth2/rfc6749/grant_types/openid_connect.py'
p406
I9
sS'oauthlib/oauth2/rfc6749/endpoints/pre_configured.py'
p407
I4
sS'docs/index.rst'
p408
I1
ssS'andy-shea'
p409
g1
(g5
tRp410
S'oauthlib/oauth2/draft25/__init__.py'
p411
I2
sS'tests/oauth2/draft25/test_client.py'
p412
I1
ssS'swistakm'
p413
g1
(g5
tRp414
S'oauthlib/oauth1/rfc5849/request_validator.py'
p415
I3
ssS'djpnewton'
p416
g1
(g5
tRp417
S'oauthlib/common.py'
p418
I1
ssS'dgouldin'
p419
g1
(g5
tRp420
S'docs/client.rst'
p421
I1
sS'tests/test_parameters.py'
p422
I3
sS'oauthlib/oauth1/__init__.py'
p423
I1
sS'oauthlib/oauth.py'
p424
I11
sS'oauthlib/oauth1/rfc5849/__init__.py'
p425
I3
sS'oauthlib/parameters.py'
p426
I5
sS'oauthlib/oauth2/__init__.py'
p427
I2
sS'oauthlib/oauth1/rfc5849/parameters.py'
p428
I4
sS'tests/oauth1/rfc5849/test_parameters.py'
p429
I3
sS'oauthlib/oauth1/rfc5849/signature.py'
p430
I6
sS'tests/oauth2/__init__.py'
p431
I1
sS'tests/oauth2/draft25/__init__.py'
p432
I1
sS'oauthlib/common.py'
p433
I1
sS'oauthlib/oauth2/draft25/__init__.py'
p434
I2
sS'tests/test_common.py'
p435
I1
sS'tests/test_signatures.py'
p436
I5
sS'tests/oauth2_draft25/__init__.py'
p437
I2
sS'tests/oauth2/draft25/test_server.py'
p438
I1
sS'tests/test_utils.py'
p439
I2
sS'oauthlib/oauth2_draft25/__init__.py'
p440
I2
sS'oauthlib/signature.py'
p441
I13
sS'oauthlib/oauth2/draft25/exceptions.py'
p442
I1
sS'tests/oauth1/__init__.py'
p443
I1
sS'oauthlib/oauth1/rfc5849/utils.py'
p444
I6
sS'tests/oauth1/rfc5849/test_utils.py'
p445
I3
sS'oauthlib/utils.py'
p446
I5
sS'tests/oauth1/rfc5849/test_signatures.py'
p447
I1
sS'tests/oauth1/rfc5849/test_server.py'
p448
I1
sS'tests/oauth1/rfc5849/__init__.py'
p449
I1
ssS'richardasaurus'
p450
g1
(g5
tRp451
S'tox.ini'
p452
I3
ssS'metatoaster'
p453
g1
(g5
tRp454
S'oauthlib/oauth1/rfc5849/__init__.py'
p455
I1
sS'tests/oauth1/rfc5849/test_server.py'
p456
I2
ssS'georgewhewell'
p457
g1
(g5
tRp458
S'requirements-test.txt'
p459
I1
sS'requirements.txt'
p460
I2
sS'tox.ini'
p461
I2
sS'.travis.yml'
p462
I1
ssS'mitterdorfermathias'
p463
g1
(g5
tRp464
S'oauthlib/oauth2/rfc6749/errors.py'
p465
I1
ssS'bootandy'
p466
g1
(g5
tRp467
S'oauthlib/oauth1/rfc5849/endpoints/base.py'
p468
I1
ssS'squirly'
p469
g1
(g5
tRp470
S'oauthlib/oauth2/rfc6749/grant_types/refresh_token.py'
p471
I1
sS'oauthlib/oauth2/rfc6749/endpoints/base.py'
p472
I1
sS'tests/oauth1/rfc5849/endpoints/test_request_token.py'
p473
I1
sS'tests/oauth2/rfc6749/test_server.py'
p474
I1
sS'tests/oauth2/rfc6749/test_grant_types.py'
p475
I1
sS'oauthlib/oauth1/rfc5849/endpoints/authorization.py'
p476
I5
sS'docs/oauth2/server.rst'
p477
I1
sS'oauthlib/oauth1/rfc5849/request_validator.py'
p478
I1
sS'tests/oauth1/rfc5849/endpoints/test_access_token.py'
p479
I1
sS'tests/oauth2/rfc6749/test_servers.py'
p480
I1
sS'oauthlib/oauth2/rfc6749/__init__.py'
p481
I1
sS'oauthlib/oauth2/rfc6749/grant_types/resource_owner_password_credentials.py'
p482
I1
sS'tests/oauth1/rfc5849/endpoints/test_base.py'
p483
I1
sS'oauthlib/oauth2/rfc6749/grant_types/authorization_code.py'
p484
I1
sS'oauthlib/oauth1/rfc5849/endpoints/access_token.py'
p485
I2
sS'oauthlib/oauth1/rfc5849/endpoints/request_token.py'
p486
I2
sS'docs/oauth1/server.rst'
p487
I4
sS'oauthlib/oauth2/rfc6749/grant_types/client_credentials.py'
p488
I1
sS'authors'
p489
I1
sS'oauthlib/oauth2/rfc6749/grant_types/implicit.py'
p490
I1
sS'docs/oauth2/endpoints.rst'
p491
I1
sS'tests/oauth1/rfc5849/endpoints/test_authorization.py'
p492
I2
ssS'viktorhaag'
p493
g1
(g5
tRp494
S'oauthlib/oauth1/rfc5849/__init__.py'
p495
I1
sS'tests/oauth1/rfc5849/test_client.py'
p496
I1
sS'oauthlib/oauth1/__init__.py'
p497
I1
sS'oauthlib/oauth1/rfc5849/signature.py'
p498
I1
ssS'g10f'
p499
g1
(g5
tRp500
S'examples/skeleton_oauth2_web_application_server.py'
p501
I1
sS'oauthlib/oauth2/rfc6749/grant_types/authorization_code.py'
p502
I1
sS'oauthlib/oauth2/rfc6749/request_validator.py'
p503
I2
ssS'senko'
p504
g1
(g5
tRp505
S'oauthlib/oauth1/rfc5849/__init__.py'
p506
I1
sS'tests/oauth1/rfc5849/test_server.py'
p507
I2
ssS'al-the-x'
p508
g1
(g5
tRp509
S'oauthlib/oauth1/rfc5849/__init__.py'
p510
I1
sS'tests/oauth1/rfc5849/test_client.py'
p511
I1
sS'tests/oauth1/rfc5849/test_signatures.py'
p512
I1
sS'oauthlib/oauth1/rfc5849/signature.py'
p513
I1
ssS'myyang'
p514
g1
(g5
tRp515
S'oauthlib/oauth2/rfc6749/clients/base.py'
p516
I2
sS'tests/oauth2/rfc6749/clients/test_base.py'
p517
I4
sS'tests/oauth2/rfc6749/clients/test_web_application.py'
p518
I1
ssS'kippandrew'
p519
g1
(g5
tRp520
S'tests/oauth2/rfc6749/endpoints/test_revocation_endpoint.py'
p521
I2
sS'oauthlib/oauth2/rfc6749/endpoints/revocation.py'
p522
I1
ssS'wrr'
p523
g1
(g5
tRp524
S'oauthlib/oauth2/rfc6749/grant_types/refresh_token.py'
p525
I1
sS'tests/oauth2/rfc6749/test_request_validator.py'
p526
I1
sS'oauthlib/oauth2/rfc6749/request_validator.py'
p527
I2
sS'tests/oauth2/rfc6749/grant_types/test_refresh_token.py'
p528
I2
ssS'kdazzle'
p529
g1
(g5
tRp530
S'tests/oauth2/rfc6749/endpoints/test_revocation_endpoint.py'
p531
I1
sS'oauthlib/oauth2/rfc6749/grant_types/resource_owner_password_credentials.py'
p532
I1
sS'oauthlib/common.py'
p533
I3
sS'tests/test_common.py'
p534
I1
sS'oauthlib/oauth2/rfc6749/grant_types/client_credentials.py'
p535
I1
sS'oauthlib/oauth1/rfc5849/endpoints/authorization.py'
p536
I1
sS'readme.rst'
p537
I1
sS'oauthlib/oauth2/rfc6749/grant_types/base.py'
p538
I1
sS'oauthlib/oauth1/rfc5849/request_validator.py'
p539
I1
sS'oauthlib/oauth2/rfc6749/endpoints/revocation.py'
p540
I1
sS'oauthlib/oauth2/rfc6749/grant_types/authorization_code.py'
p541
I1
sS'oauthlib/oauth2/rfc6749/errors.py'
p542
I1
ssS'kennethreitz'
p543
g1
(g5
tRp544
S'docs/oauth2_overview.rst'
p545
I1
sS'docs/server2.rst'
p546
I2
sS'docs/client.rst'
p547
I1
sS'docs/tokens.rst'
p548
I1
sS'makefile'
p549
I1
sS'.gitignore'
p550
I1
sS'docs/server.rst'
p551
I1
sS'readme.rst'
p552
I2
sS'authors'
p553
I1
sS'docs/endpoints.rst'
p554
I1
sS'setup.py'
p555
I3
sS'docs/contributing.rst'
p556
I2
sS'.travis.yml'
p557
I4
sS'docs/index.rst'
p558
I1
ssS'singingwolfboy'
p559
g1
(g5
tRp560
S'tests/oauth2/rfc6749/clients/test_backend_application.py'
p561
I1
sS'oauthlib/oauth2/rfc6749/parameters.py'
p562
I2
sS'docs/oauth2/oauth2.rst'
p563
I1
sS'docs/oauth2/security.rst'
p564
I1
sS'tests/oauth2/rfc6749/clients/test_legacy_application.py'
p565
I1
sS'oauthlib/oauth2/rfc6749/clients/backend_application.py'
p566
I1
sS'oauthlib/oauth2/rfc6749/clients/mobile_application.py'
p567
I1
sS'oauthlib/oauth2/rfc6749/clients/web_application.py'
p568
I1
sS'tests/oauth2/rfc6749/test_parameters.py'
p569
I1
sS'oauthlib/oauth1/rfc5849/signature.py'
p570
I1
sS'oauthlib/oauth2/rfc6749/clients/legacy_application.py'
p571
I1
sS'tests/oauth1/rfc5849/test_client.py'
p572
I1
sS'setup.py'
p573
I1
sS'oauthlib/signals.py'
p574
I1
sS'readme.rst'
p575
I1
sS'tests/oauth2/rfc6749/clients/test_web_application.py'
p576
I1
sS'authors'
p577
I1
sS'oauthlib/oauth1/rfc5849/__init__.py'
p578
I1
sS'docs/oauth2/clients/client.rst'
p579
I1
sS'.travis.yml'
p580
I1
sS'tests/oauth2/rfc6749/clients/test_mobile_application.py'
p581
I1
ssS'ondrowan'
p582
g1
(g5
tRp583
S'docs/server2.rst'
p584
I1
sS'tox.ini'
p585
I1
sS'requirements.txt'
p586
I3
sS'docs/server.rst'
p587
I1
sS'readme.rst'
p588
I2
sS'authors'
p589
I1
sS'oauthlib/oauth1/rfc5849/__init__.py'
p590
I2
sS'.travis.yml'
p591
I1
sS'tests/oauth1/rfc5849/test_server.py'
p592
I1
ssS'julienmeyer'
p593
g1
(g5
tRp594
S'tests/test_common.py'
p595
I1
sS'oauthlib/common.py'
p596
I1
ssS'ocfuu@users.noreply.github.com'
p597
g1
(g5
tRp598
S'oauthlib/oauth2/rfc6749/request_validator.py'
p599
I1
ssS'jvanasco'
p600
g1
(g5
tRp601
S'oauthlib/oauth1/rfc5849/endpoints/request_token.py'
p602
I1
sS'oauthlib/common.py'
p603
I1
sS'oauthlib/oauth1/rfc5849/endpoints/signature_only.py'
p604
I1
sS'oauthlib/oauth1/rfc5849/endpoints/resource.py'
p605
I1
sS'oauthlib/oauth1/rfc5849/request_validator.py'
p606
I1
sS'tests/oauth1/rfc5849/endpoints/test_resource.py'
p607
I1
sS'oauthlib/oauth1/rfc5849/endpoints/access_token.py'
p608
I1
ssS'jturmel'
p609
g1
(g5
tRp610
S'tox.ini'
p611
I1
sS'oauthlib/oauth2/rfc6749/tokens.py'
p612
I3
sS'requirements.txt'
p613
I1
sS'oauthlib/common.py'
p614
I5
sS'tests/oauth2/rfc6749/test_server.py'
p615
I3
sS'authors'
p616
I1
sS'setup.py'
p617
I3
sS'.travis.yml'
p618
I1
sS'oauthlib/oauth2/rfc6749/endpoints/pre_configured.py'
p619
I1
ssS'verbit'
p620
g1
(g5
tRp621
S'oauthlib/oauth1/__init__.py'
p622
I1
sS'oauthlib/oauth1/rfc5849/errors.py'
p623
I1
ssS'x746e'
p624
g1
(g5
tRp625
S'oauthlib/oauth2/rfc6749/endpoints/base.py'
p626
I1
sS'oauthlib/oauth2/rfc6749/clients/backend_application.py'
p627
I1
sS'oauthlib/oauth2/rfc6749/tokens.py'
p628
I1
sS'oauthlib/oauth2/rfc6749/endpoints/__init__.py'
p629
I1
sS'oauthlib/oauth1/__init__.py'
p630
I1
sS'oauthlib/oauth2/rfc6749/utils.py'
p631
I1
sS'oauthlib/oauth1/rfc5849/endpoints/resource.py'
p632
I1
sS'oauthlib/oauth1/rfc5849/endpoints/authorization.py'
p633
I1
sS'oauthlib/uri_validate.py'
p634
I1
sS'oauthlib/oauth1/rfc5849/__init__.py'
p635
I1
sS'oauthlib/oauth1/rfc5849/request_validator.py'
p636
I1
sS'oauthlib/oauth2/rfc6749/__init__.py'
p637
I1
sS'oauthlib/oauth2/__init__.py'
p638
I1
sS'oauthlib/oauth1/rfc5849/parameters.py'
p639
I1
sS'oauthlib/oauth2/rfc6749/endpoints/authorization.py'
p640
I1
sS'oauthlib/oauth1/rfc5849/signature.py'
p641
I1
sS'oauthlib/oauth2/rfc6749/clients/base.py'
p642
I1
sS'oauthlib/oauth2/rfc6749/endpoints/revocation.py'
p643
I1
sS'oauthlib/oauth1/rfc5849/endpoints/base.py'
p644
I1
sS'oauthlib/oauth1/rfc5849/endpoints/access_token.py'
p645
I1
sS'oauthlib/oauth1/rfc5849/endpoints/request_token.py'
p646
I1
sS'oauthlib/common.py'
p647
I1
sS'docs/oauth1/server.rst'
p648
I1
sS'oauthlib/oauth2/rfc6749/clients/legacy_application.py'
p649
I1
sS'oauthlib/oauth2/rfc6749/endpoints/token.py'
p650
I1
sS'oauthlib/oauth1/rfc5849/utils.py'
p651
I1
sS'tests/oauth1/rfc5849/test_utils.py'
p652
I1
sS'oauthlib/oauth2/rfc6749/clients/web_application.py'
p653
I1
sS'oauthlib/oauth2/rfc6749/clients/mobile_application.py'
p654
I1
sS'oauthlib/oauth2/rfc6749/clients/__init__.py'
p655
I1
sS'oauthlib/oauth2/rfc6749/endpoints/pre_configured.py'
p656
I1
sS'tests/oauth1/rfc5849/endpoints/test_authorization.py'
p657
I1
sS'oauthlib/oauth2/rfc6749/parameters.py'
p658
I1
sS'oauthlib/oauth2/rfc6749/endpoints/resource.py'
p659
I1
ssS'jdufresne'
p660
g1
(g5
tRp661
S'oauthlib/oauth1/rfc5849/utils.py'
p662
I1
sS'setup.cfg'
p663
I3
sS'tests/oauth1/rfc5849/test_signatures.py'
p664
I1
sS'tests/oauth1/rfc5849/test_client.py'
p665
I1
sS'.travis.yml'
p666
I2
sS'setup.py'
p667
I1
ssS'swsnider'
p668
g1
(g5
tRp669
S'oauthlib/oauth1/rfc5849/__init__.py'
p670
I3
sS'authors'
p671
I1
sS'tests/oauth1/rfc5849/test_signatures.py'
p672
I1
sS'oauthlib/oauth1/rfc5849/signature.py'
p673
I2
ssS'fabfuel'
p674
g1
(g5
tRp675
S'oauthlib/oauth2/rfc6749/grant_types/authorization_code.py'
p676
I2
ssS'adamchainz'
p677
g1
(g5
tRp678
S'examples/skeleton_oauth2_web_application_server.py'
p679
I1
sS'docs/contributing.rst'
p680
I1
sS'readme.rst'
p681
I1
ssS'skion'
p682
g1
(g5
tRp683
S'tests/oauth2/rfc6749/test_utils.py'
p684
I1
sS'tests/oauth2/rfc6749/endpoints/test_openid_connect_params_handling.py'
p685
I1
sS'oauthlib/oauth2/rfc6749/utils.py'
p686
I1
sS'oauthlib/oauth2/rfc6749/grant_types/authorization_code.py'
p687
I1
sS'oauthlib/oauth2/rfc6749/errors.py'
p688
I4
sS'tests/oauth2/rfc6749/grant_types/test_openid_connect.py'
p689
I1
sS'oauthlib/oauth2/rfc6749/grant_types/openid_connect.py'
p690
I4
sS'tests/oauth2/rfc6749/endpoints/test_prompt_handling.py'
p691
I2
sS'oauthlib/oauth2/rfc6749/endpoints/pre_configured.py'
p692
I1
sS'tests/oauth2/rfc6749/grant_types/test_authorization_code.py'
p693
I1
ssS'johanmeiring'
p694
g1
(g5
tRp695
S'oauthlib/oauth2/ext/django.py'
p696
I3
sS'oauthlib/oauth2/draft25/grant_types.py'
p697
I3
ssS'cheif'
p698
g1
(g5
tRp699
S'oauthlib/oauth2/rfc6749/grant_types/implicit.py'
p700
I1
sS'oauthlib/oauth2/rfc6749/grant_types/authorization_code.py'
p701
I1
sS'tests/oauth2/rfc6749/endpoints/test_error_responses.py'
p702
I1
ssS'bachmann1234'
p703
g1
(g5
tRp704
S'oauthlib/oauth2/rfc6749/errors.py'
p705
I1
ssS'loisaidasam'
p706
g1
(g5
tRp707
S'docs/server2.rst'
p708
I1
ssS'artooro'
p709
g1
(g5
tRp710
S'oauthlib/common.py'
p711
I1
ssS'tizianoperrucci'
p712
g1
(g5
tRp713
S'oauthlib/oauth2/rfc6749/clients/__init__.py'
p714
I2
sS'oauthlib/oauth1/__init__.py'
p715
I1
sS'oauthlib/oauth2/__init__.py'
p716
I1
ssS'kjoconnor'
p717
g1
(g5
tRp718
S'docs/oauth1/client.rst'
p719
I1
sS'docs/oauth2/endpoints/authorization.rst'
p720
I1
sS'docs/oauth2/endpoints/endpoints.rst'
p721
I1
sS'docs/faq.rst'
p722
I1
sS'docs/oauth2/endpoints/token.rst'
p723
I1
sS'docs/oauth1/security.rst'
p724
I1
sS'docs/installation.rst'
p725
I1
sS'docs/oauth1/server.rst'
p726
I1
sS'docs/contributing.rst'
p727
I1
ssS'parryjacob'
p728
g1
(g5
tRp729
S'oauthlib/common.py'
p730
I1
ssS'marienz'
p731
g1
(g5
tRp732
S'tests/oauth1/rfc5849/test_signatures.py'
p733
I2
sS'tests/oauth1/rfc5849/test_utils.py'
p734
I2
ssS'ajpaul510'
p735
g1
(g5
tRp736
S'docs/oauth1/client.rst'
p737
I1
ssS'jonas@gumstix.com'
p738
g1
(g5
tRp739
S'oauthlib/oauth1/rfc5849/__init__.py'
p740
I1
ssS'steve.huwig@unizin.org'
p741
g1
(g5
tRp742
S'oauthlib/oauth1/rfc5849/endpoints/signature_only.py'
p743
I2
ssS'majidfn'
p744
g1
(g5
tRp745
S'docs/oauth1/client.rst'
p746
I1
ssS'sean-dev@farley.org'
p747
g1
(g5
tRp748
S'oauthlib/oauth1/rfc5849/utils.py'
p749
I3
sS'tests/oauth1/rfc5849/test_utils.py'
p750
I1
ssS'doigoid'
p751
g1
(g5
tRp752
S'oauthlib/oauth1/rfc5849/__init__.py'
p753
I1
ssS'tino'
p754
g1
(g5
tRp755
S'oauthlib/oauth2/draft25/grant_types.py'
p756
I1
ssS'orenmazor'
p757
g1
(g5
tRp758
S'tests/oauth2/rfc6749/endpoints/test_credentials_preservation.py'
p759
I1
sS'oauthlib/oauth2/rfc6749/grant_types/authorization_code.py'
p760
I2
sS'tests/oauth2/rfc6749/endpoints/test_error_responses.py'
p761
I1
sS'tests/oauth2/rfc6749/grant_types/test_authorization_code.py'
p762
I1
ssS'bjmc'
p763
g1
(g5
tRp764
S'oauthlib/oauth2/rfc6749/grant_types/refresh_token.py'
p765
I2
sS'tests/oauth2/rfc6749/grant_types/test_refresh_token.py'
p766
I2
sS'docs/oauth2/grants/grants.rst'
p767
I2
sS'tests/oauth2/rfc6749/grant_types/test_resource_owner_password.py'
p768
I2
sS'tests/oauth2/rfc6749/grant_types/test_client_credentials.py'
p769
I2
sS'docs/oauth2/grants/credentials.rst'
p770
I1
sS'oauthlib/oauth2/rfc6749/grant_types/resource_owner_password_credentials.py'
p771
I2
sS'docs/oauth2/grants/implicit.rst'
p772
I1
sS'tests/oauth2/rfc6749/grant_types/test_authorization_code.py'
p773
I2
sS'oauthlib/oauth2/rfc6749/grant_types/base.py'
p774
I4
sS'oauthlib/oauth2/rfc6749/grant_types/authorization_code.py'
p775
I2
sS'docs/oauth2/grants/password.rst'
p776
I1
sS'oauthlib/common.py'
p777
I1
sS'tests/test_common.py'
p778
I1
sS'oauthlib/oauth2/rfc6749/grant_types/client_credentials.py'
p779
I2
sS'authors'
p780
I1
sS'docs/oauth2/grants/custom_validators.rst'
p781
I1
sS'oauthlib/oauth2/rfc6749/grant_types/implicit.py'
p782
I4
sS'tests/oauth2/rfc6749/endpoints/test_prompt_handling.py'
p783
I1
sS'tests/oauth2/rfc6749/grant_types/test_implicit.py'
p784
I2
sS'docs/oauth2/grants/authcode.rst'
p785
I1
sS'oauthlib/oauth2/rfc6749/grant_types/openid_connect.py'
p786
I3
ssS'xiaohanyu'
p787
g1
(g5
tRp788
S'readme.rst'
p789
I1
ssS'edevil'
p790
g1
(g5
tRp791
S'oauthlib/oauth2/rfc6749/grant_types/implicit.py'
p792
I1
sS'oauthlib/oauth2/rfc6749/grant_types/authorization_code.py'
p793
I1
sS'oauthlib/oauth2/rfc6749/request_validator.py'
p794
I1
ssS'clintecker'
p795
g1
(g5
tRp796
S'examples/skeleton_oauth2_web_application_server.py'
p797
I1
sS'authors'
p798
I1
ssS'eofs'
p799
g1
(g5
tRp800
S'tests/test_common.py'
p801
I1
sS'oauthlib/common.py'
p802
I1
ssS'dahlia'
p803
g1
(g5
tRp804
S'oauthlib/oauth2/draft25/__init__.py'
p805
I1
sS'tests/oauth2/draft25/test_grant_types.py'
p806
I1
sS'tests/oauth2/draft25/test_server.py'
p807
I1
sS'oauthlib/oauth2/draft25/tokens.py'
p808
I2
ssS'diox'
p809
g1
(g5
tRp810
S'oauthlib/oauth1/rfc5849/endpoints/request_token.py'
p811
I1
sS'oauthlib/oauth1/rfc5849/endpoints/access_token.py'
p812
I1
ssS'tbartelmess'
p813
g1
(g5
tRp814
S'docs/oauth2/server.rst'
p815
I1
ssS'andreif'
p816
g1
(g5
tRp817
S'docs/server2.rst'
p818
I3
sS'oauthlib/oauth2/draft25/__init__.py'
p819
I1
sS'oauthlib/oauth2/draft25/grant_types.py'
p820
I1
sS'oauthlib/oauth2/ext/django.py'
p821
I1
sS'oauthlib/oauth2/draft25/tokens.py'
p822
I1
sS'oauthlib/oauth2/draft25/errors.py'
p823
I2
ssS'cyrilchaponeverysens'
p824
g1
(g5
tRp825
S'readme.rst'
p826
I1
ssS'jbkkd'
p827
g1
(g5
tRp828
S'tests/oauth2/rfc6749/endpoints/test_revocation_endpoint.py'
p829
I1
sS'oauthlib/oauth2/rfc6749/endpoints/revocation.py'
p830
I1
ssS'djmitche'
p831
g1
(g5
tRp832
S'docs/oauth2/preconfigured_servers.rst'
p833
I1
sS'oauthlib/oauth2/rfc6749/request_validator.py'
p834
I2
ssS'tuannh99'
p835
g1
(g5
tRp836
S'oauthlib/oauth1/rfc5849/endpoints/base.py'
p837
I1
ssS'lepture'
p838
g1
(g5
tRp839
S'oauthlib/oauth2/rfc6749/grant_types/refresh_token.py'
p840
I1
sS'changelog.rst'
p841
I1
sS'oauthlib/oauth2/rfc6749/tokens.py'
p842
I1
sS'docs/oauth2/endpoints/token.rst'
p843
I1
sS'oauthlib/oauth2/rfc6749/utils.py'
p844
I2
sS'tests/oauth1/rfc5849/endpoints/test_request_token.py'
p845
I1
sS'oauthlib/oauth1/rfc5849/endpoints/resource.py'
p846
I1
sS'tests/oauth2/rfc6749/endpoints/test_revocation_endpoint.py'
p847
I3
sS'oauthlib/oauth1/rfc5849/request_validator.py'
p848
I1
sS'tests/oauth1/rfc5849/test_request_validator.py'
p849
I1
sS'oauthlib/oauth2/rfc6749/errors.py'
p850
I1
sS'oauthlib/oauth2/rfc6749/parameters.py'
p851
I4
sS'oauthlib/oauth2/rfc6749/grant_types/resource_owner_password_credentials.py'
p852
I1
sS'oauthlib/oauth2/rfc6749/grant_types/authorization_code.py'
p853
I1
sS'oauthlib/oauth2/draft25/utils.py'
p854
I1
sS'oauthlib/oauth2/ext/flask.py'
p855
I1
sS'setup.py'
p856
I2
sS'oauthlib/oauth2/rfc6749/clients/base.py'
p857
I3
sS'oauthlib/oauth2/rfc6749/endpoints/revocation.py'
p858
I1
sS'oauthlib/oauth1/rfc5849/endpoints/access_token.py'
p859
I1
sS'oauthlib/oauth1/rfc5849/endpoints/request_token.py'
p860
I1
sS'tests/oauth2/rfc6749/test_utils.py'
p861
I1
sS'oauthlib/common.py'
p862
I8
sS'oauthlib/oauth2/draft25/__init__.py'
p863
I1
sS'tests/test_common.py'
p864
I2
sS'tox.ini'
p865
I1
sS'oauthlib/oauth2/rfc6749/grant_types/client_credentials.py'
p866
I1
sS'authors'
p867
I1
sS'tests/oauth2/rfc6749/clients/test_base.py'
p868
I1
sS'oauthlib/oauth2/draft25/exceptions.py'
p869
I1
sS'oauthlib/__init__.py'
p870
I2
sS'.travis_install.py'
p871
I2
sS'tests/oauth1/rfc5849/endpoints/test_resource.py'
p872
I1
sS'readme.rst'
p873
I1
sS'oauthlib/oauth2/rfc6749/request_validator.py'
p874
I1
sS'.travis.yml'
p875
I9
ssS'dafyddcrosby'
p876
g1
(g5
tRp877
S'setup.py'
p878
I1
ssS'techtonik'
p879
g1
(g5
tRp880
S'oauthlib/oauth1/rfc5849/signature.py'
p881
I1
ssS'mdxs'
p882
g1
(g5
tRp883
S'setup.py'
p884
I1
ssS'eriol'
p885
g1
(g5
tRp886
S'setup.py'
p887
I1
ssS'vincent-kuwornu'
p888
g1
(g5
tRp889
S'oauthlib/oauth2/rfc6749/clients/base.py'
p890
I1
ssS'yohanboniface'
p891
g1
(g5
tRp892
S'docs/oauth2/server.rst'
p893
I1
ssS'tomchristie'
p894
g1
(g5
tRp895
S'readme.rst'
p896
I5
sS'authors'
p897
I1
ssS'frewsxcv'
p898
g1
(g5
tRp899
S'.travis.yml'
p900
I1
ssS'wiliamsouza'
p901
g1
(g5
tRp902
S'oauthlib/oauth2/rfc6749/request_validator.py'
p903
I1
sS'oauthlib/common.py'
p904
I1
sS'tests/test_common.py'
p905
I1
sS'tests/oauth2/rfc6749/endpoints/test_claims_handling.py'
p906
I1
sS'tests/oauth2/rfc6749/endpoints/test_scope_handling.py'
p907
I1
sS'oauthlib/oauth2/rfc6749/grant_types/__init__.py'
p908
I1
sS'tests/oauth2/rfc6749/test_server.py'
p909
I1
sS'tests/oauth2/rfc6749/grant_types/test_openid_connect.py'
p910
I1
sS'oauthlib/oauth2/rfc6749/grant_types/openid_connect.py'
p911
I1
sS'oauthlib/oauth2/rfc6749/grant_types/implicit.py'
p912
I1
sS'oauthlib/oauth2/rfc6749/endpoints/pre_configured.py'
p913
I1
ssS'shuisman'
p914
g1
(g5
tRp915
S'docs/oauth2/endpoints/token.rst'
p916
I1
ssS'idan'
p917
g1
(g5
tRp918
S'docs/client.rst'
p919
I3
sS'tests/test_parameters.py'
p920
I6
sS'makefile'
p921
I2
sS'oauthlib/oauth2_draft25/tokens.py'
p922
I2
sS'oauthlib/oauth.py'
p923
I7
sS'.gitignore'
p924
I4
sS'oauthlib/oauth1/rfc5849/__init__.py'
p925
I17
sS'tests/unittest/__init__.py'
p926
I1
sS'docs/contributing.rst'
p927
I1
sS'tests/__init__.py'
p928
I1
sS'oauthlib/oauth2/draft25/tokens.py'
p929
I3
sS'oauthlib/parameters.py'
p930
I5
sS'oauthlib/oauth2_draft25/utils.py'
p931
I3
sS'oauthlib/oauth2/__init__.py'
p932
I1
sS'requirements.txt'
p933
I1
sS'oauthlib/oauth1/rfc5849/parameters.py'
p934
I6
sS'tests/oauth1/rfc5849/test_parameters.py'
p935
I5
sS'docs/server.rst'
p936
I2
sS'oauthlib/oauth2/draft25/utils.py'
p937
I2
sS'oauthlib/oauth1/rfc5849/signature.py'
p938
I9
sS'tests/oauth2/draft25/test_tokens.py'
p939
I3
sS'setup.py'
p940
I13
sS'tests/oauth2/__init__.py'
p941
I1
sS'tests/oauth2/draft25/__init__.py'
p942
I1
sS'tests/oauth2_draft25/test_utils.py'
p943
I3
sS'readme.rst'
p944
I6
sS'tests/oauth2_draft25/test_tokens.py'
p945
I2
sS'oauthlib/common.py'
p946
I8
sS'oauthlib/oauth2/draft25/__init__.py'
p947
I1
sS'tests/test_common.py'
p948
I2
sS'tests/parameters.py'
p949
I2
sS'tests/test_signatures.py'
p950
I4
sS'tox.ini'
p951
I2
sS'oauthlib/oauth1/__init__.py'
p952
I1
sS'tests/test_utils.py'
p953
I2
sS'oauthlib/__init__.py'
p954
I1
sS'authors'
p955
I4
sS'manifest.in'
p956
I1
sS'oauthlib/signature.py'
p957
I4
sS'tests/oauth1/__init__.py'
p958
I1
sS'oauthlib/oauth1/rfc5849/utils.py'
p959
I11
sS'license'
p960
I2
sS'tests/oauth1/rfc5849/test_utils.py'
p961
I5
sS'oauthlib/utils.py'
p962
I9
sS'tests/oauth1/rfc5849/test_signatures.py'
p963
I3
sS'tests/oauth2/draft25/test_utils.py'
p964
I2
sS'tests/oauth1/rfc5849/test_server.py'
p965
I5
sS'tests/oauth1/rfc5849/__init__.py'
p966
I1
sS'.travis.yml'
p967
I3
sS'docs/index.rst'
p968
I2
ssS'warsaw'
p969
g1
(g5
tRp970
S'oauthlib/oauth1/rfc5849/__init__.py'
p971
I2
sS'tests/oauth1/rfc5849/test_client.py'
p972
I2
ssS'matthewlmcclure'
p973
g1
(g5
tRp974
S'oauthlib/oauth1/rfc5849/__init__.py'
p975
I2
sS'tests/oauth1/rfc5849/test_client.py'
p976
I1
sS'tests/oauth1/rfc5849/test_signatures.py'
p977
I2
sS'oauthlib/oauth1/rfc5849/signature.py'
p978
I4
ssS'asteinlein'
p979
g1
(g5
tRp980
S'oauthlib/oauth2/rfc6749/grant_types/refresh_token.py'
p981
I1
sS'tests/oauth2/rfc6749/test_utils.py'
p982
I1
sS'tests/oauth2/rfc6749/grant_types/test_refresh_token.py'
p983
I1
sS'oauthlib/oauth2/rfc6749/utils.py'
p984
I1
sS'tests/oauth2/rfc6749/grant_types/test_resource_owner_password.py'
p985
I1
sS'oauthlib/oauth2/rfc6749/errors.py'
p986
I1
ssS'weipin'
p987
g1
(g5
tRp988
S'tests/oauth2/rfc6749/endpoints/test_revocation_endpoint.py'
p989
I2
sS'oauthlib/oauth2/rfc6749/endpoints/revocation.py'
p990
I1
ssS'st4lk'
p991
g1
(g5
tRp992
S'docs/oauth1/client.rst'
p993
I1
ssS'ghickman'
p994
g1
(g5
tRp995
S'setup.py'
p996
I1
ssS'arnicvs'
p997
g1
(g5
tRp998
S'oauthlib/oauth2/rfc6749/tokens.py'
p999
I1
ssS'mvo5'
p1000
g1
(g5
tRp1001
S'oauthlib/oauth1/rfc5849/parameters.py'
p1002
I1
sS'oauthlib/oauth1/rfc5849/__init__.py'
p1003
I4
sS'tests/unittest/__init__.py'
p1004
I1
sS'oauthlib/oauth2/draft25/parameters.py'
p1005
I1
sS'oauthlib/oauth2/draft25/tokens.py'
p1006
I1
sS'tox.ini'
p1007
I1
sS'oauthlib/oauth2/__init__.py'
p1008
I1
sS'oauthlib/oauth1/__init__.py'
p1009
I1
sS'tests/oauth1/rfc5849/test_parameters.py'
p1010
I1
sS'tests/oauth1/rfc5849/test_client.py'
p1011
I3
sS'oauthlib/oauth2/draft25/utils.py'
p1012
I1
sS'oauthlib/oauth1/rfc5849/signature.py'
p1013
I1
sS'tests/oauth2/draft25/test_tokens.py'
p1014
I1
sS'setup.py'
p1015
I1
sS'readme.rst'
p1016
I1
sS'oauthlib/common.py'
p1017
I1
sS'oauthlib/oauth2/draft25/__init__.py'
p1018
I1
sS'tests/test_common.py'
p1019
I1
sS'tests/oauth2/draft25/test_server.py'
p1020
I1
sS'tests/oauth2/draft25/test_parameters.py'
p1021
I1
sS'authors'
p1022
I1
sS'tests/oauth2/draft25/test_client.py'
p1023
I1
sS'oauthlib/oauth2/draft25/exceptions.py'
p1024
I1
sS'oauthlib/oauth1/rfc5849/utils.py'
p1025
I1
sS'tests/oauth1/rfc5849/test_utils.py'
p1026
I1
sS'tests/oauth1/rfc5849/test_signatures.py'
p1027
I1
sS'tests/oauth2/draft25/test_utils.py'
p1028
I1
sS'tests/oauth1/rfc5849/test_server.py'
p1029
I1
ssS'masci'
p1030
g1
(g5
tRp1031
S'tests/oauth2/rfc6749/grant_types/test_client_credentials.py'
p1032
I1
sS'tests/oauth2/rfc6749/endpoints/test_revocation_endpoint.py'
p1033
I1
sS'oauthlib/oauth2/rfc6749/grant_types/client_credentials.py'
p1034
I1
sS'oauthlib/common.py'
p1035
I1
ssS'kyle@gumstix.com'
p1036
g1
(g5
tRp1037
S'docs/oauth1/server.rst'
p1038
I1
sS'oauthlib/oauth1/rfc5849/endpoints/resource.py'
p1039
I1
sS'oauthlib/oauth1/rfc5849/endpoints/authorization.py'
p1040
I2
sS'authors'
p1041
I1
sS'oauthlib/oauth1/rfc5849/request_validator.py'
p1042
I1
sS'oauthlib/oauth1/rfc5849/endpoints/access_token.py'
p1043
I2
ssS'brunal'
p1044
g1
(g5
tRp1045
S'oauthlib/oauth1/rfc5849/__init__.py'
p1046
I1
ssS'lalinsky'
p1047
g1
(g5
tRp1048
S'oauthlib/oauth2/draft25/__init__.py'
p1049
I2
sS'tests/oauth2/draft25/test_client.py'
p1050
I1
sS'oauthlib/oauth2/draft25/utils.py'
p1051
I1
sS'oauthlib/oauth2/draft25/tokens.py'
p1052
I1
ssS'josephtate'
p1053
g1
(g5
tRp1054
S'changelog.rst'
p1055
I1
sS'docs/oauth1/client.rst'
p1056
I1
sS'oauthlib/oauth2/rfc6749/clients/service_application.py'
p1057
I1
sS'oauthlib/oauth2/rfc6749/tokens.py'
p1058
I1
sS'tests/oauth2/rfc6749/test_parameters.py'
p1059
I1
sS'requirements.txt'
p1060
I1
sS'oauthlib/oauth2/rfc6749/utils.py'
p1061
I3
sS'docs/feature_matrix.rst'
p1062
I1
sS'tests/oauth1/rfc5849/test_signatures.py'
p1063
I1
sS'tests/oauth2/rfc6749/test_server.py'
p1064
I1
sS'tests/oauth2/rfc6749/clients/test_service_application.py'
p1065
I1
sS'tests/oauth2/rfc6749/test_utils.py'
p1066
I3
sS'docs/faq.rst'
p1067
I1
sS'oauthlib/oauth1/rfc5849/signature.py'
p1068
I1
sS'oauthlib/common.py'
p1069
I1
sS'setup.py'
p1070
I1
ssS'masci@evonove.it'
p1071
g1
(g5
tRp1072
S'oauthlib/oauth2/rfc6749/grant_types/refresh_token.py'
p1073
I1
sS'oauthlib/oauth2/rfc6749/grant_types/resource_owner_password_credentials.py'
p1074
I1
sS'tests/oauth2/rfc6749/grant_types/test_refresh_token.py'
p1075
I2
sS'oauthlib/common.py'
p1076
I2
sS'tests/test_common.py'
p1077
I1
sS'tests/oauth2/rfc6749/test_request_validator.py'
p1078
I2
sS'oauthlib/oauth2/rfc6749/grant_types/authorization_code.py'
p1079
I2
sS'tests/oauth2/rfc6749/grant_types/test_authorization_code.py'
p1080
I2
sS'oauthlib/oauth2/rfc6749/request_validator.py'
p1081
I2
sS'authors'
p1082
I1
sS'tests/oauth2/rfc6749/grant_types/test_resource_owner_password.py'
p1083
I2
ssS'hirokiky'
p1084
g1
(g5
tRp1085
S'oauthlib/oauth2/rfc6749/grant_types/authorization_code.py'
p1086
I1
sS'tests/oauth2/rfc6749/grant_types/test_authorization_code.py'
p1087
I1
ssS'dmuller@guidebook.com'
p1088
g1
(g5
tRp1089
S'tests/oauth2/rfc6749/grant_types/test_resource_owner_password.py'
p1090
I1
sS'oauthlib/oauth2/rfc6749/grant_types/resource_owner_password_credentials.py'
p1091
I3
ssS'ryanhiebert'
p1092
g1
(g5
tRp1093
S'oauthlib/oauth1/rfc5849/endpoints/__init__.py'
p1094
I1
sS'oauthlib/common.py'
p1095
I1
sS'tests/oauth1/rfc5849/endpoints/test_signature_only.py'
p1096
I1
sS'oauthlib/oauth1/__init__.py'
p1097
I1
sS'oauthlib/oauth1/rfc5849/endpoints/signature_only.py'
p1098
I1
sS'docs/oauth1/endpoints/endpoints.rst'
p1099
I1
sS'tests/test_common.py'
p1100
I1
sS'oauthlib/oauth1/rfc5849/request_validator.py'
p1101
I1
sS'docs/oauth1/endpoints/signature_only.rst'
p1102
I1
ssS'garcianavalon'
p1103
g1
(g5
tRp1104
S'docs/oauth2/endpoints/token.rst'
p1105
I1
ssS'hoylen'
p1106
g1
(g5
tRp1107
S'docs/oauth1/client.rst'
p1108
I1
sS'oauthlib/oauth1/rfc5849/signature.py'
p1109
I2
sS'oauthlib/oauth1/rfc5849/endpoints/signature_only.py'
p1110
I2
sS'docs/oauth1/server.rst'
p1111
I1
sS'oauthlib/oauth1/rfc5849/__init__.py'
p1112
I1
sS'oauthlib/oauth1/rfc5849/request_validator.py'
p1113
I2
ssS'tikitu'
p1114
g1
(g5
tRp1115
S'docs/contributing.rst'
p1116
I1
ssS'tilgovi'
p1117
g1
(g5
tRp1118
S'readme.rst'
p1119
I1
ssS'garciasolero'
p1120
g1
(g5
tRp1121
S'tests/oauth2/rfc6749/endpoints/test_extra_credentials.py'
p1122
I1
sS'tests/oauth2/rfc6749/test_parameters.py'
p1123
I1
sS'tests/oauth2/rfc6749/endpoints/test_error_responses.py'
p1124
I1
sS'oauthlib/oauth2/rfc6749/grant_types/authorization_code.py'
p1125
I1
sS'oauthlib/oauth2/rfc6749/request_validator.py'
p1126
I1
sS'authors'
p1127
I1
sS'oauthlib/oauth2/rfc6749/grant_types/implicit.py'
p1128
I1
sS'oauthlib/oauth2/rfc6749/errors.py'
p1129
I1
ssS'ib-lundgren'
p1130
g1
(g5
tRp1131
S'changelog.rst'
p1132
I4
sS'docs/client.rst'
p1133
I7
sS'tests/oauth2/rfc6749/endpoints/test_resource_owner_association.py'
p1134
I1
sS'docs/oauth2/endpoints/token.rst'
p1135
I5
sS'tests/oauth2/rfc6749/test_server.py'
p1136
I5
sS'oauthlib/oauth1/rfc5849/endpoints/resource.py'
p1137
I10
sS'docs/oauth2/grants/grants.rst'
p1138
I2
sS'docs/backendapplicationclient.rst'
p1139
I3
sS'oauthlib/oauth.py'
p1140
I9
sS'docs/oauth2/grants/credentials.rst'
p1141
I1
sS'oauthlib/oauth2/draft25/parameters.py'
p1142
I9
sS'docs/oauth1/endpoints/authorization.rst'
p1143
I1
sS'oauthlib/oauth2/draft25/tokens.py'
p1144
I15
sS'docs/server2.rst'
p1145
I15
sS'oauthlib/oauth2/rfc6749/__init__.py'
p1146
I7
sS'requirements.txt'
p1147
I6
sS'docs/oauth2/clients/webapplicationclient.rst'
p1148
I2
sS'oauthlib/oauth1/__init__.py'
p1149
I7
sS'tests/oauth1/rfc5849/test_parameters.py'
p1150
I1
sS'docs/baseclient.rst'
p1151
I3
sS'tests/oauth1/rfc5849/test_client.py'
p1152
I12
sS'docs/oauth2/clients/legacyapplicationclient.rst'
p1153
I2
sS'oauthlib/oauth2/draft25/utils.py'
p1154
I8
sS'tests/oauth2/rfc6749/grant_types/test_authorization_code.py'
p1155
I6
sS'oauthlib/oauth1/rfc5849/signature.py'
p1156
I16
sS'setup.py'
p1157
I34
sS'docs/faq.rst'
p1158
I4
sS'tests/oauth2_draft25/test_utils.py'
p1159
I1
sS'tests/oauth2/rfc6749/test_client.py'
p1160
I3
sS'tests/oauth2/rfc6749/test_utils.py'
p1161
I8
sS'tests/oauth2_draft25/test_tokens.py'
p1162
I1
sS'oauthlib/common.py'
p1163
I38
sS'tests/test_common.py'
p1164
I14
sS'docs/oauth2/grants/password.rst'
p1165
I1
sS'oauthlib/oauth2/ext/auditor.py'
p1166
I2
sS'oauthlib/oauth2_draft25/tokens.py'
p1167
I1
sS'docs/oauth2/tokens.rst'
p1168
I2
sS'docs/oauth2/tokens/jwt.rst'
p1169
I2
sS'docs/tokens.rst'
p1170
I3
sS'oauthlib/oauth2/rfc6749/clients/service_application.py'
p1171
I1
sS'docs/oauth2/endpoints/authorization.rst'
p1172
I2
sS'oauthlib/oauth2/rfc6749/clients/web_application.py'
p1173
I4
sS'tests/oauth2/draft25/__init__.py'
p1174
I1
sS'docs/security.rst'
p1175
I2
sS'tests/oauth1/rfc5849/test_signatures.py'
p1176
I8
sS'tests/oauth2/rfc6749/test_request_validator.py'
p1177
I3
sS'tests/oauth2/rfc6749/clients/__init__.py'
p1178
I1
sS'readme.rst'
p1179
I38
sS'docs/oauth2/grants/authcode.rst'
p1180
I1
sS'.travis.yml'
p1181
I16
sS'docs/oauth1/endpoints/resource.rst'
p1182
I1
sS'docs/oauth1/preconfigured_servers.rst'
p1183
I2
sS'oauthlib/oauth2/rfc6749/tokens.py'
p1184
I11
sS'oauthlib/oauth2/rfc6749/endpoints/__init__.py'
p1185
I3
sS'oauthlib/oauth2/rfc6749/utils.py'
p1186
I12
sS'tests/oauth2/rfc6749/endpoints/test_error_responses.py'
p1187
I1
sS'docs/oauth2/tokens/bearer.rst'
p1188
I1
sS'docs/oauth2/security.rst'
p1189
I2
sS'examples/skeleton_oauth2_web_application_server.py'
p1190
I5
sS'docs/oauth2/server.rst'
p1191
I4
sS'docs/endpoints.rst'
p1192
I3
sS'tests/unittest/__init__.py'
p1193
I5
sS'tests/oauth2/rfc6749/test_servers.py'
p1194
I3
sS'oauthlib/oauth2/rfc6749/parameters.py'
p1195
I16
sS'docs/conf.py'
p1196
I7
sS'oauthlib/oauth2/rfc6749/clients/mobile_application.py'
p1197
I5
sS'docs/oauth2/clients/baseclient.rst'
p1198
I2
sS'docs/server.rst'
p1199
I9
sS'tests/oauth1/rfc5849/endpoints/test_base.py'
p1200
I4
sS'docs/oauth2/grants/implicit.rst'
p1201
I1
sS'tests/oauth2/draft25/test_servers.py'
p1202
I24
sS'docs/oauth2/endpoints/resource.rst'
p1203
I1
sS'oauthlib/oauth2/rfc6749/grant_types/base.py'
p1204
I7
sS'oauthlib/signals.py'
p1205
I1
sS'tests/oauth2/rfc6749/clients/test_mobile_application.py'
p1206
I5
sS'tests/oauth1/rfc5849/test_server.py'
p1207
I12
sS'docs/oauth2/tokens/saml.rst'
p1208
I1
sS'docs/oauth2_overview.rst'
p1209
I2
sS'docs/oauth_1_versus_oauth_2.rst'
p1210
I3
sS'docs/oauth1/oauth1.rst'
p1211
I2
sS'tests/oauth2/rfc6749/endpoints/test_revocation_endpoint.py'
p1212
I5
sS'requirements-test.txt'
p1213
I1
sS'tests/test_signatures.py'
p1214
I11
sS'docs/decorators.rst'
p1215
I2
sS'tests/oauth2/draft25/test_server.py'
p1216
I11
sS'manifest.in'
p1217
I1
sS'tests/test_utils.py'
p1218
I1
sS'tests/oauth2/draft25/test_grant_types.py'
p1219
I11
sS'docs/oauth1/client.rst'
p1220
I6
sS'tests/oauth2/rfc6749/endpoints/test_base_endpoint.py'
p1221
I1
sS'oauthlib/oauth2/rfc6749/grant_types/implicit.py'
p1222
I11
sS'docs/oauth2/oauth2.rst'
p1223
I3
sS'oauthlib/oauth2/draft25/exceptions.py'
p1224
I3
sS'tests/oauth2/rfc6749/clients/test_legacy_application.py'
p1225
I5
sS'oauthlib/__init__.py'
p1226
I10
sS'docs/oauth2/preconfigured_servers.rst'
p1227
I2
sS'tests/oauth1/rfc5849/endpoints/test_resource.py'
p1228
I4
sS'oauthlib/oauth2/rfc6749/clients/__init__.py'
p1229
I2
sS'tests/oauth2/rfc6749/clients/test_service_application.py'
p1230
I2
sS'tests/oauth2/rfc6749/endpoints/__init__.py'
p1231
I1
sS'docs/oauth1/endpoints.rst'
p1232
I5
sS'oauthlib/oauth2/rfc6749/endpoints/resource.py'
p1233
I5
sS'oauthlib/oauth2/rfc6749/grant_types/refresh_token.py'
p1234
I16
sS'oauthlib/oauth2/rfc6749/endpoints/base.py'
p1235
I6
sS'docs/legacyapplicationclient.rst'
p1236
I3
sS'oauthlib/oauth2/rfc6749/clients/backend_application.py'
p1237
I4
sS'docs/oauth2/endpoints/endpoints.rst'
p1238
I2
sS'oauthlib/oauth1/rfc5849/parameters.py'
p1239
I4
sS'docs/oauth2/endpoints/revocation.rst'
p1240
I1
sS'docs/client2.rst'
p1241
I4
sS'.gitignore'
p1242
I3
sS'tests/oauth2/draft25/test_client.py'
p1243
I13
sS'oauthlib/oauth1/rfc5849/request_validator.py'
p1244
I12
sS'tests/oauth1/rfc5849/test_request_validator.py'
p1245
I4
sS'docs/contributing.rst'
p1246
I2
sS'docs/oauth2/tokens/mac.rst'
p1247
I1
sS'oauthlib/oauth2/ext/__init__.py'
p1248
I2
sS'tests/oauth2/rfc6749/test_grant_types.py'
p1249
I5
sS'oauthlib/oauth2/rfc6749/grant_types/resource_owner_password_credentials.py'
p1250
I12
sS'tests/oauth2/rfc6749/endpoints/test_client_authentication.py'
p1251
I1
sS'docs/preconfigured_servers.rst'
p1252
I4
sS'docs/error_reporting.rst'
p1253
I1
sS'docs/oauth2/validator.rst'
p1254
I1
sS'oauthlib/oauth2/rfc6749/grant_types.py'
p1255
I2
sS'docs/oauth2/grants/jwt.rst'
p1256
I1
sS'docs/oauth2/clients/backendapplicationclient.rst'
p1257
I2
sS'oauthlib/oauth2/rfc6749/endpoints/authorization.py'
p1258
I5
sS'tests/oauth2/rfc6749/grant_types/test_openid_connect.py'
p1259
I2
sS'oauthlib/oauth2/ext/flask.py'
p1260
I3
sS'docs/oauth1/endpoints/endpoints.rst'
p1261
I2
sS'oauthlib/oauth1/rfc5849/endpoints/access_token.py'
p1262
I13
sS'tests/oauth2/rfc6749/clients/test_backend_application.py'
p1263
I5
sS'oauthlib/oauth2/draft25/__init__.py'
p1264
I27
sS'tests/oauth2_draft25/__init__.py'
p1265
I1
sS'oauthlib/oauth2/rfc6749/clients/legacy_application.py'
p1266
I4
sS'docs/installation.rst'
p1267
I2
sS'docs/implicit.rst'
p1268
I3
sS'authors'
p1269
I16
sS'oauthlib/oauth2_draft25/__init__.py'
p1270
I1
sS'docs/oauth2/clients/client.rst'
p1271
I3
sS'docs/oauth1/endpoints/signature_only.rst'
p1272
I1
sS'tests/oauth2/rfc6749/clients/test_base.py'
p1273
I3
sS'makefile'
p1274
I4
sS'oauthlib/oauth1/rfc5849/endpoints/pre_configured.py'
p1275
I4
sS'docs/release_process.rst'
p1276
I1
sS'oauthlib/oauth2/rfc6749/errors.py'
p1277
I10
sS'docs/oauth1/server.rst'
p1278
I8
sS'tests/oauth2/draft25/test_utils.py'
p1279
I3
sS'docs/oauth2/endpoints.rst'
p1280
I4
sS'tests/oauth2/rfc6749/grant_types/test_implicit.py'
p1281
I3
sS'oauthlib/oauth1/rfc5849/endpoints/base.py'
p1282
I7
sS'oauthlib/oauth2/rfc6749/request_validator.py'
p1283
I23
sS'tests/oauth1/rfc5849/endpoints/test_authorization.py'
p1284
I5
sS'oauthlib/oauth2/rfc6749/grant_types/openid_connect.py'
p1285
I6
sS'oauthlib/oauth2/draft25/errors.py'
p1286
I11
sS'tests/oauth2/rfc6749/grant_types/__init__.py'
p1287
I1
sS'tests/oauth2/rfc6749/endpoints/test_extra_credentials.py'
p1288
I1
sS'tests/oauth2/rfc6749/grant_types/test_refresh_token.py'
p1289
I6
sS'oauthlib/oauth1/rfc5849/endpoints/signature_only.py'
p1290
I4
sS'tests/oauth2/rfc6749/test_tokens.py'
p1291
I1
sS'tests/oauth1/rfc5849/endpoints/test_request_token.py'
p1292
I7
sS'oauthlib/oauth1/rfc5849/__init__.py'
p1293
I39
sS'oauthlib/oauth1/rfc5849/endpoints/authorization.py'
p1294
I9
sS'oauthlib/uri_validate.py'
p1295
I4
sS'tests/oauth2/rfc6749/clients/test_web_application.py'
p1296
I5
sS'oauthlib/oauth2/draft25/grant_types.py'
p1297
I32
sS'tests/oauth2/rfc6749/grant_types/test_client_credentials.py'
p1298
I2
sS'tests/oauth2/rfc6749/grant_types/test_resource_owner_password.py'
p1299
I5
sS'tests/oauth1/rfc5849/endpoints/test_access_token.py'
p1300
I6
sS'tests/oauth2/rfc6749/__init__.py'
p1301
I1
sS'tox.ini'
p1302
I11
sS'oauthlib/oauth2_draft25/utils.py'
p1303
I1
sS'docs/oauth1/validator.rst'
p1304
I2
sS'oauthlib/oauth2/__init__.py'
p1305
I11
sS'tests/oauth2/rfc6749/test_parameters.py'
p1306
I8
sS'docs/oauth1/security.rst'
p1307
I3
sS'docs/password.rst'
p1308
I3
sS'docs/oauth2/overview.rst'
p1309
I2
sS'tests/oauth1/rfc5849/endpoints/test_signature_only.py'
p1310
I1
sS'docs/validator.rst'
p1311
I3
sS'oauthlib/oauth2/rfc6749/grant_types/authorization_code.py'
p1312
I17
sS'tests/oauth2/draft25/test_tokens.py'
p1313
I2
sS'docs/oauth2/tokens/tokens.rst'
p1314
I3
sS'oauthlib/oauth2/rfc6749/clients/base.py'
p1315
I9
sS'oauthlib/oauth2/rfc6749/endpoints/revocation.py'
p1316
I9
sS'docs/authcode.rst'
p1317
I3
sS'oauthlib/oauth1/rfc5849/endpoints/request_token.py'
p1318
I11
sS'docs/oauth1/endpoints/access_token.rst'
p1319
I1
sS'docs/oauth2/clients/mobileapplicationclient.rst'
p1320
I2
sS'docs/webapplicationclient.rst'
p1321
I3
sS'oauthlib/oauth2/rfc6749/grant_types/client_credentials.py'
p1322
I12
sS'docs/credentials.rst'
p1323
I3
sS'tests/oauth2/draft25/test_parameters.py'
p1324
I6
sS'oauthlib/oauth2/rfc6749/exceptions.py'
p1325
I3
sS'oauthlib/oauth2/ext/django/__init__.py'
p1326
I2
sS'oauthlib/signature.py'
p1327
I9
sS'oauthlib/oauth2/rfc6749/endpoints/token.py'
p1328
I6
sS'oauthlib/oauth1/rfc5849/endpoints/__init__.py'
p1329
I3
sS'tests/oauth2/rfc6749/endpoints/test_utils.py'
p1330
I1
sS'oauthlib/oauth1/rfc5849/utils.py'
p1331
I14
sS'tests/oauth1/rfc5849/test_utils.py'
p1332
I8
sS'docs/oauth1/endpoints/request_token.rst'
p1333
I1
sS'tests/oauth1/rfc5849/endpoints/__init__.py'
p1334
I2
sS'.travis_install.py'
p1335
I3
sS'docs/feature_matrix.rst'
p1336
I4
sS'tests/oauth2/rfc6749/endpoints/test_scope_handling.py'
p1337
I1
sS'oauthlib/oauth1/rfc5849/errors.py'
p1338
I4
sS'oauthlib/oauth2/rfc6749/grant_types/__init__.py'
p1339
I3
sS'oauthlib/oauth2/rfc6749/endpoints/pre_configured.py'
p1340
I8
sS'oauthlib/oauth2/ext/django.py'
p1341
I11
sS'docs/mobileapplicationclient.rst'
p1342
I3
sS'tests/oauth2/rfc6749/endpoints/test_credentials_preservation.py'
p1343
I1
sS'docs/index.rst'
p1344
I8
ss.