ccollections
defaultdict
p1
(c__main__
dd
p2
tRp3
S'pgervais'
p4
g1
(c__builtin__
int
p5
tRp6
S'doc/haxby_decoding.rst'
p7
I1
sS'doc/themes/scikit-learn/theme.conf'
p8
I1
sS'doc/ward_clustering.rst'
p9
I1
sS'nisl/io/nifti_masker.py'
p10
I19
sS'nilearn/honorio_samaras.py'
p11
I2
sS'nisl/testing.py'
p12
I14
sS'doc/themes/nilearn/static/contents.png'
p13
I1
sS'nisl/tests/test_region.py'
p14
I20
sS'nisl/datasets.py'
p15
I12
sS'nilearn/tests/test_ndimage.py'
p16
I2
sS'nisl/decoding/tests/__init__.py'
p17
I1
sS'nilearn/input_data/nifti_masker.py'
p18
I1
sS'nilearn/tests/test_logger.py'
p19
I3
sS'nisl/io/tests/test_nifti_masker.py'
p20
I9
sS'doc/ica_resting_state.rst'
p21
I2
sS'nisl/io/nifti_multi_masker.py'
p22
I21
sS'doc/user_guide.rst'
p23
I1
sS'nisl/decoding/__init__.py'
p24
I1
sS'nilearn/signal.py'
p25
I6
sS'plot_rest_clustering.py'
p26
I5
sS'doc/getting_started.rst'
p27
I5
sS'plot_regions_covariance_obj.py'
p28
I5
sS'nisl/decoding.py'
p29
I4
sS'nisl/tests/test_searchlight.py'
p30
I5
sS'nisl/signal.py'
p31
I4
sS'doc/introduction.rst'
p32
I3
sS'doc/themes/scikit-learn/static/sidebar.js'
p33
I1
sS'nilearn/input_data/nifti_region.py'
p34
I4
sS'doc/developers/group_sparse_covariance.rst'
p35
I2
sS'readme.rst'
p36
I5
sS'plot_visualization.py'
p37
I5
sS'doc/conf.py'
p38
I1
sS'nisl/decomposition/canica.py'
p39
I4
sS'nisl/image.py'
p40
I8
sS'nisl/roi.py'
p41
I5
sS'nisl/tests/test_masking.py'
p42
I19
sS'nisl/tests/test_resampling.py'
p43
I3
sS'plot_nifti_simple.py'
p44
I10
sS'nilearn/_utils/testing.py'
p45
I9
sS'doc/themes/nilearn/layout.html'
p46
I1
sS'plot_regions_covariance_advanced.py'
p47
I8
sS'nisl/__init__.py'
p48
I3
sS'doc/simulations.rst'
p49
I2
sS'nilearn/_utils/__init__.py'
p50
I2
sS'doc/group_sparse_covariance.rst'
p51
I3
sS'nilearn/image/image.py'
p52
I1
sS'nisl/decoding/searchlight.py'
p53
I1
sS'doc/themes/nilearn/theme.conf'
p54
I1
sS'nisl/decoding/tests/test_searchlight.py'
p55
I1
sS'doc/themes/scikit-learn/layout.html'
p56
I1
sS'doc/themes/nilearn/static/navigation.png'
p57
I1
sS'doc/themes/nilearn/static/jquery.js'
p58
I1
sS'setup.cfg'
p59
I2
sS'doc/themes/nilearn/static/jquery.jcarousel.min.js'
p60
I1
sS'nisl/tests/test_files/confounds_with_header.csv'
p61
I1
sS'nisl/io/__init__.py'
p62
I5
sS'plot_adhd_covariance.py'
p63
I3
sS'nilearn/_utils/niimg_conversions.py'
p64
I1
sS'nisl/tests/test_files/spm_confounds.txt'
p65
I1
sS'nilearn/group_sparse_covariance.py'
p66
I49
sS'.travis.yml'
p67
I2
sS'nilearn/decoding/searchlight.py'
p68
I2
sS'plot_haxby_searchlight.py'
p69
I6
sS'plot_connect_comparison.py'
p70
I2
sS'nisl/searchlight.py'
p71
I12
sS'nilearn/masking.py'
p72
I1
sS'doc/functional_connectivity.rst'
p73
I2
sS'doc/makefile'
p74
I2
sS'doc/themes/nilearn/static/nature.css_t'
p75
I2
sS'.gitignore'
p76
I3
sS'nisl/io/tests/__init__.py'
p77
I1
sS'plot_msdl_covariance.py'
p78
I2
sS'doc/extracting_data.rst'
p79
I10
sS'plot_haxby_simple.py'
p80
I3
sS'doc/themes/scikit-learn/static/nature.css_t'
p81
I1
sS'doc/authors.rst'
p82
I1
sS'plot_adhd_covariance2.py'
p83
I19
sS'plot_msdl_covariance_advanced.py'
p84
I3
sS'nisl/honorio_samaras.py'
p85
I10
sS'doc/themes/nilearn/static/sphinxdoc.css'
p86
I1
sS'nilearn/decoding/tests/test_searchlight.py'
p87
I2
sS'doc/includes/big_toc_css.rst'
p88
I1
sS'nisl/masking.py'
p89
I40
sS'nisl/tests/test_io_nifti_masker.py'
p90
I2
sS'doc/sphinxext/gen_rst.py'
p91
I9
sS'plot_ica_resting_state.py'
p92
I5
sS'plot_haxby_decoding.py'
p93
I2
sS'doc/tune_toc.rst'
p94
I1
sS'nisl/tests/__init__.py'
p95
I12
sS'nisl/resampling.py'
p96
I9
sS'nisl/io/nifti_region.py'
p97
I25
sS'nisl/tests/test_utils.py'
p98
I14
sS'doc/logos/nilearn-logo.svg'
p99
I1
sS'doc/themes/scikit-learn/static/jquery.js'
p100
I1
sS'nisl/tests/test_signals.py'
p101
I22
sS'nisl/tests/test_signal.py'
p102
I5
sS'nisl/tests/test_roi.py'
p103
I6
sS'nisl/signals.py'
p104
I27
sS'nisl/io/base_masker.py'
p105
I20
sS'nilearn/tests/__init__.py'
p106
I5
sS'doc/index.rst'
p107
I7
sS'doc/dataset_manipulation.rst'
p108
I4
sS'doc/modules/classes.rst'
p109
I13
sS'nisl/region.py'
p110
I28
sS'doc/logos/nilearn-logo.png'
p111
I1
sS'plot_simulated_data.py'
p112
I6
sS'nisl/decomposition/tests/test_canica.py'
p113
I1
sS'nisl/tests/test_decoding.py'
p114
I2
sS'copying'
p115
I2
sS'nisl/utils.py'
p116
I32
sS'nilearn/datasets.py'
p117
I1
sS'nilearn/_utils/logger.py'
p118
I4
sS'plot_regions_covariance.py'
p119
I16
sS'plot_canica_resting_state.py'
p120
I6
sS'doc/unsupervised_learning.rst'
p121
I2
sS'nisl/io/tests/test_nifti_region.py'
p122
I14
sS'nilearn/tests/test_group_sparse_covariance.py'
p123
I17
sS'doc/haxby_searchlight.rst'
p124
I1
sS'nisl/tests/test_image.py'
p125
I6
sS'doc/supervised_learning.rst'
p126
I1
sS'nilearn/_utils/log_mixin.py'
p127
I2
sS'plot_nifti_advanced.py'
p128
I1
sS'doc/logos/nilearn.png'
p129
I1
sS'nilearn/tests/test_signal.py'
p130
I3
sS'setup.py'
p131
I1
sS'nilearn/__init__.py'
p132
I1
ssS'alexandreabraham'
p133
g1
(g5
tRp134
S'doc/sphinxext/sphinxgallery/__init__.py'
p135
I1
sS'nisl/decomposition/__init__.py'
p136
I1
sS'nilearn/datasets/__init__.py'
p137
I12
sS'nisl/_utils/class_helper.py'
p138
I1
sS'nisl/tests/test_region.py'
p139
I4
sS'nilearn/input_data/tests/test_nifti_spheres_masker.py'
p140
I19
sS'nisl/decoding/tests/__init__.py'
p141
I1
sS'nisl/tests/test_ndimage.py'
p142
I3
sS'nilearn/input_data/nifti_masker.py'
p143
I23
sS'doc/tune_toc.rst'
p144
I1
sS'nisl/io/tests/test_nifti_masker.py'
p145
I4
sS'continuous_integration/circle_ci_test_doc.sh'
p146
I1
sS'doc/make.bat'
p147
I1
sS'nilearn/io/base_masker.py'
p148
I1
sS'nilearn/_utils/fixes/sklearn_validation.py'
p149
I1
sS'doc/getting_started.rst'
p150
I3
sS'examples/connectivity/plot_inverse_covariance_connectome.py'
p151
I2
sS'nisl/signal.py'
p152
I2
sS'doc/introduction.rst'
p153
I5
sS'examples/manipulating_visualizing/plot_demo_glass_brain_extensive.py'
p154
I3
sS'nilearn/decomposition/canica.py'
p155
I7
sS'doc/themes/scikit-learn/static/sidebar.js'
p156
I1
sS'nilearn/description/nyu.rst'
p157
I1
sS'examples/manipulating_visualizing/plot_demo_glass_brain.py'
p158
I2
sS'doc/conf.py'
p159
I5
sS'.travis.yml'
p160
I7
sS'nilearn/_utils/compat.py'
p161
I8
sS'plot_haxby_mass_univariate.py'
p162
I1
sS'examples/plot_nifti_simple.py'
p163
I2
sS'doc/includes/big_toc_css.rst'
p164
I1
sS'nisl/tests/test_class_inspect.py'
p165
I4
sS'nilearn/image/__init__.py'
p166
I2
sS'nilearn/decoding/tests/test_tv.py'
p167
I2
sS'nisl/_utils/tests/test_ndimage.py'
p168
I2
sS'examples/plot_localizer_simple_analysis.py'
p169
I1
sS'doc/simulations.rst'
p170
I1
sS'nilearn/input_data/tests/test_nifti_region.py'
p171
I2
sS'nilearn/decomposition/tests/test_base.py'
p172
I2
sS'examples/01_plotting/plot_demo_more_plotting.py'
p173
I1
sS'examples/connectivity/plot_signal_extraction.py'
p174
I4
sS'nilearn/datasets/func.py'
p175
I21
sS'examples/.gitignore'
p176
I1
sS'nisl/decomposition/old_canica.py'
p177
I2
sS'nisl/tests/test_niimg_conversions.py'
p178
I4
sS'nilearn/decoding/fista.py'
p179
I1
sS'examples/decoding/plot_haxby_different_estimators.py'
p180
I2
sS'nilearn/tests/test_masking.py'
p181
I13
sS'plot_haxby_searchlight.py'
p182
I3
sS'nilearn/description/power_2011.rst'
p183
I2
sS'nilearn/masking.py'
p184
I16
sS'examples/decoding/plot_haxby_multiclass.py'
p185
I1
sS'examples/connectivity/plot_extract_regions_canica_maps.py'
p186
I1
sS'doc/readme'
p187
I1
sS'nilearn/_utils/exceptions.py'
p188
I6
sS'nilearn/datasets/tests/test_atlas.py'
p189
I18
sS'examples/01_plotting/plot_prob_atlas.py'
p190
I1
sS'plot_kamitani_reconstruction.py'
p191
I8
sS'nilearn/tests/test_resampling.py'
p192
I1
sS'.gitignore'
p193
I4
sS'doc/themes/scikit-learn/static/nature.css_t'
p194
I1
sS'nilearn/datasets/description/basc_multiscale_2015.rst'
p195
I1
sS'examples/manipulating_visualizing/plot_demo_plotting.py'
p196
I2
sS'nilearn/_utils/segmentation.py'
p197
I2
sS'examples/connectivity/plot_rest_clustering.py'
p198
I3
sS'nilearn/io/tests/test_nifti_region.py'
p199
I1
sS'doc/logos/scikit-learn-logo-small.png'
p200
I1
sS'nilearn/input_data/base_masker.py'
p201
I38
sS'examples/manipulating_visualizing/plot_mask_computation.py'
p202
I3
sS'nilearn/decoding/tests/test_searchlight.py'
p203
I8
sS'nilearn/_utils/ndimage.py'
p204
I4
sS'examples/connectivity/plot_multi_subject_connectome.py'
p205
I1
sS'nilearn/decoding/tests/test_space_net.py'
p206
I3
sS'nilearn/description/smith_2009.rst'
p207
I1
sS'doc/sphinxext/gen_rst.py'
p208
I3
sS'plot_ica_resting_state.py'
p209
I3
sS'nilearn/decomposition/tests/test_multi_pca.py'
p210
I4
sS'nilearn/connectome/tests/test_connectivity_matrices.py'
p211
I4
sS'doc/building_blocks/manual_pipeline.rst'
p212
I2
sS'nilearn/mass_univariate/permuted_least_squares.py'
p213
I1
sS'doc/ica_resting_state.rst'
p214
I1
sS'nilearn/decoding/tests/test_smooth_lasso.py'
p215
I2
sS'nisl/resampling.py'
p216
I3
sS'doc/decoding/decoding_tutorial.rst'
p217
I3
sS'continuous_integration/show-python-packages-versions.py'
p218
I3
sS'doc/whats_new.rst'
p219
I28
sS'nilearn/tests/test_region.py'
p220
I10
sS'nisl/signals.py'
p221
I3
sS'nisl/tests/test_datasets.py'
p222
I1
sS'examples/01_plotting/plot_demo_glass_brain.py'
p223
I1
sS'doc/user_guide.rst'
p224
I1
sS'doc/dataset_manipulation.rst'
p225
I2
sS'examples/plot_python_101.py'
p226
I2
sS'nilearn/datasets/data/dosenbach_2010.csv'
p227
I1
sS'doc/logos/nilearn-logo.png'
p228
I1
sS'doc/logos/nilearn-logo-small.png'
p229
I1
sS'plot_haxby_multiclass.py'
p230
I1
sS'nilearn/tests/test_param_validation.py'
p231
I2
sS'examples/03_connectivity/plot_probabilistic_atlas_extraction.py'
p232
I3
sS'nilearn/image/tests/test_image.py'
p233
I13
sS'examples/connectivity/plot_power_connectome.py'
p234
I10
sS'nisl/io/tests/test_nifti_region.py'
p235
I1
sS'nilearn/plotting/__init__.py'
p236
I1
sS'nilearn/datasets/description/aal_spm_12.rst'
p237
I1
sS'nilearn/regions/tests/test_signal_extraction.py'
p238
I3
sS'examples/manipulating_visualizing/plot_extract_rois_statistical_maps.py'
p239
I1
sS'doc/makefile'
p240
I1
sS'nilearn/tests/data/__init__.py'
p241
I1
sS'examples/manipulating_visualizing/plot_probabilistic_atlas.py'
p242
I2
sS'doc/themes/nilearn/static/navigation.png'
p243
I1
sS'nilearn/input_data/tests/test_base_masker.py'
p244
I11
sS'doc/sphinxext/sphinxgallery/gen_gallery.py'
p245
I1
sS'doc/logos/nilearn_logo_tagline.png'
p246
I1
sS'nilearn/plotting/tests/test_displays.py'
p247
I8
sS'nisl/__init__.py'
p248
I1
sS'doc/image_manipulation.rst'
p249
I3
sS'nilearn/tests/test_files/spm_confounds.txt'
p250
I1
sS'nilearn/datasets/struct.py'
p251
I1
sS'nisl/_utils/class_inspect.py'
p252
I5
sS'copying'
p253
I1
sS'examples/05_advanced/plot_haxby_mass_univariate.py'
p254
I1
sS'nisl/utils.py'
p255
I8
sS'nilearn/mass_univariate/tests/__init__.py'
p256
I1
sS'examples/decoding/plot_haxby_grid_search.py'
p257
I1
sS'doc/manipulating_visualizing/manipulating_images.rst'
p258
I3
sS'nilearn/datasets/tests/test_struct.py'
p259
I5
sS'examples/03_connectivity/plot_compare_resting_state_decomposition.py'
p260
I2
sS'nilearn/decomposition/multi_pca.py'
p261
I14
sS'nilearn/decoding/tests/test_same_api.py'
p262
I4
sS'examples/05_advanced/plot_localizer_simple_analysis.py'
p263
I1
sS'nilearn/image/image.py'
p264
I28
sS'examples/connectivity/plot_simulated_connectome.py'
p265
I1
sS'doc/themes/nilearn/theme.conf'
p266
I1
sS'nisl/decomposition/multi_pca.py'
p267
I25
sS'plot_haxby_full_analysis.py'
p268
I1
sS'plot_image_manipulation.py'
p269
I4
sS'nilearn/_utils/niimg_conversions.py'
p270
I74
sS'nisl/tests/test_files/spm_confounds.txt'
p271
I2
sS'nilearn/group_sparse_covariance.py'
p272
I7
sS'nilearn/decomposition/tests/test_dict_learning.py'
p273
I1
sS'nilearn/decoding/searchlight.py'
p274
I16
sS'nilearn/io/tests/test_multi_nifti_masker.py'
p275
I2
sS'nilearn/mass_univariate/tests/test_permuted_least_squares.py'
p276
I1
sS'nilearn/mass_univariate/__init__.py'
p277
I1
sS'nisl/_utils/exceptions.py'
p278
I3
sS'nilearn/plotting/tests/__init__.py'
p279
I1
sS'examples/readme.txt'
p280
I1
sS'nilearn/io/nifti_masker.py'
p281
I1
sS'nilearn/tests/test_files/confounds_with_header.csv'
p282
I1
sS'nisl/io/tests/__init__.py'
p283
I1
sS'nilearn/input_data/tests/test_multi_nifti_masker.py'
p284
I11
sS'examples/decoding/plot_oasis_vbm.py'
p285
I2
sS'nilearn/io/tests/__init__.py'
p286
I2
sS'nilearn/decomposition/tests/test_canica.py'
p287
I6
sS'nilearn/description/abide_pcp.rst'
p288
I1
sS'makefile'
p289
I6
sS'doc/authors.rst'
p290
I3
sS'doc/install_doc_component.html'
p291
I3
sS'examples/plot_haxby_simple.py'
p292
I1
sS'nilearn/plotting/tests/test_find_cuts.py'
p293
I5
sS'nilearn/input_data/nifti_spheres_masker.py'
p294
I66
sS'nilearn/datasets/description/nyu_rest.rst'
p295
I1
sS'nisl/masking.py'
p296
I20
sS'nisl/decomposition/tests/test_multi_pca.py'
p297
I5
sS'examples/02_decoding/plot_haxby_searchlight.py'
p298
I3
sS'doc/building_blocks/pipeline_introduction.rst'
p299
I1
sS'nisl/tests/__init__.py'
p300
I2
sS'nilearn/description/miyawaki.rst'
p301
I2
sS'nisl/tests/test_signals.py'
p302
I2
sS'plot_old_canica_resting_state.py'
p303
I7
sS'doc/building_blocks/searchlight.rst'
p304
I1
sS'circle.yml'
p305
I1
sS'nilearn/io/multi_nifti_masker.py'
p306
I1
sS'nilearn/_utils/fixes/sklearn_f_regression_nosparse.py'
p307
I1
sS'examples/01_plotting/plot_visualization.py'
p308
I1
sS'nilearn/description/brainomics_localizer.rst'
p309
I1
sS'nisl/_utils/numpy_conversions.py'
p310
I1
sS'doc/logos/nilearn.png'
p311
I1
sS'examples/manipulating_visualizing/plot_visualize_megatrawls_netmats.py'
p312
I1
sS'nilearn/io/tests/test_nifti_masker.py'
p313
I1
sS'nilearn/tests/test_segmentation.py'
p314
I2
sS'nilearn/tests/data/mmap.dat'
p315
I1
sS'examples/manipulating_visualizing/plot_extract_rois_smith_atlas.py'
p316
I1
sS'nilearn/plotting/glass_brain_files/plot_align_svg.py'
p317
I2
sS'nisl/decomposition/decomposition_model.py'
p318
I2
sS'nilearn/_utils/logger.py'
p319
I4
sS'plot_rest_clustering.py'
p320
I2
sS'nilearn/tests/data/test.mgz'
p321
I1
sS'nilearn/_utils/param_validation.py'
p322
I2
sS'nilearn/tests/test_group_sparse_covariance.py'
p323
I2
sS'nilearn/decoding/tests/test_objective_functions.py'
p324
I1
sS'nilearn/image/resampling.py'
p325
I16
sS'nilearn/decoding/tests/__init__.py'
p326
I2
sS'nilearn/tests/test_numpy_conversions.py'
p327
I9
sS'nilearn/datasets/tests/test_utils.py'
p328
I2
sS'nilearn/decoding/tests/test_fista.py'
p329
I2
sS'nilearn/io/__init__.py'
p330
I2
sS'nilearn/plotting/edge_detect.py'
p331
I1
sS'doc/contributing.rst'
p332
I1
sS'nilearn/tests/test_datasets.py'
p333
I54
sS'doc/haxby_decoding.rst'
p334
I2
sS'doc/themes/scikit-learn/theme.conf'
p335
I1
sS'examples/03_connectivity/plot_seed_based_connectome.py'
p336
I2
sS'nisl/testing.py'
p337
I1
sS'nilearn/input_data/tests/test_nifti_masker.py'
p338
I15
sS'nisl/datasets.py'
p339
I3
sS'nilearn/tests/test_ndimage.py'
p340
I4
sS'nilearn/tests/test_niimg.py'
p341
I6
sS'nilearn/decoding/tests/simulate_graph_net_data.py'
p342
I2
sS'nilearn/plotting/tests/test_img_plotting.py'
p343
I23
sS'examples/03_connectivity/plot_power_connectome.py'
p344
I5
sS'setup.py'
p345
I6
sS'nilearn/description/adhd.rst'
p346
I1
sS'examples/manipulating_visualizing/plot_haxby_mass_univariate.py'
p347
I1
sS'nisl/decoding/__init__.py'
p348
I1
sS'doc/logos/nilearn-logo-tagline.svg'
p349
I1
sS'nilearn/description/msdl_atlas.rst'
p350
I1
sS'examples/manipulating_visualizing/plot_smooth_mean_image.py'
p351
I2
sS'doc/ward_clustering.rst'
p352
I2
sS'plot_haxby_different_estimators.py'
p353
I1
sS'nilearn/decoding/tests/test_graph_net.py'
p354
I2
sS'nisl/_utils/niimg_conversions.py'
p355
I5
sS'nilearn/tests/data/pymvpa-exampledata.tar.bz2'
p356
I1
sS'nilearn/input_data/nifti_region.py'
p357
I3
sS'nisl/_utils/tests/test_numpy_conversions.py'
p358
I2
sS'nilearn/input_data/__init__.py'
p359
I4
sS'doc/developers/dataset_download.rst'
p360
I7
sS'plot_visualization.py'
p361
I5
sS'nisl/image.py'
p362
I1
sS'nilearn/description/miyawaki2008.rst'
p363
I1
sS'examples/03_connectivity/plot_connectivity_measures.py'
p364
I2
sS'examples/plot_nilearn_101.py'
p365
I3
sS'examples/03_connectivity/plot_signal_extraction.py'
p366
I1
sS'nilearn/version.py'
p367
I10
sS'doc/themes/nilearn/static/jquery.js'
p368
I1
sS'examples/manipulating_visualizing/plot_visualization.py'
p369
I1
sS'nilearn/_utils/__init__.py'
p370
I13
sS'nilearn/image/tests/test_resampling.py'
p371
I6
sS'examples/decoding/plot_haxby_full_analysis.py'
p372
I1
sS'nilearn/tests/data/adhd40_p1.tar.gz'
p373
I2
sS'nisl/decoding/searchlight.py'
p374
I1
sS'doc/themes/nilearn/static/contents.png'
p375
I1
sS'doc/themes/scikit-learn/layout.html'
p376
I4
sS'nilearn/datasets/tests/data/pymvpa-exampledata.tar.bz2'
p377
I2
sS'examples/manipulating_visualizing/plot_prob_atlas.py'
p378
I2
sS'nilearn/_utils/testing.py'
p379
I27
sS'setup.cfg'
p380
I2
sS'doc/themes/nilearn/static/jquery.jcarousel.min.js'
p381
I1
sS'nisl/tests/test_files/confounds_with_header.csv'
p382
I1
sS'nisl/io/__init__.py'
p383
I2
sS'examples/decoding/plot_simulated_data.py'
p384
I1
sS'nilearn/description/icbm152_2009.rst'
p385
I1
sS'nilearn/_utils/niimage.py'
p386
I6
sS'nilearn/plotting/tests/test_edge_detect.py'
p387
I3
sS'doc/decoding/estimator_choice.rst'
p388
I1
sS'examples/manipulating_visualizing/plot_overlay.py'
p389
I2
sS'nisl/_utils/ndimage.py'
p390
I1
sS'examples/decoding/plot_haxby_space_net.py'
p391
I2
sS'nilearn/plotting/tests/test_cm.py'
p392
I5
sS'nilearn/io/nifti_region.py'
p393
I1
sS'nilearn/datasets/utils.py'
p394
I11
sS'plot_haxby_simple.py'
p395
I4
sS'examples/01_plotting/plot_demo_glass_brain_extensive.py'
p396
I1
sS'nilearn/regions/__init__.py'
p397
I3
sS'examples/connectivity/plot_canica_resting_state.py'
p398
I4
sS'plot_miyawaki_reconstruction.py'
p399
I4
sS'nilearn/regions/tests/test_region_extractor.py'
p400
I3
sS'nilearn/data/power_2011.csv'
p401
I2
sS'nisl/tests/test_image.py'
p402
I1
sS'doc/manipulating_visualizing/plotting.rst'
p403
I1
sS'plot_haxby_decoding.py'
p404
I2
sS'doc/decoding/space_net.rst'
p405
I3
sS'doc/plotting/index.rst'
p406
I2
sS'doc/decoding/decoding_simulated.rst'
p407
I1
sS'examples/03_connectivity/plot_adhd_spheres.py'
p408
I2
sS'doc/logos/nilearn-logo.svg'
p409
I1
sS'nilearn/input_data/nifti_labels_masker.py'
p410
I28
sS'examples/connectivity/plot_adhd_spheres.py'
p411
I15
sS'nilearn/datasets/description/cobre.rst'
p412
I1
sS'plot_localizer_mass_univariate.py'
p413
I1
sS'nilearn/datasets/description/megatrawls.rst'
p414
I1
sS'nilearn/input_data/tests/test_nifti_maps_masker.py'
p415
I11
sS'doc/decoding/index.rst'
p416
I2
sS'nilearn/resampling.py'
p417
I1
sS'nilearn/tests/test_class_inspect.py'
p418
I3
sS'nilearn/datasets/tests/data/craddock_2011_parcellations.tar.gz'
p419
I2
sS'doc/modules/classes.rst'
p420
I2
sS'doc/connectivity/region_extraction.rst'
p421
I1
sS'nilearn/input_data/tests/test_nifti_labels_masker.py'
p422
I9
sS'nisl/decomposition/tests/test_canica.py'
p423
I10
sS'nilearn/connectome/group_sparse_cov.py'
p424
I1
sS'examples/03_connectivity/plot_inverse_covariance_connectome.py'
p425
I1
sS'nilearn/decoding/space_net.py'
p426
I4
sS'nilearn/datasets.py'
p427
I132
sS'nilearn/tests/data/oasis_cross-sectional.csv'
p428
I1
sS'nisl/region.py'
p429
I2
sS'examples/01_plotting/plot_demo_plotting.py'
p430
I2
sS'examples/manipulating_visualizing/plot_affine_transformation.py'
p431
I1
sS'nilearn/description/oasis1'
p432
I1
sS'nilearn/regions/region_extractor.py'
p433
I2
sS'nilearn/tests/test_cache_mixin.py'
p434
I12
sS'nilearn/tests/test_signal.py'
p435
I10
sS'nilearn/__init__.py'
p436
I5
sS'nilearn/region.py'
p437
I11
sS'examples/decoding/plot_haxby_anova_svm.py'
p438
I3
sS'examples/decoding/plot_oasis_vbm_space_net.py'
p439
I2
sS'nisl/decomposition/tests/__init__.py'
p440
I1
sS'doc/connectivity/functional_connectomes.rst'
p441
I5
sS'nilearn/description/haxby2001.rst'
p442
I1
sS'nisl/io/nifti_masker.py'
p443
I12
sS'examples/01_plotting/plot_multiscale_parcellations.py'
p444
I1
sS'doc/connectivity/index.rst'
p445
I1
sS'nisl/_utils/tests/test_class_inspect.py'
p446
I2
sS'nisl/decoding/tests/test_searchlight.py'
p447
I1
sS'nilearn/plotting/img_plotting.py'
p448
I31
sS'doc/copying'
p449
I1
sS'nilearn/_utils/cache_mixin.py'
p450
I24
sS'nilearn/plotting/glass_brain.py'
p451
I2
sS'nilearn/decoding/tests/test_operators.py'
p452
I1
sS'nilearn/signal.py'
p453
I20
sS'nilearn/external/visvis/__init__.py'
p454
I2
sS'nilearn/_utils/fixes/__init__.py'
p455
I5
sS'nilearn/external/visvis/images2gif.py'
p456
I2
sS'doc/connectivity/connectome_extraction.rst'
p457
I1
sS'nilearn/decomposition/dict_learning.py'
p458
I3
sS'nilearn/datasets/tests/test_func.py'
p459
I16
sS'nilearn/input_data/masker_validation.py'
p460
I2
sS'nisl/io/nifti_multi_masker.py'
p461
I15
sS'nilearn/datasets/atlas.py'
p462
I20
sS'nilearn/decoding/space_net_solvers.py'
p463
I1
sS'plot_haxby_grid_search.py'
p464
I1
sS'doc/images/feature_array.svg'
p465
I1
sS'nisl/_utils/__init__.py'
p466
I1
sS'readme.rst'
p467
I8
sS'plot_adhd_covariance.py'
p468
I3
sS'nisl/decomposition/canica.py'
p469
I22
sS'nilearn/description/craddock_2012.rst'
p470
I1
sS'doc/building_blocks/manipulating_mr_images.rst'
p471
I10
sS'doc/modules/reference.rst'
p472
I20
sS'nilearn/_utils/class_inspect.py'
p473
I2
sS'examples/manipulating_visualizing/plot_atlas.py'
p474
I6
sS'nilearn/_utils/numpy_conversions.py'
p475
I10
sS'nisl/tests/test_masking.py'
p476
I9
sS'nisl/tests/test_resampling.py'
p477
I1
sS'nilearn/plotting/find_cuts.py'
p478
I12
sS'plot_nifti_simple.py'
p479
I4
sS'doc/themes/scikit-learn/static/jquery.js'
p480
I1
sS'nilearn/tests/test_extmath.py'
p481
I2
sS'doc/themes/nilearn/layout.html'
p482
I6
sS'nilearn/io/tests/test_nifti_multi_masker.py'
p483
I2
sS'nilearn/tests/test_niimg_conversions.py'
p484
I34
sS'nisl/io/tests/test_nifti_multi_masker.py'
p485
I2
sS'nilearn/tests/test_image.py'
p486
I1
sS'nilearn/_utils/niimg.py'
p487
I26
sS'examples/manipulating_visualizing/plot_demo_more_plotting.py'
p488
I1
sS'plot_haxby_anova_svm.py'
p489
I1
sS'nilearn/input_data/multi_nifti_masker.py'
p490
I23
sS'nilearn/connectome/connectivity_matrices.py'
p491
I7
sS'nilearn/external/__init__.py'
p492
I2
sS'nisl/_utils/cache_mixin.py'
p493
I3
sS'nilearn/decoding/tests/test_sklearn_compatibility.py'
p494
I2
sS'contributing.rst'
p495
I1
sS'examples/connectivity/plot_seed_based_connectome.py'
p496
I2
sS'examples/decoding/plot_mixed_gambles_space_net.py'
p497
I2
sS'nilearn/datasets/description/dosenbach_2010.rst'
p498
I1
sS'nilearn/decoding/objective_functions.py'
p499
I1
sS'nilearn/plotting/cm.py'
p500
I2
sS'examples/05_advanced/plot_localizer_mass_univariate_methods.py'
p501
I1
sS'doc/themes/nilearn/static/nature.css_t'
p502
I2
sS'nilearn/regions/signal_extraction.py'
p503
I3
sS'doc/extracting_data.rst'
p504
I3
sS'nilearn/tests/test_testing.py'
p505
I1
sS'nisl/_utils/tests/test_niimg_conversions.py'
p506
I3
sS'nisl/tests/test_numpy_conversions.py'
p507
I4
sS'doc/haxby_searchlight.rst'
p508
I4
sS'doc/manipulating_visualizing/data_preparation.rst'
p509
I1
sS'examples/decoding/plot_haxby_searchlight.py'
p510
I5
sS'examples/connectivity/plot_ica_resting_state.py'
p511
I3
sS'nilearn/decomposition/tests/__init__.py'
p512
I2
sS'doc/themes/nilearn/static/sphinxdoc.css'
p513
I1
sS'examples/manipulating_visualizing/plot_haxby_masks.py'
p514
I1
sS'nisl/io/nifti_region.py'
p515
I1
sS'nilearn/datasets/description/aal_spm12.rst'
p516
I1
sS'.mailmap'
p517
I2
sS'nilearn/input_data/tests/__init__.py'
p518
I1
sS'nisl/tests/test_signal.py'
p519
I2
sS'nilearn/decomposition/base.py'
p520
I2
sS'nilearn/plotting/displays.py'
p521
I37
sS'nisl/tests/data/pymvpa-exampledata.tar.bz2'
p522
I1
sS'nisl/io/base_masker.py'
p523
I14
sS'nilearn/datasets/description/nyu.rst'
p524
I1
sS'nilearn/tests/__init__.py'
p525
I3
sS'doc/index.rst'
p526
I6
sS'doc/themes/nilearn/static/doctools.js'
p527
I1
sS'nilearn/decoding/__init__.py'
p528
I3
sS'nilearn/input_data/nifti_maps_masker.py'
p529
I34
sS'nilearn/testing.py'
p530
I1
sS'plot_simulated_data.py'
p531
I3
sS'continuous_integration/install.sh'
p532
I6
sS'nilearn/description/smith.rst'
p533
I2
sS'nilearn/_utils/extmath.py'
p534
I1
sS'nilearn/tests/test_logger.py'
p535
I4
sS'examples/manipulating_visualizing/plot_roi_extraction.py'
p536
I3
sS'plot_canica_resting_state.py'
p537
I14
sS'doc/connectivity/resting_state_networks.rst'
p538
I7
sS'nilearn/image.py'
p539
I1
sS'authors.rst'
p540
I1
sS'nilearn/decomposition/__init__.py'
p541
I2
sS'plot_nifti_advanced.py'
p542
I3
sS'examples/connectivity/plot_probabilistic_atlas_extraction.py'
p543
I3
sS'examples/manipulating_visualizing/plot_localizer_mass_univariate_methods.py'
p544
I1
sS'nilearn/decoding/proximal_operators.py'
p545
I1
sS'examples/connectivity/plot_compare_resting_state_decomposition.py'
p546
I3
ssS'jdockes@is149509.intra.cea.fr'
p547
g1
(g5
tRp548
S'nilearn/input_data/masker_validation.py'
p549
I1
sS'nilearn/decomposition/tests/test_base.py'
p550
I1
ssS'akshayah3'
p551
g1
(g5
tRp552
S'nilearn/plotting/find_cuts.py'
p553
I2
ssS'emdupre'
p554
g1
(g5
tRp555
S'doc/manipulating_images/input_output.rst'
p556
I1
sS'doc/conf.py'
p557
I1
sS'nilearn/datasets/atlas.py'
p558
I1
sS'examples/02_decoding/plot_haxby_anova_svm.py'
p559
I3
sS'examples/02_decoding/plot_haxby_space_net.py'
p560
I3
sS'examples/02_decoding/plot_haxby_grid_search.py'
p561
I2
sS'examples/02_decoding/plot_haxby_different_estimators.py'
p562
I2
sS'examples/05_advanced/plot_haxby_mass_univariate.py'
p563
I2
sS'examples/02_decoding/plot_haxby_searchlight.py'
p564
I3
sS'examples/03_connectivity/plot_multi_subject_connectome.py'
p565
I2
sS'examples/02_decoding/plot_haxby_full_analysis.py'
p566
I3
sS'examples/02_decoding/plot_haxby_multiclass.py'
p567
I3
sS'doc/building_blocks/manual_pipeline.rst'
p568
I1
sS'nilearn/decoding/space_net.py'
p569
I1
sS'examples/04_manipulating_images/plot_roi_extraction.py'
p570
I3
sS'circle.yml'
p571
I1
sS'examples/plot_decoding_tutorial.py'
p572
I5
ssS'dohmatob'
p573
g1
(g5
tRp574
S'nilearn/tests/test_datasets.py'
p575
I10
sS'nilearn/decoding/tests/test_sklearn_basic_backports.py'
p576
I13
sS'nilearn/sparse_models/tests/test_sklearn_compatibility.py'
p577
I6
sS'examples/decoding/plot_mixed_gambles.py'
p578
I2
sS'nilearn/decoding/sparse_models/tv.py'
p579
I16
sS'examples/plot_poldrack_space_net.py'
p580
I8
sS'nilearn/datasets/__init__.py'
p581
I1
sS'nilearn/sparse_models/__init__.py'
p582
I4
sS'nilearn/sparse_models/tests/simulate_smooth_lasso_data.py'
p583
I8
sS'nilearn/sparse_models/tests/test_fista.py'
p584
I4
sS'plot_haxby_smoothlasso.py'
p585
I36
sS'nilearn/sparse_models/tests/test_tv.py'
p586
I6
sS'nilearn/decoding/sparse_models/operators.py'
p587
I8
sS'nilearn/sparse_models/tests/test_estimators.py'
p588
I6
sS'nilearn/decoding/sparse_models/tests/test_common.py'
p589
I8
sS'nilearn/decoding/tests/test_estimators.py'
p590
I6
sS'nilearn/plotting/tests/test_img_plotting.py'
p591
I3
sS'examples/decoding/plot_haxby_space_net.py'
p592
I12
sS'setup.py'
p593
I1
sS'nilearn/sparse_models/tests/test_cv.py'
p594
I16
sS'examples/decoding/plot_poldrack_space_net.py'
p595
I12
sS'nilearn/decoding/tests/test_operators.py'
p596
I18
sS'nilearn/decoding/_cv_tricks.py'
p597
I4
sS'nilearn/decoding/sparse_models/tests/test_tv.py'
p598
I14
sS'nilearn/_utils/fixes/__init__.py'
p599
I14
sS'nilearn/decomposition/dict_learning.py'
p600
I3
sS'nilearn/datasets/tests/test_func.py'
p601
I3
sS'nilearn/decomposition/canica.py'
p602
I5
sS'nilearn/decoding/tests/simulate_smooth_lasso_data.py'
p603
I6
sS'nilearn/decoding/space_net_solvers.py'
p604
I62
sS'nilearn/sparse_models/prox_tv_l1.py'
p605
I6
sS'nilearn/decoding/estimators.py'
p606
I4
sS'readme.rst'
p607
I2
sS'plot_haxby_spacenet.py'
p608
I12
sS'nilearn/image/tests/test_resampling.py'
p609
I1
sS'nilearn/sparse_models/_cv_tricks.py'
p610
I20
sS'plot_oasis_smoothlasso_vbm.py'
p611
I46
sS'nilearn/sparse_models/estimators.py'
p612
I16
sS'doc/modules/reference.rst'
p613
I3
sS'nilearn/decoding/sparse_models/_cv_tricks.py'
p614
I12
sS'.gitignore'
p615
I1
sS'nilearn/plotting/find_cuts.py'
p616
I6
sS'nilearn/decoding/sparse_models/__init__.py'
p617
I4
sS'nilearn/decoding/sparse_models/tests/test_cv.py'
p618
I14
sS'nilearn/decoding/tests/test_tv.py'
p619
I21
sS'nilearn/tests/test_extmath.py'
p620
I2
sS'nilearn/decoding/tests/test_same_api.py'
p621
I69
sS'nilearn/decoding/operators.py'
p622
I4
sS'nilearn/decoding/tests/test_objective_functions.py'
p623
I26
sS'examples/plot_oasis_vbm_space_net.py'
p624
I12
sS'nilearn/decoding/sparse_models/common.py'
p625
I22
sS'nilearn/image/image.py'
p626
I1
sS'examples/plot_a_mixed_gambles_space_net.py'
p627
I2
sS'nilearn/decoding/sparse_models/tests/test_sklearn_compatibility.py'
p628
I8
sS'nilearn/_utils/fixes/sklearn_center_data.py'
p629
I6
sS'nilearn/datasets/func.py'
p630
I6
sS'nilearn/sparse_models/image.py'
p631
I6
sS'nilearn/_utils/testing.py'
p632
I1
sS'nilearn/sparse_models/tests/__init__.py'
p633
I4
sS'nilearn/decoding/sparse_models/image.py'
p634
I6
sS'nilearn/decoding/fista.py'
p635
I63
sS'nilearn/decoding/searchlight.py'
p636
I2
sS'plot_oasis_vbm_spacenet.py'
p637
I8
sS'doc/decoding/estimator_choice.rst'
p638
I3
sS'nilearn/decoding/tests/test_sklearn_compatibility.py'
p639
I23
sS'nilearn/decoding/sparse_models/cv.py'
p640
I40
sS'nilearn/decoding/sparse_models/tests/__init__.py'
p641
I4
sS'examples/plot_a_oasis_vbm_space_net.py'
p642
I2
sS'nilearn/masking.py'
p643
I3
sS'nilearn/decoding/tests/test_cv.py'
p644
I14
sS'examples/plot_haxby_space_net.py'
p645
I6
sS'nilearn/decoding/sparse_models/tests/test_aaa.py'
p646
I4
sS'examples/decoding/plot_mixed_gambles_space_net.py'
p647
I11
sS'nilearn/sparse_models/tests/test_same_api.py'
p648
I6
sS'nilearn/tests/test_masking.py'
p649
I5
sS'nilearn/decoding/smooth_lasso.py'
p650
I6
sS'nilearn/sparse_models/tv.py'
p651
I20
sS'nilearn/sparse_models/tests/test_smooth_lasso.py'
p652
I8
sS'nilearn/_utils/fixes/sklearn_basic_backports.py'
p653
I15
sS'nilearn/decoding/sparse_models/tests/test_estimators.py'
p654
I6
sS'nilearn/decoding/tests/simulate_graph_net_data.py'
p655
I2
sS'nilearn/_utils/fixes/_ravel.py'
p656
I4
sS'nilearn/decoding/sparse_models/tests/test_fista.py'
p657
I10
sS'nilearn/decoding/tv.py'
p658
I8
sS'nilearn/decomposition/tests/test_canica.py'
p659
I13
sS'makefile'
p660
I6
sS'examples/plot_haxby_simple.py'
p661
I2
sS'nilearn/plotting/tests/test_find_cuts.py'
p662
I6
sS'plot_poldrack_space_net.py'
p663
I46
sS'nilearn/decoding/sparse_models/tests/test_objective_functions.py'
p664
I4
sS'nilearn/sparse_models/smooth_lasso.py'
p665
I12
sS'examples/02_decoding/plot_haxby_space_net.py'
p666
I1
sS'nilearn/sparse_models/tests/test_sklearn_basic_backports.py'
p667
I8
sS'doc/decoding/space_net.rst'
p668
I11
sS'nilearn/decoding/tests/test_smooth_lasso.py'
p669
I49
sS'nilearn/decoding/sparse_models/tests/test_operators.py'
p670
I6
sS'doc/decoding/decoding_simulated.rst'
p671
I1
sS'doc/decoding/decoding_tutorial.rst'
p672
I5
sS'plot_haxby_space_net.py'
p673
I70
sS'nilearn/decoding/sparse_models/tests/test_sklearn_basic_backports.py'
p674
I10
sS'examples/03_connectivity/plot_canica_resting_state.py'
p675
I1
sS'nilearn/decoding/sparse_models/smooth_lasso.py'
p676
I16
sS'plot_oasis_vbm_space_net.py'
p677
I10
sS'doc/index.rst'
p678
I4
sS'nilearn/decoding/tests/test_space_net.py'
p679
I113
sS'doc/decoding/index.rst'
p680
I9
sS'nilearn/decoding/__init__.py'
p681
I4
sS'nilearn/sparse_models/common.py'
p682
I16
sS'nilearn/decoding/sparse_models/estimators.py'
p683
I18
sS'nilearn/decoding/tests/test_fista.py'
p684
I24
sS'nilearn/sparse_models/optim.py'
p685
I4
sS'load_poldrack.py'
p686
I4
sS'nilearn/decoding/sparse_models/tests/simulate_smooth_lasso_data.py'
p687
I6
sS'nilearn/decoding/sparse_models/tests/test_smooth_lasso.py'
p688
I12
sS'nilearn/decoding/sparse_models/tests/test_same_api.py'
p689
I10
sS'nilearn/decoding/space_net.py'
p690
I282
sS'nilearn/datasets.py'
p691
I10
sS'nilearn/sparse_models/tests/test_operators.py'
p692
I8
sS'nilearn/decoding/sparse_models/fista.py'
p693
I8
sS'nilearn/sparse_models/cv.py'
p694
I32
sS'nilearn/_utils/extmath.py'
p695
I1
sS'nilearn/sparse_models/fista.py'
p696
I8
sS'examples/decoding/plot_oasis_vbm.py'
p697
I4
sS'nilearn/image/resampling.py'
p698
I1
sS'nilearn/decoding/sparse_models/objective_functions.py'
p699
I6
sS'nilearn/decoding/cv.py'
p700
I12
sS'nilearn/decoding/objective_functions.py'
p701
I55
sS'nilearn/sparse_models/tests/test_common.py'
p702
I8
sS'nilearn/sparse_models/operators.py'
p703
I14
sS'examples/decoding/plot_oasis_vbm_space_net.py'
p704
I21
sS'nilearn/decoding/proximal_operators.py'
p705
I52
ssS'dimitripapadopoulos'
p706
g1
(g5
tRp707
S'nilearn/datasets/description/brainomics_localizer.rst'
p708
I1
ssS'schwarty'
p709
g1
(g5
tRp710
S'nilearn/tests/test_testing.py'
p711
I1
sS'nilearn/_utils/testing.py'
p712
I2
sS'nisl/utils.py'
p713
I1
ssS'chrisfilo'
p714
g1
(g5
tRp715
S'nilearn/tests/test_datasets.py'
p716
I1
sS'doc/modules/reference.rst'
p717
I1
sS'examples/plot_nilearn_101.py'
p718
I2
sS'examples/manipulating_visualizing/plot_demo_glass_brain_extensive.py'
p719
I1
sS'plot_nifti_simple.py'
p720
I1
sS'nilearn/image/__init__.py'
p721
I1
sS'plot_mask_computation.py'
p722
I1
sS'plot_rest_clustering.py'
p723
I1
sS'plot_haxby_simple.py'
p724
I2
sS'nilearn/plotting/img_plotting.py'
p725
I23
sS'plot_roi_extraction.py'
p726
I3
sS'nilearn/plotting/tests/test_img_plotting.py'
p727
I1
sS'plot_haxby_anova_svm.py'
p728
I1
sS'nilearn/datasets.py'
p729
I1
sS'nilearn/_utils/testing.py'
p730
I1
sS'examples/manipulating_visualizing/plot_demo_more_plotting.py'
p731
I3
sS'plot_canica_resting_state.py'
p732
I3
sS'plot_ica_resting_state.py'
p733
I2
sS'doc/manipulating_visualizing/plotting.rst'
p734
I3
sS'nilearn/image/resampling.py'
p735
I1
sS'plot_haxby_searchlight.py'
p736
I2
sS'nilearn/plotting/__init__.py'
p737
I2
sS'nilearn/data/avg152t1_brain.nii.gz'
p738
I1
sS'examples/manipulating_visualizing/plot_demo_glass_brain.py'
p739
I6
sS'nilearn/plotting/displays.py'
p740
I5
sS'plot_visualization.py'
p741
I3
sS'nilearn/plotting/cm.py'
p742
I1
sS'plot_demo_plotting.py'
p743
I1
sS'circle.yml'
p744
I22
sS'nilearn/plotting/slicers.py'
p745
I7
ssS'iglpdc'
p746
g1
(g5
tRp747
S'nilearn/decoding/searchlight.py'
p748
I1
sS'nilearn/decomposition/multi_pca.py'
p749
I1
sS'nilearn/input_data/nifti_maps_masker.py'
p750
I1
sS'nilearn/input_data/base_masker.py'
p751
I1
sS'nilearn/image/resampling.py'
p752
I1
sS'nilearn/plotting/img_plotting.py'
p753
I1
sS'nilearn/_utils/niimg.py'
p754
I1
sS'nilearn/input_data/nifti_labels_masker.py'
p755
I1
sS'nilearn/image/image.py'
p756
I1
sS'nilearn/_utils/niimg_conversions.py'
p757
I1
sS'nilearn/input_data/nifti_masker.py'
p758
I1
sS'nilearn/masking.py'
p759
I1
sS'nilearn/input_data/nifti_spheres_masker.py'
p760
I1
sS'nilearn/decomposition/dict_learning.py'
p761
I1
sS'nilearn/input_data/multi_nifti_masker.py'
p762
I1
sS'nilearn/regions/signal_extraction.py'
p763
I1
sS'nilearn/decoding/space_net.py'
p764
I1
sS'nilearn/decomposition/base.py'
p765
I1
sS'nilearn/plotting/displays.py'
p766
I1
ssS'joaoloula'
p767
g1
(g5
tRp768
S'doc/modules/reference.rst'
p769
I5
sS'nilearn/connectome/__init__.py'
p770
I1
sS'examples/02_decoding/plot_haxby_grid_search.py'
p771
I2
sS'nilearn/datasets/__init__.py'
p772
I3
sS'doc/themes/nilearn/static/nature.css_t'
p773
I1
sS'nilearn/connectome/connectivity_matrices.py'
p774
I1
sS'nilearn/datasets/description/destrieux_surface.rst'
p775
I2
sS'nilearn/input_data/nifti_maps_masker.py'
p776
I1
sS'nilearn/plotting/img_plotting.py'
p777
I1
sS'nilearn/tests/test_niimg_conversions.py'
p778
I1
sS'nilearn/tests/test_niimg.py'
p779
I1
sS'doc/themes/nilearn/static/copybutton.js'
p780
I1
sS'nilearn/datasets/description/fsaverage5.rst'
p781
I2
sS'nilearn/datasets/func.py'
p782
I9
sS'nilearn/input_data/tests/test_nifti_maps_masker.py'
p783
I1
sS'examples/01_plotting/plot_surf_atlas.py'
p784
I2
sS'nilearn/_utils/testing.py'
p785
I1
sS'nilearn/datasetsc'
p786
I1
sS'nilearn/_utils/niimg_conversions.py'
p787
I1
sS'nilearn/_utils/niimg.py'
p788
I1
sS'nilearn/connectome/jaccard_index.py'
p789
I3
sS'examples/02_decoding/plot_haxby_searchlight.py'
p790
I2
sS'nilearn/connectome/tests/test_connectivity_matrices.py'
p791
I1
sS'nilearn/datasets/tests/test_func.py'
p792
I1
sS'examples/01_plotting/plot_surf_stat_map.py'
p793
I2
sS'examples/02_decoding/plot_haxby_anova_svm.py'
p794
I2
sS'doc/decoding/space_net.rst'
p795
I1
sS'nilearn/datasets/atlas.py'
p796
I3
sS'nilearn/plotting/__init__.py'
p797
I1
sS'doc/decoding/decoding_tutorial.rst'
p798
I1
sS'doc/conf.py'
p799
I1
sS'examples/05_advanced/plot_haxby_mass_univariate.py'
p800
I3
sS'nilearn/datasets/description/nki_enhanced_surface.rst'
p801
I1
sS'examples/02_decoding/plot_haxby_multiclass.py'
p802
I2
ssS'moritz.boos@uni-oldenburg.de'
p803
g1
(g5
tRp804
S'nilearn/plotting/matrix_plotting.py'
p805
I2
sS'examples/03_connectivity/plot_simulated_connectome.py'
p806
I2
sS'examples/03_connectivity/plot_probabilistic_atlas_extraction.py'
p807
I2
sS'nilearn/plotting/__init__.py'
p808
I1
sS'examples/03_connectivity/plot_extract_regions_dictlearning_maps.py'
p809
I2
sS'examples/03_connectivity/plot_sphere_based_connectome.py'
p810
I2
sS'nilearn/plotting/tests/test_displays.py'
p811
I1
sS'examples/03_connectivity/plot_signal_extraction.py'
p812
I2
sS'examples/03_connectivity/plot_multi_subject_connectome.py'
p813
I2
sS'examples/03_connectivity/plot_inverse_covariance_connectome.py'
p814
I2
sS'examples/01_plotting/plot_visualize_megatrawls_netmats.py'
p815
I2
ssS'jehane'
p816
g1
(g5
tRp817
S'nilearn/version.py'
p818
I1
sS'readme.rst'
p819
I1
ssS'kamalakerdadi'
p820
g1
(g5
tRp821
S'doc/connectivity/functional_connectomes.rst'
p822
I5
sS'examples/05_advanced/plot_localizer_simple_analysis.py'
p823
I3
sS'doc/manipulating_images/masker_objects.rst'
p824
I2
sS'examples/02_decoding/plot_haxby_space_net.py'
p825
I8
sS'examples/03_connectivity/plot_extract_regions_dictlearning_maps.py'
p826
I3
sS'nilearn/datasets/__init__.py'
p827
I12
sS'examples/decoding/plot_haxby_stimuli.py'
p828
I1
sS'doc/manipulating_visualizing/manipulating_images.rst'
p829
I1
sS'examples/manipulating_visualizing/plot_demo_glass_brain_extensive.py'
p830
I1
sS'nilearn/decomposition/dict_learning.py'
p831
I2
sS'examples/04_manipulating_images/plot_extract_rois_smith_atlas.py'
p832
I1
sS'examples/plotting/plot_haxby_masks.py'
p833
I2
sS'examples/advanced/plot_localizer_mass_univariate_methods.py'
p834
I2
sS'examples/manipulating_visualizing/plot_nifti_simple.py'
p835
I1
sS'examples/manipulating_visualizing/plot_probabilistic_atlas.py'
p836
I2
sS'doc/connectivity/index.rst'
p837
I3
sS'examples/connectivity/plot_simulated_connectome.py'
p838
I2
sS'nilearn/input_data/nifti_labels_masker.py'
p839
I3
sS'doc/sphinxext/sphinx_gallery/__init__.py'
p840
I1
sS'examples/manipulating_images/plot_extract_rois_statistical_maps.py'
p841
I2
sS'examples/01_plotting/plot_dim_plotting.py'
p842
I2
sS'examples/connectivity/plot_3d_map_to_extract_regions.py'
p843
I3
sS'examples/04_manipulating_images/plot_extract_rois_statistical_maps.py'
p844
I1
sS'nilearn/plotting/img_plotting.py'
p845
I33
sS'examples/plotting/plot_dim_plotting.py'
p846
I2
sS'examples/plotting/plot_demo_glass_brain_extensive.py'
p847
I2
sS'nilearn/tests/test_niimg.py'
p848
I3
sS'nilearn/_utils/cache_mixin.py'
p849
I1
sS'nilearn/plotting/tests/test_displays.py'
p850
I12
sS'nilearn/plotting/tests/test_img_plotting.py'
p851
I11
sS'nilearn/plotting/glass_brain.py'
p852
I2
sS'examples/02_decoding/plot_haxby_stimuli.py'
p853
I3
sS'examples/decoding/plot_haxby_space_net.py'
p854
I1
sS'doc/03_connectivity/parcellating.rst'
p855
I2
sS'doc/building_blocks/manual_pipeline.rst'
p856
I2
sS'examples/advanced/readme.txt'
p857
I2
sS'nilearn/datasets/struct.py'
p858
I5
sS'nilearn/input_data/tests/test_nifti_maps_masker.py'
p859
I8
sS'nilearn/signal.py'
p860
I4
sS'nilearn/region_decomposition/__init__.py'
p861
I3
sS'examples/manipulating_visualizing/plot_dim_plotting.py'
p862
I1
sS'nilearn/_utils/fixes/__init__.py'
p863
I4
sS'examples/03_connectivity/plot_inverse_covariance_connectome.py'
p864
I7
sS'nilearn/input_data/nifti_masker.py'
p865
I2
sS'examples/connectivity/plot_inverse_covariance_connectome.py'
p866
I2
sS'examples/manipulating_visualizing/plot_smooth_mean_image.py'
p867
I1
sS'examples/04_manipulating_images/readme.txt'
p868
I1
sS'nilearn/externals/skimage/random_walker_segmentation.py'
p869
I5
sS'examples/03_connectivity/plot_extract_regions_canica_maps.py'
p870
I2
sS'nilearn/datasets/tests/test_func.py'
p871
I19
sS'nilearn/decoding/tests/test_graph_net.py'
p872
I2
sS'examples/readme.txt'
p873
I1
sS'examples/04_manipulating_images/plot_resample_to_template.py'
p874
I1
sS'doc/sphinxext/sphinx_gallery/gen_rst.py'
p875
I1
sS'doc/introduction.rst'
p876
I3
sS'doc/manipulating_images/input_output.rst'
p877
I6
sS'doc/03_connectivity/functional_connectomes.rst'
p878
I2
sS'nilearn/datasets/atlas.py'
p879
I16
sS'examples/01_plotting/plot_multiscale_parcellations.py'
p880
I5
sS'examples/connectivity/plot_signal_extraction.py'
p881
I1
sS'examples/connectivity/plot_connectivity_measures.py'
p882
I1
sS'examples/05_advanced/plot_haxby_mass_univariate.py'
p883
I4
sS'nilearn/region_decomposition/region_extractor.py'
p884
I4
sS'nilearn/datasets/tests/test_neurovault.py'
p885
I1
sS'doc/manipulating_images/data_preparation.rst'
p886
I3
sS'doc/sphinxext/sphinx_gallery/_static/gallery.css'
p887
I1
sS'examples/manipulating_visualizing/plot_demo_glass_brain.py'
p888
I1
sS'readme.rst'
p889
I4
sS'doc/decoding/searchlight.rst'
p890
I5
sS'doc/sphinxext/sphinx_gallery/docs_resolv.py'
p891
I1
sS'nilearn/input_data/multi_nifti_masker.py'
p892
I2
sS'.travis.yml'
p893
I7
sS'examples/decoding/plot_haxby_grid_search.py'
p894
I4
sS'nilearn/externals/__init__.py'
p895
I2
sS'nilearn/_utils/compat.py'
p896
I3
sS'examples/manipulating_images/plot_roi_extraction.py'
p897
I2
sS'doc/modules/reference.rst'
p898
I13
sS'doc/03_connectivity/region_extraction.rst'
p899
I2
sS'examples/03_connectivity/plot_seed_to_voxel_correlation.py'
p900
I1
sS'examples/03_connectivity/plot_connectivity_measures.py'
p901
I4
sS'nilearn/datasets/utils.py'
p902
I3
sS'examples/plotting/plot_demo_glass_brain.py'
p903
I2
sS'nilearn/externals/skimage/tests/test_skimage_peak.py'
p904
I2
sS'nilearn/plotting/find_cuts.py'
p905
I10
sS'examples/03_connectivity/plot_signal_extraction.py'
p906
I3
sS'nilearn/datasets/tests/test_struct.py'
p907
I8
sS'doc/developers/group_sparse_covariance.rst'
p908
I2
sS'nilearn/plotting/surf_plotting.py'
p909
I3
sS'examples/decoding/plot_miyawaki_reconstruction.py'
p910
I1
sS'examples/01_plotting/plot_surf_atlas.py'
p911
I2
sS'doc/plotting/plotting.rst'
p912
I3
sS'nilearn/version.py'
p913
I6
sS'examples/plotting/plot_visualization.py'
p914
I2
sS'nilearn/image/__init__.py'
p915
I1
sS'nilearn/region_extraction/regionextractor.py'
p916
I7
sS'nilearn/_utils/testing.py'
p917
I2
sS'nilearn/tests/test_extmath.py'
p918
I3
sS'examples/03_connectivity/plot_adhd_spheres.py'
p919
I2
sS'examples/manipulating_visualizing/plot_visualization.py'
p920
I1
sS'nilearn/connectome/tests/test_group_sparse_covariance.py'
p921
I1
sS'nilearn/externals/skimage/peak.py'
p922
I4
sS'nilearn/tests/test_niimg_conversions.py'
p923
I5
sS'nilearn/image/tests/test_resampling.py'
p924
I6
sS'nilearn/datasets/description/msdl_atlas.rst'
p925
I2
sS'nilearn/image/image.py'
p926
I21
sS'doc/03_connectivity/resting_state_networks.rst'
p927
I2
sS'examples/01_plotting/plot_overlay.py'
p928
I3
sS'examples/01_plotting/plot_demo_more_plotting.py'
p929
I9
sS'examples/01_plotting/plot_glass_brain_with_contours.py'
p930
I2
sS'doc/sphinxext/sphinx_gallery/notebook.py'
p931
I1
sS'examples/connectivity/plot_extract_regions_statistical_maps.py'
p932
I11
sS'examples/02_decoding/plot_haxby_full_analysis.py'
p933
I5
sS'examples/manipulating_visualizing/plot_haxby_mass_univariate.py'
p934
I4
sS'examples/02_decoding/plot_mixed_gambles_space_net.py'
p935
I2
sS'nilearn/datasets/func.py'
p936
I34
sS'examples/manipulating_visualizing/plot_prob_atlas.py'
p937
I9
sS'examples/03_connectivity/plot_rest_clustering.py'
p938
I1
sS'examples/connectivity/readme.txt'
p939
I1
sS'examples/03_connectivity/plot_simulated_connectome.py'
p940
I4
sS'doc/02_decoding/space_net.rst'
p941
I2
sS'nilearn/_utils/niimg.py'
p942
I5
sS'examples/manipulating_visualizing/plot_demo_more_plotting.py'
p943
I1
sS'examples/02_decoding/plot_miyawaki_reconstruction.py'
p944
I2
sS'examples/connectivity/plot_canica_resting_state.py'
p945
I1
sS'nilearn/_utils/niimg_conversions.py'
p946
I5
sS'examples/decoding/plot_simulated_data.py'
p947
I1
sS'doc/03_connectivity/connectome_extraction.rst'
p948
I2
sS'examples/05_advanced/plot_neurovault_meta_analysis.py'
p949
I1
sS'examples/04_manipulating_images/plot_affine_transformation.py'
p950
I2
sS'examples/plotting/plot_demo_plotting.py'
p951
I2
sS'examples/02_decoding/plot_haxby_searchlight.py'
p952
I6
sS'examples/02_decoding/plot_haxby_multiclass.py'
p953
I7
sS'nilearn/connectome/connectivity_matrices.py'
p954
I2
sS'nilearn/datasets/description/megatrawls.rst'
p955
I3
sS'examples/01_plotting/plot_surf_stat_map.py'
p956
I3
sS'examples/03_connectivity/plot_extract_regions_dictlearn_maps.py'
p957
I2
sS'doc/01_plotting/index.rst'
p958
I2
sS'nilearn/decoding/searchlight.py'
p959
I3
sS'examples/02_decoding/plot_haxby_anova_svm.py'
p960
I5
sS'nilearn/regions/__init__.py'
p961
I5
sS'doc/user_guide.rst'
p962
I3
sS'nilearn/tests/test_ndimage.py'
p963
I5
sS'examples/manipulating_visualizing/readme.txt'
p964
I1
sS'continuous_integration/show-python-packages-versions.py'
p965
I3
sS'examples/manipulating_visualizing/plot_overlay.py'
p966
I3
sS'examples/02_decoding/plot_oasis_vbm.py'
p967
I5
sS'examples/decoding/plot_oasis_vbm.py'
p968
I1
sS'examples/manipulating_visualizing/plot_haxby_masks.py'
p969
I1
sS'nilearn/decomposition/base.py'
p970
I2
sS'examples/01_plotting/readme.txt'
p971
I1
sS'examples/manipulating_images/plot_extract_rois_smith_atlas.py'
p972
I2
sS'nilearn/masking.py'
p973
I3
sS'nilearn/plotting/glass_brain_files/brain_schematics_back.json'
p974
I1
sS'examples/decoding/plot_haxby_multiclass.py'
p975
I4
sS'circle.yml'
p976
I4
sS'examples/connectivity/plot_extract_regions_canica_maps.py'
p977
I16
sS'doc/02_decoding/decoding_tutorial.rst'
p978
I2
sS'nilearn/externals/skimage/dtype.py'
p979
I2
sS'nilearn/tests/test_masking.py'
p980
I3
sS'examples/connectivity/plot_extract_regions_smith_atlas_networks.py'
p981
I10
sS'nilearn/plotting/tests/data/test.label'
p982
I1
sS'examples/03_connectivity/plot_compare_resting_state_decomposition.py'
p983
I2
sS'doc/02_decoding/estimator_choice.rst'
p984
I2
sS'examples/manipulating_images/plot_affine_transformation.py'
p985
I2
sS'nilearn/connectome/__init__.py'
p986
I3
sS'nilearn/datasets/tests/test_atlas.py'
p987
I14
sS'nilearn/region/autoextractor.py'
p988
I2
sS'examples/03_connectivity/readme.txt'
p989
I1
sS'examples/01_plotting/plot_prob_atlas.py'
p990
I1
sS'nilearn/input_data/tests/test_nifti_masker.py'
p991
I1
sS'nilearn/region_decomposition/tests/test_region_extractor.py'
p992
I2
sS'nilearn/plotting/glass_brain_files/brain_schematics_back.svg'
p993
I1
sS'examples/04_manipulating_images/plot_extract_regions_labels_image.py'
p994
I4
sS'examples/plotting/plot_prob_atlas.py'
p995
I2
sS'examples/advanced/plot_haxby_mass_univariate.py'
p996
I2
sS'examples/plotting/plot_atlas.py'
p997
I2
sS'examples/manipulating_images/readme.txt'
p998
I2
sS'nilearn/plotting/tests/test_matrix_plotting.py'
p999
I1
sS'nilearn/input_data/tests/test_multi_nifti_masker.py'
p1000
I2
sS'examples/manipulating_visualizing/plot_affine_transformation.py'
p1001
I1
sS'examples/connectivity/plot_rest_clustering.py'
p1002
I1
sS'doc/connectivity/parcellating.rst'
p1003
I3
sS'nilearn/plotting/tests/test_surf_plotting.py'
p1004
I3
sS'examples/manipulating_visualizing/plot_atlas.py'
p1005
I1
sS'nilearn/tests/test_testing.py'
p1006
I2
sS'examples/03_connectivity/plot_sphere_based_connectome.py'
p1007
I1
sS'examples/connectivity/plot_extract_regions_dictlearn_maps.py'
p1008
I5
sS'examples/01_plotting/plot_demo_glass_brain_extensive.py'
p1009
I5
sS'doc/04_manipulating_images/manipulating_images.rst'
p1010
I2
sS'nilearn/plotting/matrix_plotting.py'
p1011
I1
sS'nilearn/datasets/description/basc_multiscale_2015.rst'
p1012
I2
sS'examples/manipulating_visualizing/plot_demo_plotting.py'
p1013
I1
sS'nilearn/_utils/segmentation.py'
p1014
I6
sS'nilearn/regions/signal_extraction.py'
p1015
I4
sS'nilearn/regions/tests/test_region_extractor.py'
p1016
I24
sS'nilearn/plotting/tests/test_find_cuts.py'
p1017
I7
sS'nilearn/input_data/base_masker.py'
p1018
I1
sS'examples/connectivity/plot_4dmaps_to_extract_regions.py'
p1019
I3
sS'examples/decoding/plot_oasis_vbm_space_net.py'
p1020
I1
sS'examples/plotting/plot_overlay.py'
p1021
I2
sS'examples/manipulating_visualizing/plot_mask_computation.py'
p1022
I1
sS'doc/02_decoding/index.rst'
p1023
I2
sS'nilearn/_utils/ndimage.py'
p1024
I4
sS'examples/connectivity/plot_multi_subject_connectome.py'
p1025
I3
sS'doc/manipulating_visualizing/index.rst'
p1026
I1
sS'examples/plot_decoding_tutorial.py'
p1027
I3
sS'examples/decoding/plot_haxby_different_estimators.py'
p1028
I2
sS'doc/manipulating_images/manipulating_images.rst'
p1029
I10
sS'nilearn/group_sparse_covariance.py'
p1030
I1
sS'examples/plot_nilearn_101.py'
p1031
I2
sS'examples/05_advanced/plot_ica_resting_state.py'
p1032
I1
sS'examples/connectivity/plot_ica_resting_state.py'
p1033
I1
sS'examples/01_plotting/plot_haxby_masks.py'
p1034
I10
sS'doc/manipulating_visualizing/plotting.rst'
p1035
I7
sS'doc/02_decoding/searchlight.rst'
p1036
I2
sS'doc/decoding/decoding_intro.rst'
p1037
I6
sS'nilearn/datasets/description/cobre_niak.rst'
p1038
I2
sS'doc/decoding/estimator_choice.rst'
p1039
I3
sS'doc/decoding/space_net.rst'
p1040
I3
sS'nilearn/regions/tests/test_signal_extraction.py'
p1041
I2
sS'doc/sphinxext/sphinx_gallery/downloads.py'
p1042
I1
sS'doc/decoding/decoding_simulated.rst'
p1043
I2
sS'doc/decoding/decoding_tutorial.rst'
p1044
I4
sS'doc/conf.py'
p1045
I1
sS'examples/advanced/plot_ica_resting_state.py'
p1046
I2
sS'doc/manipulating_images/index.rst'
p1047
I3
sS'examples/02_decoding/readme.txt'
p1048
I1
sS'doc/whats_new.rst'
p1049
I47
sS'nilearn/input_data/nifti_spheres_masker.py'
p1050
I2
sS'examples/03_connectivity/plot_multi_subject_connectome.py'
p1051
I4
sS'examples/04_manipulating_images/plot_mask_computation.py'
p1052
I2
sS'nilearn/datasets/neurovault.py'
p1053
I1
sS'examples/03_connectivity/plot_group_level_connectivity.py'
p1054
I2
sS'examples/03_connectivity/plot_canica_resting_state.py'
p1055
I2
sS'nilearn/datasets/description/cobre.rst'
p1056
I1
sS'nilearn/datasets/description/urchs_multiscale_2015.rst'
p1057
I2
sS'examples/04_manipulating_images/plot_roi_extraction.py'
p1058
I9
sS'nilearn/plotting/displays.py'
p1059
I29
sS'nilearn/decoding/tests/test_searchlight.py'
p1060
I4
sS'doc/02_decoding/decoding_simulated.rst'
p1061
I2
sS'nilearn/externals/skimage/_rank_order.py'
p1062
I2
sS'examples/02_decoding/plot_miyawaki_encoding.py'
p1063
I2
sS'examples/01_plotting/plot_demo_glass_brain.py'
p1064
I2
sS'doc/index.rst'
p1065
I2
sS'examples/02_decoding/plot_haxby_grid_search.py'
p1066
I5
sS'examples/02_decoding/plot_haxby_different_estimators.py'
p1067
I5
sS'nilearn/region_extraction/simplethresholdextractor.py'
p1068
I3
sS'doc/decoding/index.rst'
p1069
I2
sS'examples/05_advanced/plot_ica_neurovault.py'
p1070
I1
sS'examples/05_advanced/plot_localizer_mass_univariate_methods.py'
p1071
I4
sS'examples/decoding/plot_haxby_full_analysis.py'
p1072
I2
sS'examples/decoding/readme.txt'
p1073
I1
sS'nilearn/input_data/nifti_maps_masker.py'
p1074
I6
sS'examples/decoding/plot_haxby_searchlight.py'
p1075
I4
sS'nilearn/connectome/tests/test_connectivity_matrices.py'
p1076
I1
sS'examples/manipulating_visualizing/plot_visualize_megatrawls_netmats.py'
p1077
I9
sS'doc/04_manipulating_images/index.rst'
p1078
I2
sS'doc/building_blocks/neurovault.rst'
p1079
I1
sS'doc/connectivity/region_extraction.rst'
p1080
I11
sS'nilearn/input_data/tests/test_nifti_labels_masker.py'
p1081
I5
sS'examples/01_plotting/plot_atlas.py'
p1082
I2
sS'nilearn/externals/skimage/__init__.py'
p1083
I2
sS'examples/plotting/readme.txt'
p1084
I2
sS'nilearn/tests/test_param_validation.py'
p1085
I5
sS'nilearn/tests/test_segmentation.py'
p1086
I6
sS'continuous_integration/install.sh'
p1087
I1
sS'examples/plotting/plot_demo_more_plotting.py'
p1088
I2
sS'nilearn/datasets/description/icbm152_2009.rst'
p1089
I2
sS'examples/03_connectivity/plot_probabilistic_atlas_extraction.py'
p1090
I6
sS'examples/04_manipulating_images/plot_nifti_simple.py'
p1091
I1
sS'nilearn/decoding/space_net.py'
p1092
I5
sS'nilearn/image/tests/test_image.py'
p1093
I15
sS'nilearn/datasets.py'
p1094
I1
sS'examples/manipulating_visualizing/plot_extract_rois_smith_atlas.py'
p1095
I2
sS'nilearn/_utils/extmath.py'
p1096
I3
sS'examples/manipulating_images/plot_smooth_mean_image.py'
p1097
I2
sS'examples/05_advanced/readme.txt'
p1098
I1
sS'doc/themes/nilearn/layout.html'
p1099
I2
sS'examples/02_decoding/plot_oasis_vbm_space_net.py'
p1100
I2
sS'nilearn/externals/skimage/tests/test_skimage_segmentation.py'
p1101
I3
sS'examples/04_manipulating_images/plot_smooth_mean_image.py'
p1102
I1
sS'nilearn/decoding/tests/test_same_api.py'
p1103
I1
sS'examples/01_plotting/plot_demo_plotting.py'
p1104
I8
sS'examples/manipulating_visualizing/plot_roi_extraction.py'
p1105
I1
sS'appveyor.yml'
p1106
I6
sS'examples/decoding/plot_mixed_gambles_space_net.py'
p1107
I1
sS'nilearn/regions/tests/__init__.py'
p1108
I1
sS'examples/connectivity/plot_adhd_spheres.py'
p1109
I1
sS'nilearn/_utils/param_validation.py'
p1110
I6
sS'doc/connectivity/resting_state_networks.rst'
p1111
I4
sS'doc/sphinxext/sphinx_gallery/backreferences.py'
p1112
I1
sS'nilearn/tests/test_group_sparse_covariance.py'
p1113
I1
sS'doc/sphinxext/sphinx_gallery/gen_gallery.py'
p1114
I2
sS'doc/manipulating_visualizing/data_preparation.rst'
p1115
I1
sS'nilearn/image/resampling.py'
p1116
I12
sS'doc/04_manipulating_images/data_preparation.rst'
p1117
I2
sS'nilearn/regions/region_extractor.py'
p1118
I35
sS'examples/manipulating_images/plot_nifti_simple.py'
p1119
I2
sS'nilearn/plotting/__init__.py'
p1120
I5
sS'examples/manipulating_visualizing/plot_localizer_mass_univariate_methods.py'
p1121
I1
sS'doc/building_blocks/index.rst'
p1122
I1
sS'examples/01_plotting/plot_visualization.py'
p1123
I5
sS'examples/connectivity/plot_probabilistic_atlas_extraction.py'
p1124
I2
sS'doc/03_connectivity/index.rst'
p1125
I2
sS'nilearn/tests/test_cache_mixin.py'
p1126
I1
sS'nilearn/tests/test_signal.py'
p1127
I2
sS'examples/manipulating_visualizing/plot_extract_rois_statistical_maps.py'
p1128
I3
sS'nilearn/__init__.py'
p1129
I1
sS'doc/plotting/index.rst'
p1130
I9
sS'doc/connectivity/connectome_extraction.rst'
p1131
I6
sS'nilearn/datasets/description/neurovault.rst'
p1132
I1
sS'examples/decoding/plot_haxby_anova_svm.py'
p1133
I3
sS'nilearn/connectome/group_sparse_covariance.py'
p1134
I1
sS'examples/01_plotting/plot_visualize_megatrawls_netmats.py'
p1135
I3
sS'examples/manipulating_images/plot_mask_computation.py'
p1136
I2
sS'examples/02_decoding/plot_simulated_data.py'
p1137
I2
sS'examples/connectivity/plot_compare_resting_state_decomposition.py'
p1138
I1
sS'doc/sphinxext/sphinx_gallery/_static/broken_stamp.svg'
p1139
I1
ssS'kshmelkov'
p1140
g1
(g5
tRp1141
S'doc/building_blocks/data_preparation.rst'
p1142
I3
sS'examples/connectivity/plot_adhd_covariance.py'
p1143
I2
ssS'alexandre.abadie@therapixel.com'
p1144
g1
(g5
tRp1145
S'doc/manipulating_visualizing/manipulating_images.rst'
p1146
I3
sS'nilearn/description/haxby2001.rst'
p1147
I1
sS'nilearn/description/miyawaki2008.rst'
p1148
I1
sS'nilearn/description/brainomics_localizer.rst'
p1149
I1
sS'nilearn/tests/test_niimg_conversions.py'
p1150
I8
sS'nilearn/description/abide_pcp.rst'
p1151
I1
sS'nilearn/datasets/description/oasis1'
p1152
I2
sS'nilearn/description/msdl_atlas.rst'
p1153
I1
sS'nilearn/description/adhd.rst'
p1154
I1
sS'nilearn/_utils/testing.py'
p1155
I3
sS'nilearn/description/yeo.rst'
p1156
I1
sS'nilearn/datasets/description/oasis1.rst'
p1157
I1
sS'nilearn/_utils/niimg_conversions.py'
p1158
I11
sS'nilearn/description/smith_2009.rst'
p1159
I1
sS'appveyor.yml'
p1160
I1
sS'nilearn/description/icbm152_2009.rst'
p1161
I1
sS'nilearn/description/__init__.py'
p1162
I1
sS'nilearn/description/oasis1'
p1163
I1
sS'nilearn/description/power_2011.rst'
p1164
I1
sS'nilearn/description/nyu.rst'
p1165
I1
sS'nilearn/__init__.py'
p1166
I1
sS'nilearn/description/craddock_2012.rst'
p1167
I1
ssS'kingjr'
p1168
g1
(g5
tRp1169
S'nilearn/plotting/glass_brain_files/brain_schematics_back.json'
p1170
I1
sS'nilearn/plotting/glass_brain.py'
p1171
I2
sS'nilearn/plotting/glass_brain_files/brain_schematics_back.svg'
p1172
I1
ssS'johngriffiths'
p1173
g1
(g5
tRp1174
S'nilearn/plotting/surf_plotting.py'
p1175
I1
ssS'cancan101'
p1176
g1
(g5
tRp1177
S'nilearn/image/resampling.py'
p1178
I1
ssS'shd339@gmail.com'
p1179
g1
(g5
tRp1180
S'circle.yml'
p1181
I1
ssS'amadeus.kanan@gmail.com'
p1182
g1
(g5
tRp1183
S'examples/connectivity/plot_power_connectome.py'
p1184
I8
ssS'gaelvaroquaux'
p1185
g1
(g5
tRp1186
S'doc/templates/function.rst'
p1187
I3
sS'doc/manipulating_images/masker_objects.rst'
p1188
I9
sS'nisl/decomposition/__init__.py'
p1189
I1
sS'nilearn/_utils/fast_maths.py'
p1190
I7
sS'nilearn/datasets/__init__.py'
p1191
I10
sS'examples/decoding/plot_haxby_stimuli.py'
p1192
I1
sS'examples/manipulating_visualizing/plot_nifti_simple.py'
p1193
I2
sS'nisl/_utils/class_helper.py'
p1194
I1
sS'doc/data_analysis/functional_connectomes.rst'
p1195
I11
sS'nilearn/input_data/tests/test_nifti_spheres_masker.py'
p1196
I1
sS'plot_oasis_vbm.py'
p1197
I6
sS'nilearn/input_data/nifti_masker.py'
p1198
I22
sS'nilearn/plotting/test/test_slicers.py'
p1199
I8
sS'nilearn/datasets/description/power_2011.rst'
p1200
I1
sS'doc/data_analysis/parcellating.rst'
p1201
I8
sS'nilearn/datasets/data/mmap.dat'
p1202
I1
sS'doc/building_blocks/manual_pipeline.rst'
p1203
I11
sS'doc/ica_resting_state.rst'
p1204
I6
sS'nilearn/datasets/tests/data/confounds_with_header.csv'
p1205
I1
sS'nilearn/io/base_masker.py'
p1206
I1
sS'starplus_supervised_clustering.py'
p1207
I1
sS'doc/getting_started.rst'
p1208
I7
sS'examples/connectivity/plot_inverse_covariance_connectome.py'
p1209
I3
sS'nilearn/datasets/data/test.mgz'
p1210
I1
sS'examples/03_connectivity/plot_extract_regions_canica_maps.py'
p1211
I2
sS'simulated_example.py'
p1212
I2
sS'doc/introduction.rst'
p1213
I48
sS'examples/03_connectivity/plot_seed_based_connectome.py'
p1214
I1
sS'nilearn/decomposition/canica.py'
p1215
I6
sS'examples/connectivity/readme.txt'
p1216
I1
sS'doc/sphinxext/sphinx_gallery/downloads.py'
p1217
I5
sS'doc/developers/group_sparse_covariance.rst'
p1218
I4
sS'doc/sphinxext/sphinx_gallery/_static/gallery.css'
p1219
I11
sS'plot_localizer_simple_analysis.py'
p1220
I3
sS'examples/manipulating_visualizing/plot_demo_glass_brain.py'
p1221
I2
sS'nilearn/datasets/tests/data/__init__.py'
p1222
I1
sS'nilearn/surface/data/ball_cloud_10_samples.csv'
p1223
I1
sS'.travis.yml'
p1224
I34
sS'doc/sphinxext/sphinxgallery/docs_resolv.py'
p1225
I1
sS'nilearn/_utils/compat.py'
p1226
I3
sS'plot_haxby_mass_univariate.py'
p1227
I2
sS'examples/plot_nifti_simple.py'
p1228
I1
sS'nilearn/image/__init__.py'
p1229
I15
sS'nisl/_utils/tests/test_ndimage.py'
p1230
I2
sS'examples/plot_localizer_simple_analysis.py'
p1231
I2
sS'nilearn/decoding/tests/test_objective_functions.py'
p1232
I2
sS'nilearn/datasets/description/msdl_atlas.rst'
p1233
I3
sS'nilearn/datasets/description/nki_enhanced_surface.rst'
p1234
I1
sS'nilearn/input_data/tests/test_nifti_region.py'
p1235
I6
sS'nilearn/decomposition/tests/test_base.py'
p1236
I4
sS'examples/01_plotting/plot_demo_more_plotting.py'
p1237
I5
sS'examples/connectivity/plot_signal_extraction.py'
p1238
I3
sS'nilearn/datasets/func.py'
p1239
I24
sS'nisl/decomposition/old_canica.py'
p1240
I1
sS'doc/datasets/visualization.rst'
p1241
I1
sS'nilearn/tests/test_region.py'
p1242
I1
sS'nisl/hierarchical_clustering.py'
p1243
I1
sS'nilearn/plotting/tests/test_surf_plotting.py'
p1244
I4
sS'examples/04_manipulating_images/plot_negate_image.py'
p1245
I1
sS'examples/connectivity/plot_adhd_spheres.py'
p1246
I2
sS'examples/decoding/plot_haxby_different_estimators.py'
p1247
I3
sS'plot_haxby_searchlight.py'
p1248
I17
sS'nilearn/connectome/tests/test_group_sparse_cov.py'
p1249
I2
sS'nisl/searchlight.py'
p1250
I4
sS'nilearn/masking.py'
p1251
I42
sS'examples/decoding/plot_haxby_multiclass.py'
p1252
I2
sS'examples/connectivity/plot_extract_regions_canica_maps.py'
p1253
I1
sS'doc/images/no_image.png'
p1254
I1
sS'doc/readme'
p1255
I2
sS'nilearn/plotting/test/test_cm.py'
p1256
I3
sS'nilearn/_utils/exceptions.py'
p1257
I2
sS'nilearn/datasets/tests/test_atlas.py'
p1258
I9
sS'examples/01_plotting/plot_prob_atlas.py'
p1259
I2
sS'examples/04_manipulating_images/plot_extract_regions_labels_image.py'
p1260
I2
sS'nilearn/tests/test_resampling.py'
p1261
I1
sS'nilearn/plotting/tests/test_slicers.py'
p1262
I1
sS'nilearn/plotting/tests/test_matrix_plotting.py'
p1263
I1
sS'themes/scikit-learn/static/.svn/entries'
p1264
I1
sS'nilearn/image/tests/data/test.mgz'
p1265
I1
sS'doc/connectivity/parcellating.rst'
p1266
I9
sS'nilearn/datasets/description/smith_2009.rst'
p1267
I1
sS'examples/03_connectivity/plot_sphere_based_connectome.py'
p1268
I4
sS'doc/themes/scikit-learn/static/nature.css_t'
p1269
I4
sS'examples/manipulating_visualizing/plot_demo_plotting.py'
p1270
I4
sS'nilearn/regions/signal_extraction.py'
p1271
I8
sS'nilearn/input_data/base_masker.py'
p1272
I21
sS'nilearn/image/tests/data/__init__.py'
p1273
I1
sS'examples/manipulating_visualizing/plot_mask_computation.py'
p1274
I1
sS'nilearn/decoding/tests/test_searchlight.py'
p1275
I3
sS'tests/test_supervised_clustering.py'
p1276
I1
sS'nilearn/_utils/ndimage.py'
p1277
I3
sS'examples/connectivity/plot_multi_subject_connectome.py'
p1278
I5
sS'examples/plot_decoding_tutorial.py'
p1279
I9
sS'examples/02_decoding/plot_haxby_grid_search.py'
p1280
I6
sS'doc/sphinxext/gen_rst.py'
p1281
I23
sS'doc/building_blocks/data_preparation.rst'
p1282
I16
sS'nilearn/decomposition/tests/test_multi_pca.py'
p1283
I5
sS'nilearn/connectome/tests/test_connectivity_matrices.py'
p1284
I2
sS'nisl/io/tests/test_nifti_masker.py'
p1285
I2
sS'nilearn/surface/tests/data/__init__.py'
p1286
I1
sS'nilearn/io/tests/test_nifti_region.py'
p1287
I1
sS'nilearn/decoding/tests/test_smooth_lasso.py'
p1288
I2
sS'nisl/resampling.py'
p1289
I6
sS'doc/decoding/decoding_tutorial.rst'
p1290
I12
sS'plot_haxby_space_net.py'
p1291
I6
sS'examples/manipulating_visualizing/plot_roi_extraction.py'
p1292
I4
sS'doc/whats_new.rst'
p1293
I61
sS'examples/03_connectivity/plot_multi_subject_connectome.py'
p1294
I10
sS'nilearn/datasets/neurovault.py'
p1295
I1
sS'examples/04_manipulating_images/plot_roi_extraction.py'
p1296
I7
sS'nisl/signals.py'
p1297
I7
sS'examples/01_plotting/plot_demo_glass_brain.py'
p1298
I5
sS'doc/manipulating_images/manipulating_images.rst'
p1299
I19
sS'examples/manipulating_visualizing/plot_haxby_mass_univariate.py'
p1300
I4
sS'doc/dataset_manipulation.rst'
p1301
I11
sS'nilearn/surface/data/ball_cloud_160_samples.csv'
p1302
I1
sS'examples/decoding/readme.txt'
p1303
I2
sS'doc/data_analysis/decoding.rst'
p1304
I23
sS'doc/datasets/nyu.rst'
p1305
I1
sS'examples/manipulating_visualizing/plot_demo_plotting_glass_brain.py'
p1306
I1
sS'examples/01_plotting/plot_atlas.py'
p1307
I2
sS'plot_haxby_multiclass.py'
p1308
I2
sS'nilearn/tests/test_param_validation.py'
p1309
I1
sS'nilearn/datasets/description/icbm152_2009.rst'
p1310
I2
sS'examples/03_connectivity/plot_probabilistic_atlas_extraction.py'
p1311
I6
sS'nilearn/datasets/description/fsaverage5.rst'
p1312
I1
sS'nilearn/image/tests/test_image.py'
p1313
I26
sS'nilearn/connectome/tests/test_group_sparse_covariance.py'
p1314
I4
sS'doc/sphinxext/sphinx_gallery/_static/no_image.png'
p1315
I1
sS'nilearn/surface/tests/__init__.py'
p1316
I1
sS'nilearn/plotting/test/test_coord_tools.py'
p1317
I8
sS'conf.py'
p1318
I1
sS'nisl/io/tests/test_nifti_region.py'
p1319
I3
sS'doc/sphinxext/sphinx_gallery/gen_gallery.py'
p1320
I8
sS'doc/supervised_learning.rst'
p1321
I7
sS'nisl/tests/test_hierarchical_clustering.py'
p1322
I1
sS'nilearn/plotting/__init__.py'
p1323
I13
sS'examples/04_manipulating_images/plot_mask_computation.py'
p1324
I6
sS'themes/scikit-learn/theme.conf'
p1325
I1
sS'plot_haxby_full_analysis_log_l1.py'
p1326
I1
sS'nilearn/regions/tests/test_signal_extraction.py'
p1327
I2
sS'examples/manipulating_visualizing/plot_extract_rois_statistical_maps.py'
p1328
I1
sS'nilearn/datasets/data/avg152t1_brain.nii.gz'
p1329
I1
sS'doc/images/minbox.png'
p1330
I1
sS'examples/01_plotting/readme.txt'
p1331
I1
sS'nilearn/plotting/anat_cache.py'
p1332
I2
sS'examples/01_plotting/plot_3d_map_to_surface_projection.py'
p1333
I1
sS'hierarchical_clustering.py'
p1334
I1
sS'copying'
p1335
I1
sS'examples/02_decoding/plot_haxby_space_net.py'
p1336
I7
sS'examples/03_connectivity/plot_extract_regions_dictlearning_maps.py'
p1337
I5
sS'doc/ward_clustering.rst'
p1338
I11
sS'doc/manipulating_visualizing/manipulating_mr_images.rst'
p1339
I2
sS'examples/manipulating_visualizing/plot_probabilistic_atlas.py'
p1340
I2
sS'nilearn/datasets/description/destrieux_surface.rst'
p1341
I1
sS'nilearn/input_data/tests/test_base_masker.py'
p1342
I2
sS'examples/04_manipulating_images/plot_extract_rois_statistical_maps.py'
p1343
I2
sS'doc/sphinxext/sphinxgallery/gen_gallery.py'
p1344
I1
sS'nilearn/surface/data/ball_cloud_40_samples.csv'
p1345
I1
sS'doc/images/plusbox.png'
p1346
I1
sS'examples/plot_3d_and_4d_niimg.py'
p1347
I3
sS'nilearn/datasets/description/miyawaki2008.rst'
p1348
I1
sS'nilearn/plotting/tests/test_displays.py'
p1349
I6
sS'doc/nifti_masker/nifti_masker_simple.rst'
p1350
I1
sS'nisl/__init__.py'
p1351
I2
sS'themes/scikit-learn/static/nature.css_t'
p1352
I1
sS'nilearn/datasets/struct.py'
p1353
I5
sS'doc/sphinxext/sphinxgallery/__init__.py'
p1354
I1
sS'nilearn/connectome/group_sparse_cov.py'
p1355
I4
sS'examples/manipulating_visualizing/plot_dim_plotting.py'
p1356
I5
sS'readme-py3k.rst'
p1357
I1
sS'doc/building_blocks/unsupervised_learning.rst'
p1358
I7
sS'examples/04_manipulating_images/readme.txt'
p1359
I1
sS'nilearn/surface/data/ball_cloud_20_samples.csv'
p1360
I1
sS'examples/04_manipulating_images/plot_compare_mean_image.py'
p1361
I2
sS'examples/connectivity/plot_connectivity_measures.py'
p1362
I4
sS'examples/05_advanced/plot_haxby_mass_univariate.py'
p1363
I9
sS'nisl/utils.py'
p1364
I9
sS'plot_mask_computation.py'
p1365
I7
sS'examples/decoding/plot_haxby_grid_search.py'
p1366
I2
sS'doc/manipulating_visualizing/manipulating_images.rst'
p1367
I9
sS'supervised_clustering_vs_anova.py'
p1368
I1
sS'tutorial_scikit_irmf.rst'
p1369
I2
sS'examples/decoding/plot_miyawaki_reconstruction.py'
p1370
I2
sS'nilearn/datasets/tests/test_struct.py'
p1371
I5
sS'nilearn/datasets/description/talairach_atlas.rst'
p1372
I1
sS'examples/03_connectivity/plot_compare_resting_state_decomposition.py'
p1373
I3
sS'nilearn/decomposition/multi_pca.py'
p1374
I21
sS'nilearn/decoding/tests/test_same_api.py'
p1375
I3
sS'doc/themes/nilearn/full_javascript_files/doctools.js'
p1376
I2
sS'examples/05_advanced/plot_localizer_simple_analysis.py'
p1377
I6
sS'nilearn/image/image.py'
p1378
I57
sS'examples/connectivity/plot_simulated_connectome.py'
p1379
I3
sS'examples/02_decoding/plot_oasis_vbm_space_net.py'
p1380
I2
sS'nilearn/datasets/data/power_2011.csv'
p1381
I1
sS'doc/sphinxext/sphinxgallery/gen_rst.py'
p1382
I1
sS'nisl/decomposition/multi_pca.py'
p1383
I9
sS'examples/03_connectivity/plot_rest_clustering.py'
p1384
I7
sS'examples/03_connectivity/plot_simulated_connectome.py'
p1385
I3
sS'plot_haxby_full_analysis.py'
p1386
I6
sS'nilearn/datasets/description/allen_rsn_2011.rst'
p1387
I1
sS'plot_visualization.py'
p1388
I13
sS'nilearn/_utils/niimg_conversions.py'
p1389
I31
sS'manifest.in'
p1390
I1
sS'examples/02_decoding/readme.txt'
p1391
I1
sS'nisl/setup.py'
p1392
I1
sS'nilearn/group_sparse_covariance.py'
p1393
I6
sS'scikitlearn.png'
p1394
I1
sS'nilearn/decomposition/tests/test_dict_learning.py'
p1395
I3
sS'nilearn/plotting/tests/data/test.annot'
p1396
I2
sS'nilearn/decoding/searchlight.py'
p1397
I14
sS'examples/02_decoding/plot_haxby_anova_svm.py'
p1398
I15
sS'examples/manipulating_visualizing/readme.txt'
p1399
I1
sS'doc/building_blocks/estimator_choice.rst'
p1400
I6
sS'nilearn/datasets/tests/data/mmap.dat'
p1401
I1
sS'plot_haxby_masks.py'
p1402
I5
sS'nilearn/io/tests/test_multi_nifti_masker.py'
p1403
I1
sS'nilearn/mass_univariate/tests/test_permuted_least_squares.py'
p1404
I1
sS'nilearn/plotting/tests/__init__.py'
p1405
I1
sS'examples/readme.txt'
p1406
I6
sS'nilearn/io/nifti_masker.py'
p1407
I1
sS'nisl/io/tests/__init__.py'
p1408
I1
sS'nilearn/input_data/tests/test_multi_nifti_masker.py'
p1409
I13
sS'examples/decoding/plot_oasis_vbm.py'
p1410
I4
sS'doc/manipulating_images/data_preparation.rst'
p1411
I9
sS'nilearn/io/tests/__init__.py'
p1412
I1
sS'nilearn/decomposition/tests/test_canica.py'
p1413
I5
sS'makefile'
p1414
I17
sS'doc/authors.rst'
p1415
I7
sS'plot_roi_extraction.py'
p1416
I6
sS'doc/install_doc_component.html'
p1417
I5
sS'release.png'
p1418
I2
sS'nilearn/datasets/description/adhd.rst'
p1419
I1
sS'examples/plot_haxby_simple.py'
p1420
I5
sS'nilearn/plotting/tests/test_find_cuts.py'
p1421
I4
sS'nilearn/input_data/nifti_spheres_masker.py'
p1422
I13
sS'doc/manipulating_visualizing/index.rst'
p1423
I2
sS'doc/themes/nilearn/static/doctools.js'
p1424
I1
sS'nisl/masking.py'
p1425
I21
sS'nisl/decomposition/tests/test_multi_pca.py'
p1426
I1
sS'nilearn/surface/tests/data/test.annot'
p1427
I1
sS'examples/02_decoding/plot_haxby_searchlight.py'
p1428
I8
sS'doc/building_blocks/pipeline_introduction.rst'
p1429
I6
sS'nisl/tests/__init__.py'
p1430
I4
sS'doc/visualization.rst'
p1431
I9
sS'plot_haxby_mask.py'
p1432
I3
sS'plot_haxby_stimuli.py'
p1433
I2
sS'doc/images/niimg.jpg'
p1434
I1
sS'nilearn/connectome/__init__.py'
p1435
I5
sS'nisl/tests/test_signals.py'
p1436
I2
sS'examples/03_connectivity/plot_group_level_connectivity.py'
p1437
I1
sS'examples/03_connectivity/plot_canica_resting_state.py'
p1438
I8
sS'circle.yml'
p1439
I10
sS'nilearn/plotting/slicers.py'
p1440
I28
sS'nilearn/io/multi_nifti_masker.py'
p1441
I2
sS'nilearn/datasets/description/haxby2001.rst'
p1442
I1
sS'doc/templates/class.rst'
p1443
I5
sS'doc/masking.jpg'
p1444
I1
sS'examples/02_decoding/plot_haxby_different_estimators.py'
p1445
I5
sS'nilearn/_utils/fixes/sklearn_f_regression_nosparse.py'
p1446
I2
sS'examples/01_plotting/plot_visualization.py'
p1447
I3
sS'nisl/_utils/class_inspect.py'
p1448
I4
sS'nisl/_utils/numpy_conversions.py'
p1449
I3
sS'examples/05_advanced/plot_localizer_mass_univariate_methods.py'
p1450
I6
sS'nilearn/datasets/description/yeo.rst'
p1451
I1
sS'examples/connectivity/plot_connect_comparison.py'
p1452
I1
sS'nisl/region.py'
p1453
I3
sS'doc/tutorial/index.rst'
p1454
I2
sS'examples/02_decoding/plot_simulated_data.py'
p1455
I3
sS'nilearn/io/tests/test_nifti_masker.py'
p1456
I1
sS'doc/images/niimgs.jpg'
p1457
I1
sS'plot_haxby_multi_class.py'
p1458
I2
sS'examples/manipulating_visualizing/plot_extract_rois_smith_atlas.py'
p1459
I1
sS'examples/01_plotting/plot_surf_atlas.py'
p1460
I2
sS'nilearn/plotting/glass_brain_files/plot_align_svg.py'
p1461
I1
sS'nisl/decomposition/decomposition_model.py'
p1462
I1
sS'nilearn/tests/test_fast_maths.py'
p1463
I2
sS'nilearn/_utils/logger.py'
p1464
I3
sS'examples/04_manipulating_images/plot_smooth_mean_image.py'
p1465
I1
sS'nilearn/tests/data/test.mgz'
p1466
I2
sS'nilearn/_utils/param_validation.py'
p1467
I2
sS'nilearn/tests/test_group_sparse_covariance.py'
p1468
I3
sS'doc/manipulating_visualizing/data_preparation.rst'
p1469
I11
sS'nilearn/image/resampling.py'
p1470
I43
sS'nilearn/tests/test_numpy_conversions.py'
p1471
I1
sS'nilearn/datasets/tests/test_utils.py'
p1472
I4
sS'nilearn/surface/data/readme.txt'
p1473
I1
sS'doc/themes/nilearn/full_javascript_files/jquery.jcarousel.js'
p1474
I2
sS'doc/building_blocks/index.rst'
p1475
I8
sS'doc/simulations.rst'
p1476
I7
sS'nilearn/io/__init__.py'
p1477
I1
sS'doc/connectivity/connectome_extraction.rst'
p1478
I14
sS'doc/sphinxext/sphinx_gallery/_static/broken_stamp.svg'
p1479
I4
sS'doc/contributing.rst'
p1480
I1
sS'nilearn/tests/test_datasets.py'
p1481
I9
sS'doc/haxby_decoding.rst'
p1482
I18
sS'doc/nifti_masker/nifti_masker_advanced.rst'
p1483
I1
sS'examples/manipulating_visualizing/plot_demo_glass_brain_extensive.py'
p1484
I2
sS'decoding_example.py'
p1485
I4
sS'nilearn/connectome/group_sparse_covariance.py'
p1486
I3
sS'nilearn/input_data/tests/test_nifti_masker.py'
p1487
I19
sS'doc/sphinxext/sphinx_gallery/__init__.py'
p1488
I7
sS'nisl/datasets.py'
p1489
I24
sS'doc/building_blocks/supervised_learning.rst'
p1490
I7
sS'nilearn/tests/test_ndimage.py'
p1491
I2
sS'nilearn/tests/test_niimg.py'
p1492
I7
sS'doc/sphinxext/sphinxgallery/_static/no_image.png'
p1493
I1
sS'nilearn/tests/test_logger.py'
p1494
I2
sS'nilearn/plotting/tests/test_img_plotting.py'
p1495
I18
sS'examples/02_decoding/plot_haxby_stimuli.py'
p1496
I2
sS'setup.py'
p1497
I18
sS'doc/building_blocks/haxby_searchlight.rst'
p1498
I4
sS'doc/user_guide.rst'
p1499
I13
sS'nisl/starplus.py'
p1500
I1
sS'doc/data_analysis/index.rst'
p1501
I4
sS'examples/manipulating_visualizing/plot_smooth_mean_image.py'
p1502
I2
sS'examples/plot_atlas.py'
p1503
I1
sS'plot_haxby_different_estimators.py'
p1504
I10
sS'nilearn/decoding/tests/test_graph_net.py'
p1505
I2
sS'nisl/_utils/niimg_conversions.py'
p1506
I3
sS'doc/manipulating_images/input_output.rst'
p1507
I11
sS'doc/sphinxext/sphinx_gallery/gen_rst.py'
p1508
I12
sS'examples/02_decoding/plot_mixed_gambles_space_net.py'
p1509
I2
sS'nilearn/input_data/nifti_region.py'
p1510
I10
sS'nisl/_utils/tests/test_numpy_conversions.py'
p1511
I2
sS'nilearn/input_data/__init__.py'
p1512
I1
sS'index.rst'
p1513
I6
sS'doc/decoding/searchlight.rst'
p1514
I8
sS'nisl/image.py'
p1515
I4
sS'plot_nyu_rest_clustering.py'
p1516
I9
sS'examples/03_connectivity/plot_seed_to_voxel_correlation.py'
p1517
I3
sS'examples/03_connectivity/plot_connectivity_measures.py'
p1518
I4
sS'doc/nifti_masker.rst'
p1519
I2
sS'examples/plot_nilearn_101.py'
p1520
I8
sS'examples/03_connectivity/plot_signal_extraction.py'
p1521
I5
sS'tests/__init__.py'
p1522
I1
sS'nilearn/version.py'
p1523
I22
sS'themes/scikit-learn/layout.html'
p1524
I3
sS'nilearn/_utils/testing.py'
p1525
I16
sS'examples/manipulating_visualizing/plot_visualization.py'
p1526
I2
sS'examples/manipulating_visualizing/plot_overlay.py'
p1527
I2
sS'nilearn/_utils/__init__.py'
p1528
I3
sS'nilearn/image/tests/test_resampling.py'
p1529
I29
sS'examples/decoding/plot_haxby_full_analysis.py'
p1530
I2
sS'examples/04_manipulating_images/plot_extract_rois_smith_atlas.py'
p1531
I3
sS'nisl/decoding/searchlight.py'
p1532
I3
sS'examples/01_plotting/plot_overlay.py'
p1533
I3
sS'doc/themes/scikit-learn/layout.html'
p1534
I10
sS'nilearn/datasets/tests/data/pymvpa-exampledata.tar.bz2'
p1535
I1
sS'nilearn/surface/tests/data/test.label'
p1536
I1
sS'examples/manipulating_visualizing/plot_prob_atlas.py'
p1537
I3
sS'doc/themes/nilearn/static/jquery.js'
p1538
I2
sS'setup.cfg'
p1539
I6
sS'doc/themes/nilearn/static/jquery.jcarousel.min.js'
p1540
I2
sS'examples/02_decoding/plot_miyawaki_reconstruction.py'
p1541
I3
sS'nisl/io/__init__.py'
p1542
I1
sS'examples/decoding/plot_simulated_data.py'
p1543
I1
sS'nilearn/data/avg152t1_brain.nii.gz'
p1544
I2
sS'doc/building_blocks/searchlight.rst'
p1545
I6
sS'examples/01_plotting/plot_surf_stat_map.py'
p1546
I3
sS'nilearn/image/tests/__init__.py'
p1547
I1
sS'nilearn/mass_univariate/permuted_least_squares.py'
p1548
I5
sS'nilearn/plotting/tests/test_edge_detect.py'
p1549
I1
sS'examples/03_connectivity/plot_seed_based_correlation.py'
p1550
I5
sS'doc/decoding/estimator_choice.rst'
p1551
I8
sS'license'
p1552
I2
sS'plot_connect_comparison.py'
p1553
I2
sS'nilearn/image.py'
p1554
I1
sS'nisl/_utils/ndimage.py'
p1555
I3
sS'nilearn/masking.py.orig'
p1556
I2
sS'nilearn/datasets/data/pymvpa-exampledata.tar.bz2'
p1557
I1
sS'nilearn/datasets/tests/data/test.mgz'
p1558
I1
sS'examples/decoding/plot_haxby_space_net.py'
p1559
I5
sS'nilearn/plotting/tests/test_cm.py'
p1560
I1
sS'plot_localizer_mass_univariate_methods.py'
p1561
I2
sS'nilearn/io/nifti_region.py'
p1562
I1
sS'nilearn/datasets/utils.py'
p1563
I9
sS'examples/01_plotting/plot_dim_plotting.py'
p1564
I4
sS'readme.txt'
p1565
I3
sS'plot_haxby_simple.py'
p1566
I14
sS'examples/01_plotting/plot_demo_glass_brain_extensive.py'
p1567
I8
sS'nilearn/regions/__init__.py'
p1568
I1
sS'nilearn/plotting/matrix_plotting.py'
p1569
I2
sS'doc/themes/nilearn/full_javascript_files/jquery-1.9.1.js'
p1570
I2
sS'examples/connectivity/plot_canica_resting_state.py'
p1571
I4
sS'doc/images/nonebox.png'
p1572
I1
sS'nilearn/regions/tests/test_region_extractor.py'
p1573
I4
sS'nilearn/datasets/data/spm_confounds.txt'
p1574
I1
sS'doc/images/feature_array.jpg'
p1575
I1
sS'doc/sphinxext/sphinxgallery/_static/gallery.css'
p1576
I1
sS'nilearn/plotting/test/test_edge_detect.py'
p1577
I4
sS'examples/05_advanced/plot_ica_resting_state.py'
p1578
I4
sS'doc/manipulating_visualizing/plotting.rst'
p1579
I12
sS'plot_haxby_decoding.py'
p1580
I17
sS'nisl/tests/test_mask.py'
p1581
I2
sS'nilearn/plotting/test/test_img_plotting.py'
p1582
I12
sS'doc/decoding/space_net.rst'
p1583
I4
sS'nilearn/data/__init__.py'
p1584
I1
sS'doc/plotting/index.rst'
p1585
I6
sS'doc/decoding/decoding_simulated.rst'
p1586
I6
sS'examples/03_connectivity/plot_adhd_spheres.py'
p1587
I3
sS'doc/conf.py'
p1588
I27
sS'doc/manipulating_images/index.rst'
p1589
I3
sS'examples/02_decoding/plot_haxby_full_analysis.py'
p1590
I7
sS'nilearn/input_data/nifti_labels_masker.py'
p1591
I12
sS'doc/data_analysis/resting_state_networks.rst'
p1592
I11
sS'nilearn/surface/data/__init__.py'
p1593
I1
sS'examples/02_decoding/plot_haxby_multiclass.py'
p1594
I7
sS'nilearn/datasets/description/cobre.rst'
p1595
I1
sS'examples/02_decoding/plot_miyawaki_encoding.py'
p1596
I3
sS'plot_localizer_mass_univariate.py'
p1597
I2
sS'doc/sphinxext/license.txt'
p1598
I2
sS'nilearn/decoding/tests/test_space_net.py'
p1599
I11
sS'nilearn/input_data/tests/test_nifti_maps_masker.py'
p1600
I7
sS'doc/decoding/index.rst'
p1601
I4
sS'nilearn/resampling.py'
p1602
I1
sS'themes/scikit-learn/static/.svn/text-base/nature.css_t.svn-base'
p1603
I1
sS'examples/connectivity/plot_adhd_covariance.py'
p1604
I4
sS'doc/building_blocks/decoding_simulated.rst'
p1605
I4
sS'doc/modules/classes.rst'
p1606
I7
sS'doc/connectivity/region_extraction.rst'
p1607
I3
sS'nilearn/input_data/tests/test_nifti_labels_masker.py'
p1608
I5
sS'nisl/decomposition/tests/test_canica.py'
p1609
I6
sS'doc/themes/nilearn/static/copybutton.js'
p1610
I2
sS'examples/03_connectivity/plot_inverse_covariance_connectome.py'
p1611
I6
sS'examples/04_manipulating_images/plot_nifti_simple.py'
p1612
I3
sS'nilearn/plotting/glass_brain_files/brain_schematics_back.json'
p1613
I1
sS'nilearn/decoding/space_net.py'
p1614
I40
sS'nilearn/plotting/test/test_find_cuts.py'
p1615
I4
sS'nilearn/surface/tests/test_surface.py'
p1616
I1
sS'nilearn/datasets.py'
p1617
I14
sS'examples/05_advanced/readme.txt'
p1618
I1
sS'nilearn/tests/data/oasis_cross-sectional.csv'
p1619
I1
sS'examples/manipulating_visualizing/plot_visualize_megatrawls_netmats.py'
p1620
I1
sS'examples/01_plotting/plot_demo_plotting.py'
p1621
I6
sS'appveyor.yml'
p1622
I4
sS'doc/unsupervised_learning.rst'
p1623
I5
sS'nilearn/plotting/tests/data/test.label'
p1624
I2
sS'nilearn/datasets/description/abide_pcp.rst'
p1625
I1
sS'nilearn/datasets/tests/__init__.py'
p1626
I1
sS'examples/manipulating_visualizing/plot_affine_transformation.py'
p1627
I2
sS'nilearn/datasetsc'
p1628
I3
sS'nilearn/regions/region_extractor.py'
p1629
I11
sS'nilearn/datasets/description/brainomics_localizer.rst'
p1630
I2
sS'nilearn/tests/test_cache_mixin.py'
p1631
I6
sS'nilearn/tests/test_signal.py'
p1632
I21
sS'nilearn/__init__.py'
p1633
I13
sS'nilearn/region.py'
p1634
I2
sS'examples/decoding/plot_haxby_anova_svm.py'
p1635
I2
sS'doc/images/blank_image.png'
p1636
I1
sS'examples/decoding/plot_oasis_vbm_space_net.py'
p1637
I4
sS'plot_demo_plotting.py'
p1638
I8
sS'nisl/decomposition/tests/__init__.py'
p1639
I1
sS'doc/connectivity/functional_connectomes.rst'
p1640
I16
sS'nisl/io/nifti_masker.py'
p1641
I15
sS'examples/01_plotting/plot_multiscale_parcellations.py'
p1642
I1
sS'nilearn/plotting/coord_tools.py'
p1643
I18
sS'doc/connectivity/index.rst'
p1644
I3
sS'nisl/_utils/tests/test_class_inspect.py'
p1645
I2
sS'plot_affine_transformation.py'
p1646
I1
sS'nilearn/plotting/img_plotting.py'
p1647
I71
sS'nilearn/datasets/data/__init__.py'
p1648
I1
sS'doc/copying'
p1649
I2
sS'starplus.py'
p1650
I3
sS'nilearn/_utils/cache_mixin.py'
p1651
I10
sS'nilearn/plotting/glass_brain.py'
p1652
I3
sS'nilearn/surface/data/ball_cloud_80_samples.csv'
p1653
I1
sS'supervised_clustering.py'
p1654
I2
sS'nilearn/datasets/description/craddock_2012.rst'
p1655
I1
sS'nilearn/signal.py'
p1656
I35
sS'plot_rest_clustering.py'
p1657
I17
sS'nilearn/_utils/fixes/__init__.py'
p1658
I4
sS'examples/01_plotting/plot_surface_projection_strategies.py'
p1659
I1
sS'plot_nyu_rest_decomposition.py'
p1660
I4
sS'nilearn/decomposition/dict_learning.py'
p1661
I8
sS'nilearn/datasets/tests/test_func.py'
p1662
I14
sS'examples/04_manipulating_images/plot_resample_to_template.py'
p1663
I4
sS'nilearn/input_data/masker_validation.py'
p1664
I3
sS'nisl/io/nifti_multi_masker.py'
p1665
I10
sS'nilearn/_utils/fixes/sklearn_basic_backports.py'
p1666
I1
sS'nilearn/datasets/atlas.py'
p1667
I22
sS'nilearn/decoding/space_net_solvers.py'
p1668
I2
sS'plot_haxby_grid_search.py'
p1669
I4
sS'doc/images/feature_array.svg'
p1670
I1
sS'nisl/_utils/__init__.py'
p1671
I3
sS'readme.rst'
p1672
I13
sS'plot_adhd_covariance.py'
p1673
I3
sS'doc/sphinxext/sphinx_gallery/docs_resolv.py'
p1674
I7
sS'nisl/decomposition/canica.py'
p1675
I11
sS'doc/building_blocks/manipulating_mr_images.rst'
p1676
I20
sS'doc/modules/reference.rst'
p1677
I53
sS'nilearn/_utils/class_inspect.py'
p1678
I1
sS'datasets.py'
p1679
I3
sS'nilearn/_utils/numpy_conversions.py'
p1680
I1
sS'nisl/tests/test_masking.py'
p1681
I9
sS'nisl/tests/test_resampling.py'
p1682
I2
sS'continuous_integration/after_success.sh'
p1683
I1
sS'nilearn/plotting/find_cuts.py'
p1684
I15
sS'plot_nifti_simple.py'
p1685
I5
sS'nilearn/plotting/surf_plotting.py'
p1686
I6
sS'examples/plot_haxby_visualisation.py'
p1687
I2
sS'nilearn/tests/test_extmath.py'
p1688
I1
sS'doc/themes/nilearn/layout.html'
p1689
I25
sS'nilearn/tests/test_niimg_conversions.py'
p1690
I15
sS'doc/sphinxext/sphinx_gallery/notebook.py'
p1691
I6
sS'doc/sphinxext/copy_sphinxgallery.sh'
p1692
I1
sS'nilearn/plotting/test/__init__.py'
p1693
I3
sS'nilearn/tests/test_image.py'
p1694
I1
sS'nilearn/surface/__init__.py'
p1695
I1
sS'examples/04_manipulating_images/plot_affine_transformation.py'
p1696
I3
sS'nilearn/_utils/niimg.py'
p1697
I14
sS'examples/manipulating_visualizing/plot_demo_more_plotting.py'
p1698
I4
sS'doc/sphinxext/sphinx_gallery/py_source_parser.py'
p1699
I3
sS'nilearn/datasets/data/confounds_with_header.csv'
p1700
I1
sS'plot_haxby_anova_svm.py'
p1701
I10
sS'nilearn/input_data/multi_nifti_masker.py'
p1702
I17
sS'nilearn/connectome/connectivity_matrices.py'
p1703
I5
sS'nilearn/datasets/tests/data/spm_confounds.txt'
p1704
I1
sS'nilearn/surface/surface.py'
p1705
I2
sS'doc/building_blocks/plotting.rst'
p1706
I10
sS'nisl/_utils/cache_mixin.py'
p1707
I8
sS'nilearn/decoding/tests/test_sklearn_compatibility.py'
p1708
I2
sS'examples/02_decoding/plot_oasis_vbm.py'
p1709
I5
sS'contributing.rst'
p1710
I1
sS'doc/images/minboxhighlight.png'
p1711
I1
sS'examples/decoding/plot_mixed_gambles_space_net.py'
p1712
I4
sS'nilearn/tests/test_masking.py'
p1713
I21
sS'nilearn/plotting/cm.py'
p1714
I7
sS'kamitani.py'
p1715
I3
sS'doc/makefile'
p1716
I25
sS'examples/03_connectivity/readme.txt'
p1717
I1
sS'nisl/mask.py'
p1718
I2
sS'nilearn/plotting/glass_brain_files/brain_schematics_back.svg'
p1719
I1
sS'doc/themes/nilearn/static/nature.css_t'
p1720
I38
sS'examples/connectivity/plot_rest_clustering.py'
p1721
I3
sS'doc/extracting_data.rst'
p1722
I5
sS'examples/manipulating_visualizing/plot_atlas.py'
p1723
I3
sS'nilearn/tests/test_testing.py'
p1724
I3
sS'nisl/_utils/tests/test_niimg_conversions.py'
p1725
I2
sS'doc/functional_connectivity.rst'
p1726
I3
sS'nilearn/plotting/test/foobar'
p1727
I4
sS'doc/haxby_searchlight.rst'
p1728
I5
sS'nisl/starplus_decoding_example.py'
p1729
I1
sS'examples/decoding/plot_haxby_searchlight.py'
p1730
I3
sS'examples/connectivity/plot_ica_resting_state.py'
p1731
I3
sS'examples/01_plotting/plot_haxby_masks.py'
p1732
I5
sS'doc/decoding/decoding_intro.rst'
p1733
I7
sS'examples/manipulating_visualizing/plot_haxby_masks.py'
p1734
I1
sS'nisl/io/nifti_region.py'
p1735
I4
sS'nisl/tests/test_utils.py'
p1736
I4
sS'nilearn/datasets/tests/test_neurovault.py'
p1737
I1
sS'.mailmap'
p1738
I3
sS'nilearn/input_data/tests/__init__.py'
p1739
I1
sS'doc/building_blocks/simulations.rst'
p1740
I2
sS'nisl/tests/test_signal.py'
p1741
I1
sS'nilearn/decomposition/base.py'
p1742
I21
sS'nilearn/plotting/displays.py'
p1743
I36
sS'nisl/io/base_masker.py'
p1744
I13
sS'nilearn/datasets/description/nyu.rst'
p1745
I1
sS'nilearn/tests/__init__.py'
p1746
I2
sS'doc/index.rst'
p1747
I49
sS'nilearn/decoding/__init__.py'
p1748
I3
sS'__init__.py'
p1749
I1
sS'doc/building_blocks/ica.rst'
p1750
I4
sS'nilearn/input_data/nifti_maps_masker.py'
p1751
I15
sS'doc/images/plusboxhighlight.png'
p1752
I1
sS'nilearn/data/power_2011.csv'
p1753
I1
sS'nilearn/testing.py'
p1754
I1
sS'plot_simulated_data.py'
p1755
I9
sS'continuous_integration/install.sh'
p1756
I3
sS'plot_python_101.py'
p1757
I2
sS'nilearn/plotting/tests/data/__init__.py'
p1758
I2
sS'nilearn/_utils/extmath.py'
p1759
I2
sS'doc/themes/nilearn/static/sidebar.js'
p1760
I1
sS'nilearn/plotting/edge_detect.py'
p1761
I4
sS'plot_canica_resting_state.py'
p1762
I17
sS'nilearn/regions/tests/__init__.py'
p1763
I1
sS'doc/connectivity/resting_state_networks.rst'
p1764
I13
sS'doc/sphinxext/sphinx_gallery/backreferences.py'
p1765
I6
sS'authors.rst'
p1766
I8
sS'nilearn/_utils/fixes/matplotlib_backports.py'
p1767
I1
sS'nilearn/decomposition/__init__.py'
p1768
I1
sS'plot_nifti_advanced.py'
p1769
I7
sS'plot_ica_resting_state.py'
p1770
I15
sS'examples/connectivity/plot_probabilistic_atlas_extraction.py'
p1771
I4
sS'nilearn/datasets/description/__init__.py'
p1772
I1
sS'examples/01_plotting/plot_visualize_megatrawls_netmats.py'
p1773
I4
sS'examples/manipulating_visualizing/plot_localizer_mass_univariate_methods.py'
p1774
I1
sS'examples/connectivity/plot_compare_resting_state_decomposition.py'
p1775
I2
sS'nilearn/connectome/tests/__init__.py'
p1776
I1
ssS'jmargeta'
p1777
g1
(g5
tRp1778
S'nisl/datasets.py'
p1779
I1
ssS'agramfort'
p1780
g1
(g5
tRp1781
S'doc/introduction.rst'
p1782
I1
sS'nisl/datasets.py'
p1783
I1
sS'starplus_svm.py'
p1784
I1
sS'datasets.py'
p1785
I1
sS'nilearn/decomposition/multi_pca.py'
p1786
I1
sS'nilearn/_utils/niimg.py'
p1787
I2
sS'doc/themes/scikit-learn/static/nature.css_t'
p1788
I1
sS'nilearn/tests/test_niimg.py'
p1789
I5
sS'.gitignore'
p1790
I1
sS'plot_miyawaki_reconstruction.py'
p1791
I1
sS'plot_simulated_data.py'
p1792
I1
sS'nilearn/tests/data/test.mgz'
p1793
I1
sS'readme.txt'
p1794
I1
sS'doc/themes/scikit-learn/layout.html'
p1795
I1
sS'plot_haxby_decoding.py'
p1796
I2
sS'doc/visualization.rst'
p1797
I1
sS'nilearn/plotting/displays.py'
p1798
I1
sS'authors.rst'
p1799
I1
sS'nilearn/datasets.py'
p1800
I1
ssS'larsoner'
p1801
g1
(g5
tRp1802
S'nilearn/plotting/tests/test_img_plotting.py'
p1803
I1
sS'nilearn/plotting/img_plotting.py'
p1804
I2
ssS'franz.liem'
p1805
g1
(g5
tRp1806
S'examples/03_connectivity/plot_seed_based_correlation.py'
p1807
I9
sS'nilearn/signal.py'
p1808
I1
sS'nilearn/plotting/displays.py'
p1809
I2
sS'examples/01_plotting/plot_overlay.py'
p1810
I1
ssS'mekman'
p1811
g1
(g5
tRp1812
S'nilearn/decoding/searchlight.py'
p1813
I1
ssS'jona-sassenhagen'
p1814
g1
(g5
tRp1815
S'nilearn/plotting/tests/test_surf_plotting.py'
p1816
I4
sS'tmp_fig.png'
p1817
I2
sS'nilearn/plotting/surf_plotting.py'
p1818
I4
ssS'alexsavio'
p1819
g1
(g5
tRp1820
S'doc/modules/reference.rst'
p1821
I1
sS'nilearn/decomposition/canica.py'
p1822
I1
sS'nilearn/datasets/description/allen_rsn_2011.rst'
p1823
I2
sS'nilearn/datasets/tests/test_atlas.py'
p1824
I2
sS'nilearn/_utils/__init__.py'
p1825
I1
sS'doc/whats_new.rst'
p1826
I2
sS'nilearn/datasets/__init__.py'
p1827
I1
sS'nilearn/plotting/find_cuts.py'
p1828
I1
sS'nilearn/plotting/tests/test_img_plotting.py'
p1829
I2
sS'examples/01_plotting/plot_prob_atlas.py'
p1830
I1
sS'nilearn/plotting/displays.py'
p1831
I2
sS'nilearn/datasets/atlas.py'
p1832
I6
ssS'arokem'
p1833
g1
(g5
tRp1834
S'examples/connectivity/plot_signal_extraction.py'
p1835
I2
sS'examples/connectivity/plot_probabilistic_atlas_extraction.py'
p1836
I2
ssS'titan-c'
p1837
g1
(g5
tRp1838
S'nilearn/tests/test_datasets.py'
p1839
I14
sS'doc/sphinxext/sphinxgallery/__init__.py'
p1840
I8
sS'doc/connectivity/functional_connectomes.rst'
p1841
I3
sS'doc/templates/function.rst'
p1842
I1
sS'doc/sphinxext/sphinx_gallery/__init__.py'
p1843
I5
sS'nilearn/input_data/tests/test_base_masker.py'
p1844
I1
sS'doc/sphinxext/sphinxgallery/gen_gallery.py'
p1845
I8
sS'nilearn/tests/test_niimg.py'
p1846
I1
sS'doc/sphinxext/sphinxgallery/_static/no_image.png'
p1847
I2
sS'doc/sphinxext/sphinx_gallery/_static/broken_example.png'
p1848
I1
sS'nilearn/plotting/tests/test_displays.py'
p1849
I1
sS'nilearn/plotting/tests/test_img_plotting.py'
p1850
I1
sS'doc/building_blocks/manual_pipeline.rst'
p1851
I2
sS'nilearn/description/adhd.rst'
p1852
I1
sS'nilearn/signal.py'
p1853
I1
sS'nilearn/input_data/nifti_masker.py'
p1854
I1
sS'nilearn/plotting/tests/test_cm.py'
p1855
I1
sS'doc/introduction.rst'
p1856
I3
sS'doc/sphinxext/sphinx_gallery/gen_rst.py'
p1857
I4
sS'doc/decoding/decoding_simulated.rst'
p1858
I2
sS'doc/sphinxext/sphinx_gallery/_static/gallery.css'
p1859
I5
sS'readme.rst'
p1860
I1
sS'doc/decoding/searchlight.rst'
p1861
I1
sS'doc/sphinxext/sphinx_gallery/docs_resolv.py'
p1862
I2
sS'nilearn/input_data/multi_nifti_masker.py'
p1863
I1
sS'.travis.yml'
p1864
I1
sS'doc/sphinxext/sphinxgallery/docs_resolv.py'
p1865
I6
sS'doc/manipulating_visualizing/manipulating_images.rst'
p1866
I3
sS'nilearn/description/miyawaki2008.rst'
p1867
I1
sS'nilearn/plotting/find_cuts.py'
p1868
I1
sS'nilearn/version.py'
p1869
I1
sS'nilearn/decomposition/multi_pca.py'
p1870
I1
sS'nilearn/_utils/__init__.py'
p1871
I1
sS'nilearn/tests/test_niimg_conversions.py'
p1872
I1
sS'nilearn/image/image.py'
p1873
I1
sS'doc/sphinxext/sphinx_gallery/notebook.py'
p1874
I3
sS'doc/sphinxext/copy_sphinxgallery.sh'
p1875
I3
sS'nilearn/description/msdl_atlas.rst'
p1876
I1
sS'doc/sphinxext/sphinxgallery/gen_rst.py'
p1877
I8
sS'nilearn/_utils/testing.py'
p1878
I1
sS'nilearn/_utils/niimg.py'
p1879
I1
sS'nilearn/_utils/niimg_conversions.py'
p1880
I1
sS'examples/decoding/plot_simulated_data.py'
p1881
I1
sS'nilearn/group_sparse_covariance.py'
p1882
I1
sS'nilearn/decoding/searchlight.py'
p1883
I1
sS'doc/decoding/estimator_choice.rst'
p1884
I2
sS'nilearn/input_data/nifti_labels_masker.py'
p1885
I1
sS'doc/decoding/space_net.rst'
p1886
I2
sS'nilearn/masking.py'
p1887
I1
sS'circle.yml'
p1888
I1
sS'doc/images/no_image.png'
p1889
I1
sS'nilearn/_utils/compat.py'
p1890
I1
sS'examples/readme.txt'
p1891
I1
sS'doc/themes/nilearn/static/nature.css_t'
p1892
I1
sS'nilearn/tests/test_logger.py'
p1893
I1
sS'doc/connectivity/parcellating.rst'
p1894
I1
sS'nilearn/description/abide_pcp.rst'
p1895
I1
sS'doc/authors.rst'
p1896
I1
sS'examples/plot_haxby_simple.py'
p1897
I1
sS'nilearn/input_data/base_masker.py'
p1898
I1
sS'doc/sphinxext/sphinxgallery/_static/gallery.css'
p1899
I6
sS'doc/sphinxext/gen_rst.py'
p1900
I1
sS'examples/connectivity/plot_ica_resting_state.py'
p1901
I2
sS'doc/manipulating_visualizing/plotting.rst'
p1902
I2
sS'nilearn/mass_univariate/permuted_least_squares.py'
p1903
I1
sS'nilearn/description/miyawaki.rst'
p1904
I1
sS'doc/sphinxext/sphinx_gallery/downloads.py'
p1905
I1
sS'nilearn/description/brainomics_localizer.rst'
p1906
I1
sS'doc/decoding/decoding_tutorial.rst'
p1907
I2
sS'doc/conf.py'
p1908
I9
sS'nilearn/plotting/img_plotting.py'
p1909
I1
sS'nilearn/tests/test_region.py'
p1910
I1
sS'nilearn/plotting/displays.py'
p1911
I1
sS'doc/templates/class.rst'
p1912
I1
sS'authors.rst'
p1913
I1
sS'doc/index.rst'
p1914
I1
sS'examples/plot_python_101.py'
p1915
I1
sS'nilearn/input_data/nifti_maps_masker.py'
p1916
I1
sS'continuous_integration/install.sh'
p1917
I1
sS'nilearn/_utils/cache_mixin.py'
p1918
I1
sS'nilearn/image/tests/test_image.py'
p1919
I1
sS'nilearn/datasets.py'
p1920
I5
sS'nilearn/_utils/logger.py'
p1921
I1
sS'doc/sphinxext/sphinx_gallery/_static/no_image.png'
p1922
I1
sS'doc/connectivity/resting_state_networks.rst'
p1923
I2
sS'doc/sphinxext/sphinx_gallery/backreferences.py'
p1924
I3
sS'doc/sphinxext/sphinx_gallery/gen_gallery.py'
p1925
I4
sS'doc/manipulating_visualizing/data_preparation.rst'
p1926
I2
sS'nilearn/image/resampling.py'
p1927
I1
sS'nilearn/description/oasis1'
p1928
I1
sS'nilearn/plotting/__init__.py'
p1929
I1
sS'doc/sphinxext/sphinxgallery/backreferences.py'
p1930
I3
sS'nilearn/tests/test_masking.py'
p1931
I1
sS'nilearn/tests/test_signal.py'
p1932
I1
sS'doc/connectivity/connectome_extraction.rst'
p1933
I4
sS'nilearn/region.py'
p1934
I1
ssS'gvaroqua@drago.saclay.inria.fr'
p1935
g1
(g5
tRp1936
S'nilearn/datasets.py'
p1937
I1
ssS'mwaskom'
p1938
g1
(g5
tRp1939
S'searchlight/example_searchlight.py'
p1940
I1
sS'searchlight/searchlight.py'
p1941
I1
ssS'aabadie'
p1942
g1
(g5
tRp1943
S'doc/manipulating_visualizing/manipulating_images.rst'
p1944
I4
sS'doc/makefile'
p1945
I6
sS'doc/modules/reference.rst'
p1946
I3
sS'nilearn/_utils/exceptions.py'
p1947
I4
sS'nilearn/datasets/tests/test_atlas.py'
p1948
I2
sS'doc/connectivity/functional_connectomes.rst'
p1949
I1
sS'makefile'
p1950
I2
sS'doc/index.rst'
p1951
I3
sS'doc/manipulating_images/manipulating_images.rst'
p1952
I7
sS'nilearn/datasets/__init__.py'
p1953
I1
sS'doc/whats_new.rst'
p1954
I2
sS'doc/themes/nilearn/static/nature.css_t'
p1955
I2
sS'nilearn/connectome/tests/test_connectivity_matrices.py'
p1956
I1
sS'continuous_integration/circle_ci_test.sh'
p1957
I2
sS'nilearn/datasets/tests/test_struct.py'
p1958
I2
sS'nilearn/mass_univariate/__init__.py'
p1959
I1
sS'nilearn/datasets/utils.py'
p1960
I9
sS'nilearn/input_data/tests/test_multi_nifti_masker.py'
p1961
I2
sS'nilearn/input_data/tests/test_nifti_labels_masker.py'
p1962
I1
sS'nilearn/input_data/tests/test_nifti_masker.py'
p1963
I2
sS'examples/04_manipulating_images/plot_affine_transformation.py'
p1964
I2
sS'nilearn/tests/test_testing.py'
p1965
I4
sS'examples/04_manipulating_images/plot_negate_image.py'
p1966
I5
sS'doc/manipulating_images/data_preparation.rst'
p1967
I5
sS'nilearn/tests/test_niimg_conversions.py'
p1968
I17
sS'nilearn/image/tests/test_resampling.py'
p1969
I3
sS'nilearn/connectome/__init__.py'
p1970
I1
sS'nilearn/image/image.py'
p1971
I15
sS'nilearn/_utils/cache_mixin.py'
p1972
I8
sS'nilearn/regions/tests/test_signal_extraction.py'
p1973
I1
sS'examples/connectivity/plot_canica_resting_state.py'
p1974
I2
sS'doc/install_doc_component.html'
p1975
I2
sS'nilearn/plotting/tests/test_img_plotting.py'
p1976
I2
sS'continuous_integration/install.sh'
p1977
I7
sS'examples/02_decoding/plot_haxby_space_net.py'
p1978
I1
sS'setup.py'
p1979
I2
sS'continuous_integration/circle_ci_test_doc.sh'
p1980
I2
sS'nilearn/datasets/func.py'
p1981
I3
sS'nilearn/image/tests/test_image.py'
p1982
I8
sS'doc/introduction.rst'
p1983
I1
sS'nilearn/input_data/tests/test_nifti_maps_masker.py'
p1984
I2
sS'nilearn/signal.py'
p1985
I1
sS'nilearn/_utils/testing.py'
p1986
I4
sS'doc/manipulating_visualizing/data_preparation.rst'
p1987
I1
sS'doc/themes/nilearn/layout.html'
p1988
I2
sS'nilearn/_utils/compat.py'
p1989
I1
sS'nilearn/_utils/niimg_conversions.py'
p1990
I10
sS'contributing.rst'
p1991
I5
sS'appveyor.yml'
p1992
I6
sS'codecov.yml'
p1993
I2
sS'.travis.yml'
p1994
I1
sS'nilearn/connectome/connectivity_matrices.py'
p1995
I1
sS'nilearn/datasets/tests/test_func.py'
p1996
I2
sS'continuous_integration/after_success.sh'
p1997
I1
sS'examples/04_manipulating_images/plot_resample_to_template.py'
p1998
I4
sS'nilearn/mass_univariate/permuted_least_squares.py'
p1999
I2
sS'nilearn/image/resampling.py'
p2000
I4
sS'nilearn/tests/test_numpy_conversions.py'
p2001
I3
sS'nilearn/datasets/tests/test_utils.py'
p2002
I2
sS'doc/decoding/decoding_tutorial.rst'
p2003
I1
sS'doc/contributing.rst'
p2004
I3
sS'examples/04_manipulating_images/plot_compare_mean_image.py'
p2005
I4
sS'doc/conf.py'
p2006
I4
sS'examples/connectivity/plot_connectivity_measures.py'
p2007
I2
sS'nilearn/tests/test_masking.py'
p2008
I1
sS'nilearn/tests/test_cache_mixin.py'
p2009
I8
sS'nilearn/tests/test_signal.py'
p2010
I1
sS'nilearn/__init__.py'
p2011
I7
sS'readme.rst'
p2012
I6
sS'doc/authors.rst'
p2013
I4
sS'nilearn/image/__init__.py'
p2014
I2
sS'examples/03_connectivity/plot_canica_resting_state.py'
p2015
I1
sS'examples/04_manipulating_images/plot_multiply_image.py'
p2016
I2
sS'circle.yml'
p2017
I5
ssS'simon steinkamp'
p2018
g1
(g5
tRp2019
S'nilearn/_utils/ndimage.py'
p2020
I1
sS'nilearn/tests/test_ndimage.py'
p2021
I1
sS'nilearn/image/image.py'
p2022
I1
sS'doc/modules/reference.rst'
p2023
I1
sS'doc/whats_new.rst'
p2024
I2
sS'nilearn/image/__init__.py'
p2025
I1
sS'nilearn/image/tests/test_image.py'
p2026
I1
ssS'naereen'
p2027
g1
(g5
tRp2028
S'doc/decoding/decoding_tutorial.rst'
p2029
I3
sS'doc/connectivity/functional_connectomes.rst'
p2030
I2
sS'doc/install_doc_component.html'
p2031
I1
sS'nilearn/decoding/space_net.py'
p2032
I1
sS'doc/manipulating_images/data_preparation.rst'
p2033
I1
ssS'clfs'
p2034
g1
(g5
tRp2035
S'doc/introduction.rst'
p2036
I1
ssS'dillonplunkett'
p2037
g1
(g5
tRp2038
S'nilearn/decoding/searchlight.py'
p2039
I1
sS'nilearn/_utils/niimg_conversions.py'
p2040
I1
ssS'htygithub'
p2041
g1
(g5
tRp2042
S'nilearn/image/image.py'
p2043
I1
ssS'jnecus'
p2044
g1
(g5
tRp2045
S'nilearn/image/resampling.py'
p2046
I3
sS'nilearn/image/tests/test_resampling.py'
p2047
I3
ssS'meghana.madhyastha@inria.fr'
p2048
g1
(g5
tRp2049
S'doc/connectivity/functional_connectomes.rst'
p2050
I1
sS'nilearn/datasets/description/msdl_atlas.rst'
p2051
I1
sS'examples/01_plotting/plot_overlay.py'
p2052
I1
sS'examples/03_connectivity/plot_probabilistic_atlas_extraction.py'
p2053
I1
sS'examples/03_connectivity/plot_inverse_covariance_connectome.py'
p2054
I1
ssS'eickenberg'
p2055
g1
(g5
tRp2056
S'nilearn/image/resampling.py'
p2057
I14
sS'nilearn/image/__init__.py'
p2058
I1
sS'plot_haxby_full_analysis.py'
p2059
I22
sS'nilearn/_utils/fixes/matplotlib_backports.py'
p2060
I2
sS'plot_haxby_stimuli.py'
p2061
I3
sS'nilearn/plotting/img_plotting.py'
p2062
I6
sS'nilearn/masking.py'
p2063
I1
sS'nilearn/image/tests/test_resampling.py'
p2064
I12
sS'nilearn/image/image.py'
p2065
I8
sS'nilearn/plotting/tests/test_img_plotting.py'
p2066
I3
sS'nilearn/input_data/tests/test_base_masker.py'
p2067
I2
sS'doc/building_blocks/data_preparation.rst'
p2068
I1
sS'plot_affine_transformation.py'
p2069
I7
sS'nilearn/__init__.py'
p2070
I1
sS'haxby_full_analysis.py'
p2071
I4
sS'nilearn/signal.py'
p2072
I1
sS'nilearn/input_data/base_masker.py'
p2073
I1
sS'nilearn/plotting/displays.py'
p2074
I1
sS'nilearn/datasets/func.py'
p2075
I1
sS'nilearn/image/tests/test_image.py'
p2076
I4
sS'nilearn/datasets.py'
p2077
I2
ssS'fabianp'
p2078
g1
(g5
tRp2079
S'nilearn/decoding/searchlight.py'
p2080
I1
sS'doc/introduction.rst'
p2081
I1
sS'nilearn/_utils/ndimage.py'
p2082
I1
sS'plot_haxby_full_analysis.py'
p2083
I1
sS'nisl/datasets.py'
p2084
I1
sS'doc/index.rst'
p2085
I1
sS'plot_haxby_full_analysis_log_l1.py'
p2086
I1
sS'plot_simulated_data.py'
p2087
I1
sS'index.rst'
p2088
I4
sS'setup.py'
p2089
I1
ssS'virgilefritsch'
p2090
g1
(g5
tRp2091
S'nilearn/mass_univariate/tests/test_permuted_least_squares.py'
p2092
I22
sS'plot_haxby_mass_univariate.py'
p2093
I26
sS'nilearn/mass_univariate/__init__.py'
p2094
I2
sS'nilearn/tests/test_datasets.py'
p2095
I12
sS'plot_localizer_mass_univariate.py'
p2096
I15
sS'nilearn/group_analysis/tests/res_gstat_test_mulm_ols_intercept.npz'
p2097
I2
sS'nilearn/group_analysis/tests/testing_data.npz'
p2098
I2
sS'nilearn/_utils/fixes/sklearn_f_regression_nosparse.py'
p2099
I2
sS'plot_localizer_mass_univariate_methods.py'
p2100
I2
sS'nilearn/mass_univariate/tests/res_gstat_test_mulm_ols_intercept.npz'
p2101
I2
sS'doc/themes/nilearn/layout.html'
p2102
I1
sS'nilearn/mass_univariate/tests/testing_data.npz'
p2103
I2
sS'plot_oasis_vbm.py'
p2104
I15
sS'nilearn/image/image.py'
p2105
I1
sS'nilearn/input_data/nifti_masker.py'
p2106
I1
sS'nilearn/tests/data/oasis_cross-sectional.csv'
p2107
I1
sS'nilearn/mass_univariate/tests/tests_permuted_least_squares.py'
p2108
I3
sS'nilearn/tests/data/cubicwebexport2.csv'
p2109
I2
sS'_utils/fixes/sklearn_f_regression.py'
p2110
I4
sS'setup.py'
p2111
I2
sS'nilearn/mass_univariate/tests/test_gsarray.py'
p2112
I5
sS'nilearn/datasets.py'
p2113
I29
sS'nilearn/_utils/fixes/__init__.py'
p2114
I4
sS'nilearn/mass_univariate/tests/res_gstat_test_mulm_ols.npz'
p2115
I2
sS'nilearn/group_analysis/tests/tests_permuted_least_squares.py'
p2116
I2
sS'nilearn/tests/data/cubicwebexport.csv'
p2117
I2
sS'nilearn/group_analysis/permuted_least_squares.py'
p2118
I2
sS'nilearn/group_analysis/permuted_least_squares_aux.py'
p2119
I2
sS'nilearn/group_analysis/tests/res_gstat_test_mulm_ols.npz'
p2120
I2
sS'nilearn/mass_univariate/permuted_least_squares.py'
p2121
I40
sS'nilearn/group_analysis/__init__.py'
p2122
I2
sS'plot_haxby_searchlight.py'
p2123
I2
sS'_utils/fixes/__init__.py'
p2124
I4
sS'nilearn/_utils/fixes/sklearn_f_regression.py'
p2125
I2
sS'plot_localizer_simple_analysis.py'
p2126
I3
sS'nilearn/image/tests/test_image.py'
p2127
I1
sS'doc/modules/reference.rst'
p2128
I1
sS'_utils/fixes/sklearn_f_regression_nosparse.py'
p2129
I4
sS'doc/building_blocks/searchlight.rst'
p2130
I13
sS'nilearn/input_data/nifti_region.py'
p2131
I1
sS'plot_haxby_stimuli.py'
p2132
I1
ssS'sb238920@is223297.intra.cea.fr'
p2133
g1
(g5
tRp2134
S'doc/connectivity/functional_connectomes.rst'
p2135
I1
sS'nilearn/description/haxby2001.rst'
p2136
I1
sS'examples/decoding/plot_haxby_full_analysis.py'
p2137
I1
sS'nilearn/mass_univariate/tests/test_permuted_least_squares.py'
p2138
I1
sS'nilearn/datasets/description/power_2011.rst'
p2139
I1
sS'nilearn/datasets/tests/data/confounds_with_header.csv'
p2140
I1
sS'nilearn/datasets/__init__.py'
p2141
I2
sS'examples/manipulating_visualizing/plot_demo_glass_brain_extensive.py'
p2142
I1
sS'doc/manipulating_visualizing/plotting.rst'
p2143
I1
sS'examples/manipulating_visualizing/plot_probabilistic_atlas.py'
p2144
I1
sS'nilearn/input_data/tests/test_nifti_masker.py'
p2145
I2
sS'nilearn/datasets/tests/data/test.mgz'
p2146
I1
sS'nilearn/input_data/tests/test_nifti_spheres_masker.py'
p2147
I1
sS'nilearn/input_data/tests/test_base_masker.py'
p2148
I1
sS'nilearn/plotting/img_plotting.py'
p2149
I2
sS'nilearn/datasets/data/__init__.py'
p2150
I1
sS'nilearn/connectome/__init__.py'
p2151
I1
sS'nilearn/input_data/nifti_masker.py'
p2152
I1
sS'.gitignore'
p2153
I1
sS'nilearn/plotting/tests/test_img_plotting.py'
p2154
I2
sS'nilearn/datasets/data/mmap.dat'
p2155
I1
sS'doc/building_blocks/manual_pipeline.rst'
p2156
I1
sS'nilearn/datasets/description/craddock_2012.rst'
p2157
I1
sS'nilearn/datasets/struct.py'
p2158
I1
sS'nilearn/description/adhd.rst'
p2159
I1
sS'nilearn/input_data/tests/test_nifti_maps_masker.py'
p2160
I3
sS'nilearn/signal.py'
p2161
I8
sS'nilearn/description/yeo.rst'
p2162
I1
sS'nilearn/connectivity/tests/__init__.py'
p2163
I3
sS'nilearn/_utils/fixes/__init__.py'
p2164
I1
sS'examples/connectivity/plot_inverse_covariance_connectome.py'
p2165
I1
sS'nilearn/connectivity/embedding.py'
p2166
I8
sS'nilearn/datasets/description/aal_spm_12.rst'
p2167
I2
sS'demo_clean.py'
p2168
I4
sS'nilearn/datasets/tests/test_func.py'
p2169
I3
sS'nilearn/decoding/tests/test_graph_net.py'
p2170
I1
sS'doc/makefile'
p2171
I1
sS'nilearn/input_data/masker_validation.py'
p2172
I1
sS'doc/introduction.rst'
p2173
I1
sS'nilearn/decomposition/canica.py'
p2174
I1
sS'nilearn/datasets/atlas.py'
p2175
I3
sS'nilearn/decoding/space_net_solvers.py'
p2176
I1
sS'examples/connectivity/plot_connectivity_measures.py'
p2177
I5
sS'doc/decoding/decoding_tutorial.rst'
p2178
I1
sS'nilearn/description/nyu.rst'
p2179
I1
sS'examples/manipulating_visualizing/plot_demo_glass_brain.py'
p2180
I1
sS'readme.rst'
p2181
I2
sS'nilearn/input_data/multi_nifti_masker.py'
p2182
I1
sS'.travis.yml'
p2183
I3
sS'examples/decoding/plot_haxby_grid_search.py'
p2184
I1
sS'nilearn/description/craddock_2012.rst'
p2185
I1
sS'doc/manipulating_visualizing/manipulating_images.rst'
p2186
I2
sS'doc/modules/reference.rst'
p2187
I6
sS'examples/plot_nifti_simple.py'
p2188
I1
sS'examples/manipulating_visualizing/plot_atlas.py'
p2189
I1
sS'nilearn/_utils/numpy_conversions.py'
p2190
I1
sS'nilearn/description/miyawaki2008.rst'
p2191
I1
sS'nilearn/input_data/tests/test_masker_validation.py'
p2192
I1
sS'examples/plot_nilearn_101.py'
p2193
I1
sS'nilearn/plotting/find_cuts.py'
p2194
I2
sS'nilearn/datasets/tests/test_struct.py'
p2195
I3
sS'nilearn/decoding/tests/test_tv.py'
p2196
I1
sS'nilearn/version.py'
p2197
I1
sS'examples/plot_localizer_simple_analysis.py'
p2198
I1
sS'nilearn/decomposition/multi_pca.py'
p2199
I2
sS'examples/manipulating_visualizing/plot_visualization.py'
p2200
I1
sS'nilearn/decoding/tests/test_objective_functions.py'
p2201
I1
sS'nilearn/_utils/__init__.py'
p2202
I1
sS'nilearn/tests/test_niimg_conversions.py'
p2203
I3
sS'nilearn/image/tests/test_resampling.py'
p2204
I2
sS'nilearn/datasets/description/msdl_atlas.rst'
p2205
I1
sS'nilearn/image/image.py'
p2206
I1
sS'examples/connectivity/plot_simulated_connectome.py'
p2207
I1
sS'nilearn/datasets/data/power_2011.csv'
p2208
I1
sS'nilearn/description/msdl_atlas.rst'
p2209
I1
sS'examples/connectivity/plot_signal_extraction.py'
p2210
I1
sS'nilearn/datasets/func.py'
p2211
I2
sS'examples/manipulating_visualizing/plot_prob_atlas.py'
p2212
I1
sS'nilearn/_utils/testing.py'
p2213
I3
sS'nilearn/_utils/niimg.py'
p2214
I1
sS'examples/manipulating_visualizing/plot_demo_more_plotting.py'
p2215
I1
sS'examples/connectivity/plot_probabilistic_atlas_extraction.py'
p2216
I2
sS'nilearn/datasets/data/confounds_with_header.csv'
p2217
I1
sS'nilearn/_utils/niimg_conversions.py'
p2218
I2
sS'examples/decoding/plot_simulated_data.py'
p2219
I1
sS'nilearn/connectivity/matrix_operations.py'
p2220
I3
sS'nilearn/description/icbm152_2009.rst'
p2221
I1
sS'nilearn/data/avg152t1_brain.nii.gz'
p2222
I1
sS'nilearn/description/__init__.py'
p2223
I1
sS'nilearn/connectome/connectivity_matrices.py'
p2224
I1
sS'nilearn/decoding/fista.py'
p2225
I1
sS'nilearn/plotting/tests/test_edge_detect.py'
p2226
I1
sS'examples/decoding/plot_haxby_different_estimators.py'
p2227
I1
sS'doc/decoding/estimator_choice.rst'
p2228
I1
sS'nilearn/description/power_2011.rst'
p2229
I1
sS'examples/manipulating_visualizing/plot_roi_extraction.py'
p2230
I1
sS'nilearn/input_data/nifti_labels_masker.py'
p2231
I1
sS'nilearn/decoding/tests/test_sklearn_compatibility.py'
p2232
I1
sS'nilearn/masking.py'
p2233
I1
sS'examples/decoding/plot_haxby_multiclass.py'
p2234
I1
sS'examples/connectivity/plot_adhd_tangent.py'
p2235
I14
sS'nilearn/datasets/data/pymvpa-exampledata.tar.bz2'
p2236
I1
sS'nilearn/tests/test_masking.py'
p2237
I1
sS'nilearn/_utils/compat.py'
p2238
I2
sS'nilearn/tests/test_niimg.py'
p2239
I2
sS'nilearn/mass_univariate/__init__.py'
p2240
I1
sS'nilearn/datasets/tests/test_atlas.py'
p2241
I3
sS'examples/decoding/plot_haxby_space_net.py'
p2242
I1
sS'nilearn/datasets/description/abide_pcp.rst'
p2243
I1
sS'nilearn/_utils/cache_mixin.py'
p2244
I1
sS'doc/themes/nilearn/static/nature.css_t'
p2245
I1
sS'nilearn/decoding/tests/simulate_graph_net_data.py'
p2246
I1
sS'nilearn/datasets/utils.py'
p2247
I2
sS'nilearn/input_data/tests/test_multi_nifti_masker.py'
p2248
I2
sS'examples/connectivity/plot_rest_clustering.py'
p2249
I1
sS'nilearn/image/tests/data/test.mgz'
p2250
I1
sS'nilearn/datasets/description/smith_2009.rst'
p2251
I1
sS'examples/manipulating_visualizing/plot_localizer_mass_univariate_methods.py'
p2252
I1
sS'examples/manipulating_visualizing/plot_affine_transformation.py'
p2253
I1
sS'nilearn/datasets/tests/data/spm_confounds.txt'
p2254
I1
sS'nilearn/decomposition/tests/test_canica.py'
p2255
I1
sS'nilearn/description/abide_pcp.rst'
p2256
I1
sS'makefile'
p2257
I1
sS'examples/manipulating_visualizing/plot_demo_plotting.py'
p2258
I1
sS'examples/connectivity/plot_canica_resting_state.py'
p2259
I1
sS'doc/install_doc_component.html'
p2260
I1
sS'nilearn/plotting/tests/test_find_cuts.py'
p2261
I1
sS'nilearn/input_data/base_masker.py'
p2262
I1
sS'nilearn/datasets/data/spm_confounds.txt'
p2263
I1
sS'nilearn/input_data/nifti_spheres_masker.py'
p2264
I2
sS'examples/manipulating_visualizing/plot_mask_computation.py'
p2265
I1
sS'nilearn/decoding/tests/test_searchlight.py'
p2266
I1
sS'examples/connectivity/plot_multi_subject_connectome.py'
p2267
I1
sS'examples/decoding/plot_haxby_searchlight.py'
p2268
I1
sS'nilearn/data/power_2011.csv'
p2269
I1
sS'nilearn/connectivity/tests/test_connectivity_matrices.py'
p2270
I3
sS'nilearn/plotting/tests/test_displays.py'
p2271
I1
sS'nilearn/description/smith_2009.rst'
p2272
I1
sS'nilearn/connectivity/tests/test_embedding.py'
p2273
I10
sS'nilearn/decomposition/tests/test_multi_pca.py'
p2274
I1
sS'examples/connectivity/plot_ica_resting_state.py'
p2275
I1
sS'nilearn/connectivity/__init__.py'
p2276
I6
sS'nilearn/connectome/tests/test_connectivity_matrices.py'
p2277
I1
sS'nilearn/datasets/description/adhd.rst'
p2278
I1
sS'nilearn/mass_univariate/permuted_least_squares.py'
p2279
I2
sS'doc/decoding/space_net.rst'
p2280
I1
sS'nilearn/data/__init__.py'
p2281
I1
sS'examples/manipulating_visualizing/plot_haxby_masks.py'
p2282
I1
sS'doc/decoding/decoding_simulated.rst'
p2283
I1
sS'nilearn/datasets/description/aal_spm12.rst'
p2284
I1
sS'nilearn/datasets/tests/data/__init__.py'
p2285
I1
sS'nilearn/plotting/__init__.py'
p2286
I1
sS'nilearn/datasets/description/miyawaki2008.rst'
p2287
I1
sS'doc/whats_new.rst'
p2288
I2
sS'nilearn/image/tests/data/__init__.py'
p2289
I1
sS'nilearn/tests/test_region.py'
p2290
I1
sS'examples/connectivity/plot_adhd_spheres.py'
p2291
I1
sS'nilearn/decoding/tests/test_operators.py'
p2292
I1
sS'nilearn/plotting/displays.py'
p2293
I1
sS'nilearn/datasets/description/nyu.rst'
p2294
I2
sS'nilearn/connectivity/tests/test_matrix_operations.py'
p2295
I2
sS'examples/decoding/plot_haxby_anova_svm.py'
p2296
I1
sS'doc/index.rst'
p2297
I1
sS'nilearn/decoding/tests/test_space_net.py'
p2298
I3
sS'examples/manipulating_visualizing/plot_haxby_mass_univariate.py'
p2299
I1
sS'doc/decoding/index.rst'
p2300
I1
sS'nilearn/description/brainomics_localizer.rst'
p2301
I1
sS'nilearn/datasets/description/yeo_2011.rst'
p2302
I1
sS'nilearn/tests/test_class_inspect.py'
p2303
I1
sS'nilearn/decoding/tests/test_fista.py'
p2304
I1
sS'examples/manipulating_visualizing/plot_overlay.py'
p2305
I1
sS'nilearn/input_data/nifti_maps_masker.py'
p2306
I2
sS'nilearn/image/__init__.py'
p2307
I1
sS'nilearn/input_data/tests/test_nifti_labels_masker.py'
p2308
I1
sS'nilearn/tests/test_logger.py'
p2309
I1
sS'nilearn/connectivity/connectivity_matrices.py'
p2310
I4
sS'nilearn/datasets/description/nyu_rest.rst'
p2311
I1
sS'continuous_integration/install.sh'
p2312
I1
sS'nilearn/datasets/description/icbm152_2009.rst'
p2313
I1
sS'nilearn/decoding/space_net.py'
p2314
I3
sS'nilearn/image/tests/test_image.py'
p2315
I2
sS'nilearn/datasets.py'
p2316
I1
sS'nilearn/decoding/__init__.py'
p2317
I1
sS'nilearn/tests/test_extmath.py'
p2318
I1
sS'nilearn/tests/test_datasets.py'
p2319
I1
sS'nilearn/plotting/glass_brain_files/plot_align_svg.py'
p2320
I1
sS'doc/themes/nilearn/layout.html'
p2321
I1
sS'nilearn/datasets/description/oasis1.rst'
p2322
I1
sS'nilearn/decoding/tests/test_same_api.py'
p2323
I1
sS'appveyor.yml'
p2324
I1
sS'examples/decoding/plot_mixed_gambles_space_net.py'
p2325
I1
sS'nilearn/tests/data/test.mgz'
p2326
I1
sS'nilearn/datasets/tests/__init__.py'
p2327
I1
sS'circle.yml'
p2328
I2
sS'doc/connectivity/resting_state_networks.rst'
p2329
I1
sS'examples/decoding/plot_oasis_vbm.py'
p2330
I1
sS'nilearn/tests/test_group_sparse_covariance.py'
p2331
I1
sS'doc/manipulating_visualizing/data_preparation.rst'
p2332
I1
sS'nilearn/image/resampling.py'
p2333
I2
sS'nilearn/description/oasis1'
p2334
I1
sS'nilearn/tests/test_numpy_conversions.py'
p2335
I2
sS'nilearn/datasets/tests/test_utils.py'
p2336
I2
sS'nilearn/_utils/fixes/matplotlib_backports.py'
p2337
I1
sS'nilearn/decomposition/__init__.py'
p2338
I1
sS'nilearn/datasets/data/test.mgz'
p2339
I1
sS'nilearn/datasets/tests/data/mmap.dat'
p2340
I1
sS'nilearn/datasets/description/haxby2001.rst'
p2341
I1
sS'examples/manipulating_visualizing/plot_smooth_mean_image.py'
p2342
I1
sS'nilearn/datasets/description/brainomics_localizer.rst'
p2343
I2
sS'nilearn/decoding/objective_functions.py'
p2344
I1
sS'nilearn/tests/test_cache_mixin.py'
p2345
I2
sS'nilearn/tests/test_signal.py'
p2346
I3
sS'setup.py'
p2347
I2
sS'nilearn/__init__.py'
p2348
I1
sS'doc/connectivity/connectome_extraction.rst'
p2349
I2
sS'nilearn/region.py'
p2350
I1
sS'nilearn/datasets/data/avg152t1_brain.nii.gz'
p2351
I1
sS'nilearn/datasets/description/__init__.py'
p2352
I1
sS'nilearn/datasets/tests/data/pymvpa-exampledata.tar.bz2'
p2353
I1
sS'examples/decoding/plot_oasis_vbm_space_net.py'
p2354
I1
sS'nilearn/decoding/proximal_operators.py'
p2355
I1
sS'nilearn/connectome/tests/__init__.py'
p2356
I1
ssS'vmichel'
p2357
g1
(g5
tRp2358
S'searchlight/images.py'
p2359
I1
sS'searchlight/example_searchlight.py'
p2360
I1
sS'searchlight/searchlight.py'
p2361
I1
ssS'robbisg'
p2362
g1
(g5
tRp2363
S'nilearn/plotting/glass_brain.py'
p2364
I1
ssS'martinperez'
p2365
g1
(g5
tRp2366
S'doc/modules/reference.rst'
p2367
I3
sS'nilearn/datasets/tests/test_atlas.py'
p2368
I8
sS'examples/01_plotting/plot_demo_glass_brain.py'
p2369
I6
sS'examples/03_connectivity/plot_connectivity_measures.py'
p2370
I1
sS'nilearn/datasets/__init__.py'
p2371
I2
sS'doc/themes/nilearn/static/nature.css_t'
p2372
I4
sS'nilearn/datasets/utils.py'
p2373
I3
sS'nilearn/input_data/nifti_maps_masker.py'
p2374
I1
sS'nilearn/decomposition/multi_pca.py'
p2375
I1
sS'examples/01_plotting/plot_demo_glass_brain_extensive.py'
p2376
I6
sS'nilearn/plotting/img_plotting.py'
p2377
I8
sS'nilearn/input_data/nifti_masker.py'
p2378
I2
sS'nilearn/plotting/tests/test_displays.py'
p2379
I3
sS'examples/connectivity/plot_canica_resting_state.py'
p2380
I3
sS'nilearn/plotting/glass_brain_files/brain_schematics_left_side.svg'
p2381
I2
sS'nilearn/plotting/tests/test_img_plotting.py'
p2382
I3
sS'nilearn/plotting/glass_brain.py'
p2383
I2
sS'examples/03_connectivity/plot_adhd_spheres.py'
p2384
I1
sS'nilearn/decoding/space_net.py'
p2385
I1
sS'nilearn/input_data/nifti_spheres_masker.py'
p2386
I1
sS'nilearn/signal.py'
p2387
I2
sS'nilearn/plotting/glass_brain_files/plot_align_svg.py'
p2388
I2
sS'doc/themes/nilearn/layout.html'
p2389
I3
sS'nilearn/datasets/description/aal_spm_12.rst'
p2390
I2
sS'doc/connectivity/resting_state_networks.rst'
p2391
I4
sS'doc/manipulating_visualizing/generated/nilearn.masking.compute_epi_mask.rst'
p2392
I2
sS'doc/introduction.rst'
p2393
I1
sS'nilearn/datasets/atlas.py'
p2394
I11
sS'doc/plotting/index.rst'
p2395
I2
sS'nilearn/input_data/nifti_labels_masker.py'
p2396
I1
sS'nilearn/plotting/glass_brain_files/brain_schematics_left_side.json'
p2397
I2
sS'doc/whats_new.rst'
p2398
I3
sS'nilearn/tests/test_signal.py'
p2399
I2
sS'nilearn/input_data/multi_nifti_masker.py'
p2400
I1
sS'nilearn/decomposition/base.py'
p2401
I1
sS'nilearn/plotting/displays.py'
p2402
I13
sS'doc/install_doc_component.html'
p2403
I8
ssS'lesteve'
p2404
g1
(g5
tRp2405
S'nilearn/glass_brain_scripts/plot_align_svg.py'
p2406
I2
sS'doc/sphinxext/sphinxgallery/__init__.py'
p2407
I1
sS'nilearn/image/image.py'
p2408
I29
sS'nilearn/plotting/glass_brain/generated_json/brain_schematics_top.json'
p2409
I2
sS'examples/decoding/plot_haxby_stimuli.py'
p2410
I5
sS'doc/data_analysis/functional_connectomes.rst'
p2411
I8
sS'nilearn/input_data/tests/test_nifti_spheres_masker.py'
p2412
I3
sS'nilearn/plotting/glass_brain_scripts/__init__.py'
p2413
I2
sS'plot_oasis_vbm.py'
p2414
I6
sS'nilearn/input_data/nifti_masker.py'
p2415
I14
sS'nilearn/plotting/test/test_slicers.py'
p2416
I1
sS'doc/data_analysis/parcellating.rst'
p2417
I4
sS'doc/building_blocks/manual_pipeline.rst'
p2418
I5
sS'examples/plot_haxby_full_analysis.py'
p2419
I4
sS'nilearn/description/yeo.rst'
p2420
I1
sS'nilearn/glass_brain_scripts/svg'
p2421
I2
sS'nilearn/glass_brain_scripts/align_svg.py'
p2422
I3
sS'nilearn/datasets/__init__.py'
p2423
I4
sS'examples/connectivity/plot_inverse_covariance_connectome.py'
p2424
I7
sS'nilearn/glass_brain_scripts/svg_plots/brain_schematics_side.svg'
p2425
I2
sS'doc/introduction.rst'
p2426
I18
sS'nilearn/decomposition/canica.py'
p2427
I6
sS'examples/connectivity/readme.txt'
p2428
I4
sS'doc/sphinxext/numpy_ext_old/docscrape_sphinx.py'
p2429
I1
sS'doc/developers/group_sparse_covariance.rst'
p2430
I1
sS'doc/sphinxext/sphinx_gallery/_static/gallery.css'
p2431
I1
sS'nilearn/description/nyu.rst'
p2432
I1
sS'examples/manipulating_visualizing/plot_demo_glass_brain.py'
p2433
I4
sS'nilearn/plotting/glass_brain_files/readme.md'
p2434
I2
sS'.travis.yml'
p2435
I26
sS'doc/building_blocks/estimator_choice.rst'
p2436
I7
sS'nilearn/_utils/compat.py'
p2437
I2
sS'plot_haxby_mass_univariate.py'
p2438
I4
sS'examples/plot_nifti_simple.py'
p2439
I7
sS'nilearn/image/__init__.py'
p2440
I5
sS'nilearn/decoding/tests/test_tv.py'
p2441
I2
sS'examples/plot_localizer_simple_analysis.py'
p2442
I6
sS'doc/sphinxext/numpydoc/numpydoc.py'
p2443
I2
sS'nilearn/input_data/tests/test_nifti_region.py'
p2444
I5
sS'examples/connectivity/plot_signal_extraction.py'
p2445
I4
sS'nilearn/datasets/func.py'
p2446
I3
sS'examples/.gitignore'
p2447
I1
sS'nilearn/glass_brain_scripts/generated_json/brain_schematics_front.json'
p2448
I2
sS'doc/sphinxext/numpydoc/compiler_unparse.py'
p2449
I2
sS'nilearn/glass_brain_scripts/plot_glass_brain.py'
p2450
I2
sS'examples/plot_haxby_stimuli.py'
p2451
I4
sS'examples/decoding/plot_haxby_different_estimators.py'
p2452
I12
sS'plot_haxby_searchlight.py'
p2453
I3
sS'nilearn/data/__init__.py'
p2454
I1
sS'nilearn/masking.py'
p2455
I12
sS'examples/decoding/plot_haxby_multiclass.py'
p2456
I11
sS'doc/images/no_image.png'
p2457
I1
sS'nilearn/tests/test_niimg.py'
p2458
I2
sS'nilearn/_utils/exceptions.py'
p2459
I2
sS'nilearn/datasets/tests/test_atlas.py'
p2460
I6
sS'nilearn/group_sparse_covariance.py'
p2461
I6
sS'doc/sphinxext/sphinx_gallery/_static/broken_example.png'
p2462
I1
sS'nilearn/plotting/tests/test_slicers.py'
p2463
I4
sS'nilearn/decoding/tests/simulate_graph_net_data.py'
p2464
I1
sS'doc/connectivity/parcellating.rst'
p2465
I4
sS'examples/manipulating_visualizing/plot_demo_plotting.py'
p2466
I9
sS'examples/connectivity/plot_rest_clustering.py'
p2467
I10
sS'nilearn/plotting/glass_brain/scripts/generate_json.sh'
p2468
I2
sS'nilearn/plotting/glass_brain_files/plot_glass_brain.py'
p2469
I6
sS'nilearn/input_data/base_masker.py'
p2470
I12
sS'examples/manipulating_visualizing/plot_mask_computation.py'
p2471
I10
sS'nilearn/decoding/tests/test_searchlight.py'
p2472
I3
sS'examples/connectivity/plot_multi_subject_connectome.py'
p2473
I5
sS'nilearn/plotting/glass_brain/generated_json/brain_schematics_side.json'
p2474
I2
sS'nilearn/plotting/glass_brain/svg_plots/brain_schematics_front.svg'
p2475
I2
sS'nilearn/description/smith_2009.rst'
p2476
I1
sS'doc/sphinxext/gen_rst.py'
p2477
I13
sS'doc/building_blocks/data_preparation.rst'
p2478
I15
sS'nilearn/decomposition/tests/test_multi_pca.py'
p2479
I2
sS'nilearn/plotting/glass_brain_scripts/generated_json/brain_schematics_side.json'
p2480
I3
sS'nilearn/mass_univariate/permuted_least_squares.py'
p2481
I3
sS'doc/decoding/decoding_tutorial.rst'
p2482
I7
sS'examples/manipulating_visualizing/plot_roi_extraction.py'
p2483
I8
sS'doc/whats_new.rst'
p2484
I9
sS'nilearn/tests/test_region.py'
p2485
I8
sS'examples/manipulating_visualizing/plot_haxby_mass_univariate.py'
p2486
I10
sS'examples/plot_python_101.py'
p2487
I3
sS'examples/decoding/readme.txt'
p2488
I6
sS'examples/plot_affine_transformation.py'
p2489
I4
sS'doc/data_analysis/decoding.rst'
p2490
I15
sS'examples/manipulating_visualizing/plot_demo_plotting_glass_brain.py'
p2491
I4
sS'examples/plot_demo_plotting.py'
p2492
I6
sS'examples/connectivity/plot_adhd_covariance.py'
p2493
I23
sS'nilearn/plotting/glass_brain_files/__init__.py'
p2494
I1
sS'nilearn/image/tests/test_image.py'
p2495
I21
sS'nilearn/plotting/glass_brain_files/brain_schematics_top.svg'
p2496
I6
sS'examples/manipulating_images_and_visualization/plot_mask_computation.py'
p2497
I3
sS'doc/sphinxext/sphinx_gallery/gen_gallery.py'
p2498
I1
sS'nilearn/plotting/__init__.py'
p2499
I13
sS'nilearn/datasets/description/aal_spm_12.rst'
p2500
I2
sS'nilearn/tests/test_masking.py'
p2501
I9
sS'nilearn/plotting/glass_brain/svg_plots/brain_schematics_top.svg'
p2502
I2
sS'nilearn/plotting/glass_brain_scripts/svg_to_json_converter.py'
p2503
I3
sS'nilearn/plotting/glass_brain/scripts/plot_align_svg.py'
p2504
I2
sS'examples/plot_ica_resting_state.py'
p2505
I4
sS'examples/manipulating_visualizing/plot_probabilistic_atlas.py'
p2506
I2
sS'nilearn/input_data/tests/test_base_masker.py'
p2507
I9
sS'doc/sphinxext/sphinxgallery/gen_gallery.py'
p2508
I1
sS'doc/sphinxext/numpydoc/traitsdoc.py'
p2509
I2
sS'nilearn/plotting/tests/test_displays.py'
p2510
I10
sS'doc/sphinxext/numpy_ext/__init__.py'
p2511
I2
sS'nilearn/plotting/test/test_img_plotting.py'
p2512
I1
sS'nilearn/tests/test_files/spm_confounds.txt'
p2513
I1
sS'nilearn/input_data/tests/test_nifti_maps_masker.py'
p2514
I5
sS'examples/manipulating_visualizing/plot_dim_plotting.py'
p2515
I1
sS'nilearn/plotting/glass_brain_scripts/svg_plots/brain_schematics_top.svg'
p2516
I2
sS'nilearn/plotting/glass_brain_scripts/svg_plots/brain_schematics_front.svg'
p2517
I2
sS'doc/building_blocks/unsupervised_learning.rst'
p2518
I2
sS'examples/plot_miyawaki_reconstruction.py'
p2519
I4
sS'examples/connectivity/plot_connectivity_measures.py'
p2520
I2
sS'nilearn/mass_univariate/tests/__init__.py'
p2521
I4
sS'nilearn/plotting/glass_brain_files/brain_schematics_front.svg'
p2522
I4
sS'nilearn/datasets.py'
p2523
I27
sS'examples/decoding/plot_haxby_grid_search.py'
p2524
I11
sS'nilearn/input_data/nifti_region.py'
p2525
I6
sS'doc/manipulating_visualizing/manipulating_images.rst'
p2526
I11
sS'examples/plot_haxby_different_estimators.py'
p2527
I4
sS'examples/decoding/plot_miyawaki_reconstruction.py'
p2528
I7
sS'nilearn/datasets/tests/test_struct.py'
p2529
I4
sS'nilearn/glass_brain_scripts/__init__.py'
p2530
I2
sS'nilearn/decomposition/multi_pca.py'
p2531
I14
sS'nilearn/decoding/tests/test_same_api.py'
p2532
I3
sS'nilearn/_utils/fast_maths.py'
p2533
I2
sS'examples/connectivity/plot_simulated_connectome.py'
p2534
I3
sS'examples/plot_canica_resting_state.py'
p2535
I4
sS'plot_localizer_simple_analysis.py'
p2536
I3
sS'examples/manipulating_images_and_visualization/readme.txt'
p2537
I4
sS'doc/sphinxext/sphinxgallery/gen_rst.py'
p2538
I1
sS'doc/sphinxext/numpydoc/docscrape.py'
p2539
I2
sS'nilearn/plotting/glass_brain_files/brain_schematics_side.svg'
p2540
I6
sS'plot_haxby_full_analysis.py'
p2541
I2
sS'plot_visualization.py'
p2542
I2
sS'examples/plot_haxby_mass_univariate.py'
p2543
I4
sS'nilearn/_utils/niimg_conversions.py'
p2544
I22
sS'nilearn/description/__init__.py'
p2545
I2
sS'nilearn/decoding/searchlight.py'
p2546
I5
sS'examples/manipulating_visualizing/readme.txt'
p2547
I1
sS'doc/sphinxext/sphinxgallery/docs_resolv.py'
p2548
I1
sS'plot_haxby_masks.py'
p2549
I4
sS'nilearn/mass_univariate/tests/test_permuted_least_squares.py'
p2550
I4
sS'nilearn/mass_univariate/__init__.py'
p2551
I2
sS'nilearn/plotting/tests/__init__.py'
p2552
I3
sS'examples/readme.txt'
p2553
I6
sS'nilearn/plotting/glass_brain/svg_plots/brain_schematics_side.svg'
p2554
I2
sS'nilearn/tests/test_files/confounds_with_header.csv'
p2555
I1
sS'nilearn/input_data/tests/test_multi_nifti_masker.py'
p2556
I6
sS'examples/manipulating_visualizing/plot_affine_transformation.py'
p2557
I2
sS'nilearn/decomposition/tests/test_canica.py'
p2558
I2
sS'nilearn/description/abide_pcp.rst'
p2559
I1
sS'makefile'
p2560
I5
sS'doc/authors.rst'
p2561
I8
sS'plot_roi_extraction.py'
p2562
I3
sS'examples/plot_haxby_simple.py'
p2563
I8
sS'nilearn/plotting/tests/test_find_cuts.py'
p2564
I7
sS'nilearn/input_data/nifti_spheres_masker.py'
p2565
I5
sS'nilearn/plotting/glass_brain/scripts/plot_glass_brain.py'
p2566
I2
sS'nilearn/datasets/description/nyu_rest.rst'
p2567
I1
sS'doc/building_blocks/pipeline_introduction.rst'
p2568
I8
sS'examples/plot_haxby_anova_svm.py'
p2569
I4
sS'examples/plot_haxby_masks.py'
p2570
I4
sS'nilearn/glass_brain_scripts/svg_plots/brain_schematics_front.svg'
p2571
I2
sS'nilearn/plotting/glass_brain_scripts/plot_glass_brain.py'
p2572
I2
sS'doc/building_blocks/searchlight.rst'
p2573
I7
sS'circle.yml'
p2574
I5
sS'nilearn/plotting/slicers.py'
p2575
I23
sS'examples/manipulating_images_and_visualization/plot_localizer_mass_univariate_methods.py'
p2576
I3
sS'nilearn/description/brainomics_localizer.rst'
p2577
I1
sS'nilearn/plotting/glass_brain_scripts/generated_json/brain_schematics_top.json'
p2578
I3
sS'doc/sphinxext/numpydoc/linkcode.py'
p2579
I2
sS'examples/connectivity/plot_connect_comparison.py'
p2580
I5
sS'examples/manipulating_images_and_visualization/plot_haxby_mass_univariate.py'
p2581
I3
sS'nilearn/plotting/glass_brain_files/plot_align_svg.py'
p2582
I7
sS'nilearn/_utils/logger.py'
p2583
I4
sS'nilearn/plotting/glass_brain_files/generate_json.sh'
p2584
I3
sS'nilearn/tests/test_group_sparse_covariance.py'
p2585
I3
sS'doc/manipulating_visualizing/data_preparation.rst'
p2586
I6
sS'nilearn/image/resampling.py'
p2587
I17
sS'nilearn/decoding/tests/__init__.py'
p2588
I2
sS'nilearn/tests/test_numpy_conversions.py'
p2589
I2
sS'doc/building_blocks/index.rst'
p2590
I3
sS'nilearn/decoding/tests/test_fista.py'
p2591
I2
sS'nilearn/plotting/edge_detect.py'
p2592
I2
sS'doc/sphinxext/numpy_ext/docscrape.py'
p2593
I4
sS'nilearn/tests/test_datasets.py'
p2594
I15
sS'examples/plot_mask_computation.py'
p2595
I4
sS'examples/manipulating_visualizing/plot_demo_glass_brain_extensive.py'
p2596
I1
sS'doc/sphinxext/numpy_ext_old/docscrape.py'
p2597
I1
sS'nilearn/glass_brain_scripts/generate_json.sh'
p2598
I2
sS'nilearn/input_data/tests/test_nifti_masker.py'
p2599
I6
sS'doc/sphinxext/sphinx_gallery/__init__.py'
p2600
I1
sS'doc/building_blocks/supervised_learning.rst'
p2601
I2
sS'nilearn/plotting/glass_brain_scripts/generated_json/brain_schematics_front.json'
p2602
I3
sS'nilearn/tests/test_ndimage.py'
p2603
I1
sS'nilearn/plotting/test/test_cm.py'
p2604
I1
sS'doc/sphinxext/sphinxgallery/_static/no_image.png'
p2605
I1
sS'nilearn/tests/test_logger.py'
p2606
I2
sS'nilearn/plotting/tests/test_img_plotting.py'
p2607
I43
sS'nilearn/glass_brain_scripts/generated_json/brain_schematics_side.json'
p2608
I2
sS'setup.py'
p2609
I15
sS'nilearn/description/adhd.rst'
p2610
I1
sS'doc/user_guide.rst'
p2611
I2
sS'nilearn/plotting/glass_brain_scripts/svg_plots/brain_schematics_side.svg'
p2612
I2
sS'doc/data_analysis/index.rst'
p2613
I2
sS'examples/manipulating_visualizing/plot_smooth_mean_image.py'
p2614
I4
sS'nilearn/tests/data/__init__.py'
p2615
I3
sS'plot_haxby_different_estimators.py'
p2616
I4
sS'nilearn/decoding/tests/test_graph_net.py'
p2617
I1
sS'examples/manipulating_images_and_visualization/plot_demo_plotting.py'
p2618
I3
sS'doc/sphinxext/sphinx_gallery/gen_rst.py'
p2619
I1
sS'doc/sphinxext/numpy_ext/numpydoc.py'
p2620
I2
sS'continuous_integration/flake8_diff.sh'
p2621
I8
sS'nilearn/input_data/__init__.py'
p2622
I2
sS'nilearn/tests/test_fast_maths.py'
p2623
I3
sS'doc/developers/dataset_download.rst'
p2624
I2
sS'doc/decoding/searchlight.rst'
p2625
I4
sS'doc/sphinxext/numpy_ext_old/numpydoc.py'
p2626
I1
sS'nilearn/description/miyawaki2008.rst'
p2627
I1
sS'examples/plot_nilearn_101.py'
p2628
I6
sS'nilearn/version.py'
p2629
I17
sS'examples/manipulating_visualizing/plot_visualization.py'
p2630
I5
sS'nilearn/plotting/glass_brain_files/brain_schematics_side.json'
p2631
I6
sS'nilearn/_utils/__init__.py'
p2632
I5
sS'examples/plot_adhd_covariance.py'
p2633
I4
sS'nilearn/image/tests/test_resampling.py'
p2634
I15
sS'examples/decoding/plot_haxby_full_analysis.py'
p2635
I11
sS'nilearn/plotting/glass_brain/scripts/readme.md'
p2636
I2
sS'nilearn/description/msdl_atlas.rst'
p2637
I1
sS'examples/manipulating_visualizing/plot_prob_atlas.py'
p2638
I3
sS'nilearn/plotting/glass_brain_scripts/generate_json.sh'
p2639
I2
sS'nilearn/_utils/testing.py'
p2640
I15
sS'setup.cfg'
p2641
I8
sS'examples/decoding/plot_simulated_data.py'
p2642
I6
sS'nilearn/description/icbm152_2009.rst'
p2643
I1
sS'nilearn/plotting/tests/test_edge_detect.py'
p2644
I3
sS'nilearn/plotting/glass_brain/svg_to_json_converter.py'
p2645
I2
sS'doc/decoding/estimator_choice.rst'
p2646
I4
sS'license'
p2647
I1
sS'plot_connect_comparison.py'
p2648
I2
sS'examples/manipulating_visualizing/plot_overlay.py'
p2649
I2
sS'plot_haxby_stimuli.py'
p2650
I2
sS'examples/plot_haxby_searchlight.py'
p2651
I4
sS'nilearn/plotting/glass_brain_files/brain_schematics_top.json'
p2652
I6
sS'examples/plot_roi_extraction.py'
p2653
I4
sS'nilearn/plotting/tests/test_cm.py'
p2654
I5
sS'plot_localizer_mass_univariate_methods.py'
p2655
I4
sS'nilearn/datasets/utils.py'
p2656
I5
sS'readme.txt'
p2657
I2
sS'plot_haxby_simple.py'
p2658
I5
sS'examples/connectivity/plot_canica_resting_state.py'
p2659
I8
sS'plot_miyawaki_reconstruction.py'
p2660
I2
sS'nilearn/regions/tests/test_region_extractor.py'
p2661
I1
sS'nilearn/data/power_2011.csv'
p2662
I1
sS'doc/sphinxext/numpydoc/phantom_import.py'
p2663
I2
sS'nilearn/plotting/test/test_edge_detect.py'
p2664
I1
sS'nilearn/plotting/glass_brain/__init__.py'
p2665
I2
sS'doc/manipulating_visualizing/plotting.rst'
p2666
I6
sS'doc/decoding/space_net.rst'
p2667
I1
sS'nilearn/description/power_2011.rst'
p2668
I2
sS'doc/decoding/decoding_simulated.rst'
p2669
I4
sS'doc/conf.py'
p2670
I10
sS'nilearn/input_data/nifti_labels_masker.py'
p2671
I5
sS'doc/data_analysis/resting_state_networks.rst'
p2672
I7
sS'examples/connectivity/plot_adhd_spheres.py'
p2673
I3
sS'nilearn/plotting/glass_brain/readme.md'
p2674
I2
sS'nilearn/plotting/glass_brain/generated_json/brain_schematics_front.json'
p2675
I2
sS'nilearn/decoding/tests/test_space_net.py'
p2676
I5
sS'nilearn/datasets/description/yeo_2011.rst'
p2677
I1
sS'nilearn/tests/test_class_inspect.py'
p2678
I1
sS'plot_haxby_multiclass.py'
p2679
I3
sS'doc/building_blocks/decoding_simulated.rst'
p2680
I7
sS'nilearn/datasets/description/yeo.rst'
p2681
I1
sS'nilearn/input_data/tests/test_nifti_labels_masker.py'
p2682
I5
sS'examples/plot_localizer_mass_univariate_methods.py'
p2683
I4
sS'examples/plot_oasis_vbm.py'
p2684
I4
sS'nilearn/plotting/glass_brain/scripts/svg_to_json_converter.py'
p2685
I2
sS'copying'
p2686
I3
sS'nilearn/decoding/space_net.py'
p2687
I5
sS'nilearn/plotting/test/test_find_cuts.py'
p2688
I5
sS'plot_mask_computation.py'
p2689
I4
sS'nilearn/glass_brain_scripts/readme.md'
p2690
I3
sS'nilearn/datasets/description/oasis1.rst'
p2691
I1
sS'doc/sphinxext/numpydoc/docscrape_sphinx.py'
p2692
I2
sS'appveyor.yml'
p2693
I5
sS'examples/decoding/plot_oasis_vbm.py'
p2694
I9
sS'doc/sphinxext/numpydoc/plot_directive.py'
p2695
I2
sS'nilearn/description/oasis1'
p2696
I1
sS'nilearn/glass_brain_scripts/svg_plots/brain_schematics_top.svg'
p2697
I2
sS'doc/sphinxext/numpy_ext_old/__init__.py'
p2698
I1
sS'nilearn/tests/test_cache_mixin.py'
p2699
I3
sS'nilearn/tests/test_signal.py'
p2700
I3
sS'nilearn/__init__.py'
p2701
I15
sS'nilearn/region.py'
p2702
I6
sS'examples/decoding/plot_haxby_anova_svm.py'
p2703
I11
sS'examples/decoding/plot_oasis_vbm_space_net.py'
p2704
I2
sS'plot_demo_plotting.py'
p2705
I5
sS'doc/connectivity/functional_connectomes.rst'
p2706
I6
sS'nilearn/description/haxby2001.rst'
p2707
I1
sS'doc/sphinxext/numpydoc/__init__.py'
p2708
I2
sS'nilearn/input_data/tests/test_masker_validation.py'
p2709
I1
sS'doc/connectivity/index.rst'
p2710
I2
sS'plot_affine_transformation.py'
p2711
I4
sS'nilearn/plotting/img_plotting.py'
p2712
I69
sS'doc/copying'
p2713
I1
sS'nilearn/_utils/cache_mixin.py'
p2714
I2
sS'nilearn/plotting/glass_brain.py'
p2715
I6
sS'examples/decoding/plot_haxby_space_net.py'
p2716
I4
sS'nilearn/signal.py'
p2717
I6
sS'plot_rest_clustering.py'
p2718
I2
sS'nilearn/_utils/fixes/__init__.py'
p2719
I1
sS'examples/plot_visualization.py'
p2720
I4
sS'nilearn/datasets/tests/test_func.py'
p2721
I8
sS'nilearn/input_data/masker_validation.py'
p2722
I1
sS'nilearn/datasets/atlas.py'
p2723
I3
sS'nilearn/decoding/space_net_solvers.py'
p2724
I2
sS'plot_haxby_grid_search.py'
p2725
I3
sS'readme.rst'
p2726
I25
sS'plot_adhd_covariance.py'
p2727
I3
sS'nilearn/input_data/multi_nifti_masker.py'
p2728
I13
sS'nilearn/tests/data/spm_confounds.txt'
p2729
I1
sS'nilearn/description/craddock_2012.rst'
p2730
I1
sS'doc/building_blocks/manipulating_mr_images.rst'
p2731
I15
sS'doc/modules/reference.rst'
p2732
I9
sS'examples/manipulating_visualizing/plot_atlas.py'
p2733
I8
sS'nilearn/_utils/numpy_conversions.py'
p2734
I2
sS'continuous_integration/after_success.sh'
p2735
I2
sS'nilearn/plotting/find_cuts.py'
p2736
I13
sS'plot_nifti_simple.py'
p2737
I2
sS'nilearn/plotting/glass_brain_scripts/plot_align_svg.py'
p2738
I2
sS'nilearn/tests/test_extmath.py'
p2739
I8
sS'doc/themes/nilearn/layout.html'
p2740
I9
sS'nilearn/tests/test_niimg_conversions.py'
p2741
I18
sS'doc/sphinxext/sphinx_gallery/notebook.py'
p2742
I1
sS'doc/sphinxext/copy_sphinxgallery.sh'
p2743
I1
sS'nilearn/plotting/test/__init__.py'
p2744
I1
sS'nilearn/plotting/glass_brain_scripts/readme.md'
p2745
I2
sS'nilearn/_utils/niimg.py'
p2746
I2
sS'examples/manipulating_visualizing/plot_demo_more_plotting.py'
p2747
I4
sS'plot_haxby_anova_svm.py'
p2748
I3
sS'nilearn/plotting/glass_brain/generate_json.sh'
p2749
I2
sS'examples/manipulating_images_and_visualization/plot_haxby_masks.py'
p2750
I3
sS'doc/sphinxext/numpydoc/comment_eater.py'
p2751
I2
sS'examples/manipulating_images_and_visualization/plot_affine_transformation.py'
p2752
I3
sS'nilearn/glass_brain_scripts/generated_json/brain_schematics_top.json'
p2753
I2
sS'examples/manipulating_images_and_visualization/plot_roi_extraction.py'
p2754
I3
sS'doc/building_blocks/plotting.rst'
p2755
I17
sS'continuous_integration/show-python-packages-versions.py'
p2756
I4
sS'nilearn/decoding/tests/test_sklearn_compatibility.py'
p2757
I2
sS'nilearn/glass_brain_scripts/brain_plotter.py'
p2758
I3
sS'examples/decoding/plot_mixed_gambles_space_net.py'
p2759
I3
sS'nilearn/decoding/objective_functions.py'
p2760
I1
sS'nilearn/plotting/cm.py'
p2761
I7
sS'doc/makefile'
p2762
I5
sS'examples/plot_rest_clustering.py'
p2763
I4
sS'examples/plot_haxby_multiclass.py'
p2764
I4
sS'nilearn/plotting/glass_brain_scripts/svg_bak'
p2765
I2
sS'doc/themes/nilearn/static/nature.css_t'
p2766
I5
sS'nilearn/tests/test_testing.py'
p2767
I3
sS'authors.rst'
p2768
I8
sS'examples/decoding/plot_haxby_searchlight.py'
p2769
I11
sS'nilearn/plotting/glass_brain/brain_schematics.py'
p2770
I3
sS'examples/connectivity/plot_ica_resting_state.py'
p2771
I8
sS'nilearn/decomposition/tests/__init__.py'
p2772
I2
sS'examples/manipulating_visualizing/plot_haxby_masks.py'
p2773
I6
sS'nilearn/datasets/description/aal_spm12.rst'
p2774
I1
sS'.mailmap'
p2775
I3
sS'nilearn/input_data/tests/__init__.py'
p2776
I2
sS'nilearn/glass_brain_scripts/svg_to_json_converter.py'
p2777
I3
sS'nilearn/decomposition/base.py'
p2778
I1
sS'nilearn/plotting/displays.py'
p2779
I65
sS'nilearn/datasets/description/nyu.rst'
p2780
I1
sS'nilearn/tests/__init__.py'
p2781
I2
sS'doc/index.rst'
p2782
I21
sS'nilearn/decoding/__init__.py'
p2783
I1
sS'doc/building_blocks/ica.rst'
p2784
I7
sS'nilearn/input_data/nifti_maps_masker.py'
p2785
I6
sS'examples/manipulating_images_and_visualization/plot_visualization.py'
p2786
I3
sS'doc/sphinxext/sphinxgallery/_static/gallery.css'
p2787
I1
sS'plot_simulated_data.py'
p2788
I2
sS'continuous_integration/install.sh'
p2789
I25
sS'nilearn/tests/data/confounds_with_header.csv'
p2790
I1
sS'examples/plot_haxby_grid_search.py'
p2791
I4
sS'plot_python_101.py'
p2792
I2
sS'nilearn/_utils/extmath.py'
p2793
I9
sS'doc/connectivity/connectome_extraction.rst'
p2794
I5
sS'plot_canica_resting_state.py'
p2795
I2
sS'doc/connectivity/resting_state_networks.rst'
p2796
I4
sS'doc/sphinxext/numpy_ext/docscrape_sphinx.py'
p2797
I2
sS'doc/sphinxext/sphinx_gallery/backreferences.py'
p2798
I1
sS'nilearn/plotting/glass_brain/plot_glass_brain.py'
p2799
I2
sS'examples/plot_simulated_data.py'
p2800
I4
sS'continuous_integration/test_script.sh'
p2801
I2
sS'nilearn/_utils/fixes/matplotlib_backports.py'
p2802
I1
sS'nilearn/decomposition/__init__.py'
p2803
I2
sS'plot_ica_resting_state.py'
p2804
I3
sS'examples/connectivity/plot_probabilistic_atlas_extraction.py'
p2805
I7
sS'nilearn/plotting/glass_brain_files/svg_to_json_converter.py'
p2806
I4
sS'nilearn/plotting/glass_brain/plot_align_svg.py'
p2807
I2
sS'examples/plot_connect_comparison.py'
p2808
I4
sS'nilearn/plotting/glass_brain_files/brain_schematics_front.json'
p2809
I4
sS'examples/manipulating_visualizing/plot_localizer_mass_univariate_methods.py'
p2810
I7
sS'nilearn/decoding/proximal_operators.py'
p2811
I1
sS'nilearn/plotting/glass_brain_scripts/brain_plotter.py'
p2812
I5
ssS'jeankossaifi'
p2813
g1
(g5
tRp2814
S'tests/test_supervised_clustering.py'
p2815
I3
sS'supervised_clustering_vs_anova.py'
p2816
I4
sS'tests/test_hierarchical_clustering.py'
p2817
I1
sS'datasets.py'
p2818
I12
sS'simulated_example.py'
p2819
I14
sS'starplus_decoding_example.py'
p2820
I2
sS'starplus.py'
p2821
I4
sS'pymvpa-exampledata/supervised_clustering.py'
p2822
I3
sS'benchmark_hierarchical_clustering_from_scikits_learn.py'
p2823
I2
sS'pymvpa-exampledata/decoding_example.py'
p2824
I2
sS'example_hierarchical_clustering_from_scikits_learn.py'
p2825
I2
sS'decoding_example.py'
p2826
I10
sS'__init__.py'
p2827
I1
sS'tests/__init__.py'
p2828
I1
sS'starplus_svm.py'
p2829
I2
sS'pymvpa-exampledata/simulated_example.py'
p2830
I2
sS'supervised_clustering.py'
p2831
I22
sS'hierarchical_clustering.py'
p2832
I1
ssS'poquirion'
p2833
g1
(g5
tRp2834
S'nilearn/image/resampling.py'
p2835
I1
sS'doc/whats_new.rst'
p2836
I1
sS'nilearn/image/tests/test_resampling.py'
p2837
I1
sS'examples/01_plotting/plot_surf_atlas.py'
p2838
I1
sS'nilearn/plotting/surf_plotting.py'
p2839
I1
ssS'jaquesgrobler'
p2840
g1
(g5
tRp2841
S'doc/makefile'
p2842
I1
sS'doc/themes/nilearn/static/jquery.js'
p2843
I2
sS'nisl/datasets.py'
p2844
I1
sS'doc/haxby_decoding.rst'
p2845
I3
sS'nilearn/tests/__init__.py'
p2846
I2
sS'doc/introduction.rst'
p2847
I3
sS'doc/themes/scikit-learn/theme.conf'
p2848
I1
sS'doc/index.rst'
p2849
I13
sS'doc/ward_clustering.rst'
p2850
I1
sS'doc/authors.rst'
p2851
I1
sS'doc/themes/nilearn/static/nature.css_t'
p2852
I21
sS'doc/themes/nilearn/static/sphinxdoc.css'
p2853
I1
sS'doc/themes/scikit-learn/static/navigation.png'
p2854
I2
sS'doc/logos/nilearn.png'
p2855
I1
sS'doc/extracting_data.rst'
p2856
I2
sS'doc/themes/nilearn/static/contents.png'
p2857
I1
sS'doc/modules/classes.rst'
p2858
I1
sS'plot_python_101.py'
p2859
I1
sS'doc/themes/nilearn/layout.html'
p2860
I10
sS'doc/images/plusboxhighlight.png'
p2861
I1
sS'doc/themes/nilearn/full_javascript_files/doctools.js'
p2862
I1
sS'doc/simulations.rst'
p2863
I1
sS'nilearn/tests/test_ndimage.py'
p2864
I1
sS'plot_haxby_simple.py'
p2865
I1
sS'doc/images/plusbox.png'
p2866
I1
sS'doc/themes/nilearn/full_javascript_files/jquery-1.9.1.js'
p2867
I1
sS'doc/functional_connectivity.rst'
p2868
I1
sS'nilearn/image/image.py'
p2869
I1
sS'nilearn/input_data/nifti_masker.py'
p2870
I1
sS'nilearn/tests/test_logger.py'
p2871
I1
sS'doc/tune_toc.rst'
p2872
I1
sS'plot_miyawaki_reconstruction.py'
p2873
I2
sS'doc/images/nonebox.png'
p2874
I1
sS'doc/themes/nilearn/static/navigation.png'
p2875
I1
sS'doc/themes/scikit-learn/layout.html'
p2876
I9
sS'doc/themes/nilearn/theme.conf'
p2877
I1
sS'setup.py'
p2878
I1
sS'doc/ica_resting_state.rst'
p2879
I1
sS'nilearn/datasets.py'
p2880
I1
sS'nilearn/decoding/tests/test_searchlight.py'
p2881
I2
sS'nilearn/decoding/searchlight.py'
p2882
I2
sS'doc/user_guide.rst'
p2883
I3
sS'doc/includes/big_toc_css.rst'
p2884
I1
sS'nilearn/signal.py'
p2885
I1
sS'nilearn/_utils/testing.py'
p2886
I1
sS'doc/themes/nilearn/static/sidebar.js'
p2887
I2
sS'doc/themes/nilearn/static/jquery.jcarousel.min.js'
p2888
I1
sS'doc/themes/nilearn/static/doctools.js'
p2889
I2
sS'nilearn/_utils/logger.py'
p2890
I1
sS'doc/getting_started.rst'
p2891
I2
sS'nilearn/_utils/niimg_conversions.py'
p2892
I1
sS'doc/visualization.rst'
p2893
I1
sS'doc/images/minbox.png'
p2894
I1
sS'doc/sphinxext/gen_rst.py'
p2895
I10
sS'doc/unsupervised_learning.rst'
p2896
I1
sS'nilearn/group_sparse_covariance.py'
p2897
I1
sS'.gitignore'
p2898
I1
sS'plot_haxby_decoding.py'
p2899
I1
sS'nilearn/tests/test_group_sparse_covariance.py'
p2900
I1
sS'doc/themes/scikit-learn/static/sphinxdoc.css'
p2901
I2
sS'nilearn/image/resampling.py'
p2902
I1
sS'doc/images/minboxhighlight.png'
p2903
I1
sS'nilearn/decomposition/canica.py'
p2904
I1
sS'doc/logos/nilearn-logo.png'
p2905
I1
sS'plot_simulated_data.py'
p2906
I1
sS'plot_connect_comparison.py'
p2907
I1
sS'doc/themes/scikit-learn/static/sidebar.js'
p2908
I1
sS'doc/themes/nilearn/full_javascript_files/jquery.jcarousel.js'
p2909
I1
sS'nilearn/input_data/nifti_region.py'
p2910
I1
sS'doc/themes/scikit-learn/static/jquery.js'
p2911
I1
sS'plot_nifti_advanced.py'
p2912
I1
sS'doc/developers/group_sparse_covariance.rst'
p2913
I1
sS'nilearn/tests/test_masking.py'
p2914
I1
sS'nisl/searchlight.py'
p2915
I1
sS'nilearn/tests/test_signal.py'
p2916
I1
sS'nilearn/masking.py'
p2917
I2
sS'plot_adhd_covariance.py'
p2918
I1
sS'doc/themes/scikit-learn/static/contents.png'
p2919
I2
sS'nilearn/input_data/multi_nifti_masker.py'
p2920
I1
sS'doc/logos/nilearn-logo.svg'
p2921
I1
sS'doc/themes/scikit-learn/static/nature.css_t'
p2922
I11
sS'doc/conf.py'
p2923
I5
ssS'ys218403@is220245.(none)'
p2924
g1
(g5
tRp2925
S'nilearn/tests/test_testing.py'
p2926
I1
sS'nilearn/signal.py'
p2927
I1
sS'nilearn/_utils/testing.py'
p2928
I6
sS'nilearn/input_data/nifti_region.py'
p2929
I1
sS'nilearn/input_data/nifti_masker.py'
p2930
I1
sS'nilearn/input_data/multi_nifti_masker.py'
p2931
I1
ssS'njchiang'
p2932
g1
(g5
tRp2933
S'nilearn/decoding/searchlight.py'
p2934
I7
sS'doc/connectivity/functional_connectomes.rst'
p2935
I1
sS'examples/03_connectivity/plot_probabilistic_atlas_extraction.py'
p2936
I1
sS'nilearn/_utils/fixes/__init__.py'
p2937
I2
sS'nilearn/datasets/description/msdl_atlas.rst'
p2938
I1
sS'nilearn/plotting/glass_brain_files/brain_schematics_back.svg'
p2939
I1
sS'nilearn/decoding/tests/test_searchlight.py'
p2940
I3
sS'nilearn/plotting/glass_brain_files/brain_schematics_back.json'
p2941
I1
sS'nilearn/plotting/glass_brain.py'
p2942
I1
sS'examples/03_connectivity/plot_inverse_covariance_connectome.py'
p2943
I1
sS'examples/01_plotting/plot_overlay.py'
p2944
I1
ssS'akinikolaidis'
p2945
g1
(g5
tRp2946
S'examples/03_connectivity/plot_multi_subject_connectome.py'
p2947
I1
ssS'ainafp'
p2948
g1
(g5
tRp2949
S'nilearn/image/image.py'
p2950
I2
sS'nilearn/tests/test_niimg.py'
p2951
I2
sS'nilearn/decoding/space_net.py'
p2952
I8
sS'nilearn/_utils/niimg.py'
p2953
I2
ssS'miykael'
p2954
g1
(g5
tRp2955
S'nilearn/plotting/displays.py'
p2956
I1
ssS'jgors'
p2957
g1
(g5
tRp2958
S'doc/introduction.rst'
p2959
I1
sS'doc/extracting_data.rst'
p2960
I1
sS'plot_adhd_covariance.py'
p2961
I1
ssS'juhuntenburg'
p2962
g1
(g5
tRp2963
S'doc/modules/reference.rst'
p2964
I2
sS'nilearn/datasets/tests/test_atlas.py'
p2965
I2
sS'examples/03_connectivity/plot_seed_to_voxel_correlation.py'
p2966
I1
sS'nilearn/datasets/__init__.py'
p2967
I3
sS'nilearn/datasets/tests/test_struct.py'
p2968
I1
sS'nilearn/plotting/surf_plotting.py'
p2969
I32
sS'nilearn/datasets/description/destrieux_surface.rst'
p2970
I1
sS'nilearn/plotting/tests/test_surf_plotting.py'
p2971
I9
sS'examples/01_plotting/plot_surf_stat_map.py'
p2972
I28
sS'nilearn/plotting/img_plotting.py'
p2973
I2
sS'nilearn/plotting/tests/test_img_plotting.py'
p2974
I3
sS'setup.py'
p2975
I1
sS'nilearn/datasets/description/fsaverage5.rst'
p2976
I2
sS'nilearn/datasets/func.py'
p2977
I8
sS'nilearn/datasets/struct.py'
p2978
I2
sS'nilearn/plotting/tests/data/__init__.py'
p2979
I1
sS'examples/01_plotting/plot_surf_atlas.py'
p2980
I6
sS'nilearn/plotting/tests/data/test.label'
p2981
I2
sS'nilearn/datasets/tests/test_func.py'
p2982
I1
sS'nilearn/plotting/tests/data/test.annot'
p2983
I1
sS'nilearn/datasets/atlas.py'
p2984
I6
sS'nilearn/plotting/__init__.py'
p2985
I3
sS'nilearn/datasets/description/nki_enhanced_surface.rst'
p2986
I2
ssS'mrahim'
p2987
g1
(g5
tRp2988
S'nilearn/_utils/exceptions.py'
p2989
I1
sS'examples/decoding/plot_haxby_space_net.py'
p2990
I1
sS'nilearn/decoding/tests/test_space_net.py'
p2991
I7
sS'doc/themes/nilearn/static/nature.css_t'
p2992
I1
sS'nilearn/input_data/nifti_maps_masker.py'
p2993
I1
sS'nilearn/decomposition/multi_pca.py'
p2994
I1
sS'nilearn/plotting/img_plotting.py'
p2995
I8
sS'nilearn/image/image.py'
p2996
I1
sS'nilearn/input_data/nifti_masker.py'
p2997
I1
sS'nilearn/plotting/tests/test_img_plotting.py'
p2998
I2
sS'doc/building_blocks/manual_pipeline.rst'
p2999
I2
sS'nilearn/input_data/base_masker.py'
p3000
I1
sS'nilearn/decoding/space_net.py'
p3001
I5
sS'nilearn/input_data/nifti_spheres_masker.py'
p3002
I3
sS'doc/introduction.rst'
p3003
I2
sS'nilearn/_utils/niimg.py'
p3004
I1
sS'nilearn/_utils/niimg_conversions.py'
p3005
I2
sS'examples/decoding/plot_mixed_gambles_space_net.py'
p3006
I1
sS'doc/connectivity/resting_state_networks.rst'
p3007
I2
sS'nilearn/decoding/searchlight.py'
p3008
I2
sS'doc/manipulating_visualizing/data_preparation.rst'
p3009
I6
sS'nilearn/image/resampling.py'
p3010
I2
sS'nilearn/decomposition/canica.py'
p3011
I1
sS'nilearn/datasets/atlas.py'
p3012
I1
sS'doc/decoding/decoding_tutorial.rst'
p3013
I1
sS'nilearn/input_data/nifti_region.py'
p3014
I1
sS'nilearn/input_data/nifti_labels_masker.py'
p3015
I1
sS'nilearn/masking.py'
p3016
I2
sS'nilearn/region.py'
p3017
I1
sS'nilearn/input_data/multi_nifti_masker.py'
p3018
I1
sS'examples/decoding/plot_oasis_vbm_space_net.py'
p3019
I1
sS'nilearn/tests/test_masking.py'
p3020
I1
sS'nilearn/plotting/displays.py'
p3021
I2
ssS'darya-chyzhyk'
p3022
g1
(g5
tRp3023
S'continuous_integration/after_success.sh'
p3024
I1
sS'examples/04_manipulating_images/plot_extract_regions_labels_image.py'
p3025
I5
sS'nilearn/datasets/utils.py'
p3026
I9
sS'nilearn/decoding/tests/test_same_api.py'
p3027
I1
sS'nilearn/plotting/img_plotting.py'
p3028
I1
sS'nilearn/_utils/cache_mixin.py'
p3029
I1
sS'doc/install_doc_component.html'
p3030
I1
sS'nilearn/plotting/tests/test_img_plotting.py'
p3031
I1
sS'continuous_integration/install.sh'
p3032
I1
sS'nilearn/plotting/tests/test_find_cuts.py'
p3033
I1
sS'nilearn/datasets/func.py'
p3034
I8
sS'nilearn/regions/region_extractor.py'
p3035
I1
sS'nilearn/datasets/tests/test_func.py'
p3036
I7
sS'nilearn/input_data/masker_validation.py'
p3037
I1
sS'nilearn/datasets/tests/test_utils.py'
p3038
I3
sS'nilearn/datasets/atlas.py'
p3039
I1
sS'nilearn/tests/test_cache_mixin.py'
p3040
I1
sS'readme.rst'
p3041
I1
sS'.travis.yml'
p3042
I1
sS'nilearn/datasets/description/cobre.rst'
p3043
I3
sS'nilearn/decomposition/base.py'
p3044
I1
sS'nilearn/plotting/displays.py'
p3045
I1
ssS'banilo'
p3046
g1
(g5
tRp3047
S'nilearn/tests/test_datasets.py'
p3048
I4
sS'nilearn/description/haxby2001.rst'
p3049
I1
sS'nilearn/datasets/description/msdl_atlas.rst'
p3050
I1
sS'nilearn/datasets/description/power_2011.rst'
p3051
I1
sS'nilearn/datasets/tests/data/confounds_with_header.csv'
p3052
I1
sS'nilearn/datasets/__init__.py'
p3053
I3
sS'examples/decoding/plot_haxby_stimuli.py'
p3054
I3
sS'nilearn/input_data/tests/test_nifti_masker.py'
p3055
I6
sS'nilearn/datasets/tests/data/test.mgz'
p3056
I1
sS'plot_affine_transformation.py'
p3057
I3
sS'nilearn/plotting/img_plotting.py'
p3058
I16
sS'plot_oasis_vbm.py'
p3059
I1
sS'nilearn/tests/test_niimg.py'
p3060
I1
sS'nilearn/input_data/nifti_masker.py'
p3061
I11
sS'nilearn/plotting/tests/test_img_plotting.py'
p3062
I9
sS'nilearn/datasets/data/mmap.dat'
p3063
I1
sS'setup.py'
p3064
I4
sS'nilearn/datasets/description/craddock_2012.rst'
p3065
I1
sS'nilearn/datasets/struct.py'
p3066
I3
sS'nilearn/description/adhd.rst'
p3067
I1
sS'nilearn/input_data/tests/test_nifti_maps_masker.py'
p3068
I2
sS'examples/connectivity/plot_inverse_covariance_connectome.py'
p3069
I2
sS'nilearn/datasets/tests/data/pymvpa-exampledata.tar.bz2'
p3070
I1
sS'examples/manipulating_visualizing/plot_smooth_mean_image.py'
p3071
I2
sS'nilearn/datasets/tests/test_func.py'
p3072
I3
sS'doc/introduction.rst'
p3073
I1
sS'plot_roi_extraction.py'
p3074
I6
sS'nilearn/decomposition/canica.py'
p3075
I3
sS'nilearn/datasets/atlas.py'
p3076
I4
sS'nilearn/input_data/nifti_region.py'
p3077
I9
sS'nilearn/input_data/__init__.py'
p3078
I1
sS'nilearn/description/nyu.rst'
p3079
I1
sS'nilearn/input_data/multi_nifti_masker.py'
p3080
I7
sS'nilearn/datasets.py'
p3081
I14
sS'examples/decoding/plot_haxby_grid_search.py'
p3082
I2
sS'nilearn/description/craddock_2012.rst'
p3083
I1
sS'doc/building_blocks/manipulating_mr_images.rst'
p3084
I4
sS'doc/modules/reference.rst'
p3085
I4
sS'examples/plot_nifti_simple.py'
p3086
I4
sS'examples/manipulating_visualizing/plot_atlas.py'
p3087
I1
sS'nilearn/description/miyawaki2008.rst'
p3088
I1
sS'examples/plot_nilearn_101.py'
p3089
I1
sS'examples/decoding/plot_miyawaki_reconstruction.py'
p3090
I2
sS'nilearn/image/__init__.py'
p3091
I5
sS'nilearn/decomposition/multi_pca.py'
p3092
I3
sS'examples/manipulating_visualizing/plot_visualization.py'
p3093
I2
sS'nilearn/_utils/__init__.py'
p3094
I4
sS'nilearn/tests/test_niimg_conversions.py'
p3095
I5
sS'examples/decoding/plot_haxby_full_analysis.py'
p3096
I2
sS'nilearn/image/image.py'
p3097
I12
sS'nilearn/input_data/tests/test_nifti_region.py'
p3098
I5
sS'nilearn/datasets/data/power_2011.csv'
p3099
I1
sS'nilearn/description/msdl_atlas.rst'
p3100
I1
sS'examples/connectivity/plot_signal_extraction.py'
p3101
I2
sS'nilearn/datasets/func.py'
p3102
I4
sS'nilearn/_utils/testing.py'
p3103
I3
sS'nilearn/_utils/niimg.py'
p3104
I6
sS'nilearn/datasets/data/confounds_with_header.csv'
p3105
I1
sS'nilearn/_utils/niimg_conversions.py'
p3106
I9
sS'nilearn/description/icbm152_2009.rst'
p3107
I1
sS'nilearn/data/avg152t1_brain.nii.gz'
p3108
I1
sS'nilearn/input_data/tests/test_base_masker.py'
p3109
I3
sS'nilearn/datasets/tests/data/spm_confounds.txt'
p3110
I1
sS'nilearn/decoding/searchlight.py'
p3111
I1
sS'examples/decoding/plot_haxby_different_estimators.py'
p3112
I3
sS'nilearn/data/__init__.py'
p3113
I1
sS'examples/manipulating_visualizing/plot_roi_extraction.py'
p3114
I2
sS'nilearn/input_data/nifti_labels_masker.py'
p3115
I2
sS'nilearn/masking.py'
p3116
I7
sS'examples/decoding/plot_haxby_multiclass.py'
p3117
I2
sS'nilearn/datasets/data/pymvpa-exampledata.tar.bz2'
p3118
I1
sS'nilearn/tests/test_masking.py'
p3119
I2
sS'doc/manipulating_visualizing/manipulating_images.rst'
p3120
I6
sS'nilearn/datasets/tests/test_atlas.py'
p3121
I4
sS'nilearn/datasets/description/abide_pcp.rst'
p3122
I1
sS'nilearn/datasets/utils.py'
p3123
I3
sS'nilearn/input_data/tests/test_multi_nifti_masker.py'
p3124
I2
sS'examples/connectivity/plot_canica_resting_state.py'
p3125
I4
sS'nilearn/image/tests/data/test.mgz'
p3126
I1
sS'nilearn/datasets/description/smith_2009.rst'
p3127
I1
sS'plot_haxby_simple.py'
p3128
I1
sS'nilearn/description/abide_pcp.rst'
p3129
I1
sS'examples/manipulating_visualizing/plot_demo_plotting.py'
p3130
I2
sS'examples/connectivity/plot_rest_clustering.py'
p3131
I2
sS'examples/plot_haxby_simple.py'
p3132
I2
sS'nilearn/plotting/tests/test_find_cuts.py'
p3133
I4
sS'nilearn/input_data/base_masker.py'
p3134
I15
sS'nilearn/datasets/data/spm_confounds.txt'
p3135
I1
sS'nilearn/image/tests/data/__init__.py'
p3136
I1
sS'examples/manipulating_visualizing/plot_mask_computation.py'
p3137
I3
sS'examples/connectivity/plot_multi_subject_connectome.py'
p3138
I2
sS'examples/decoding/plot_haxby_searchlight.py'
p3139
I4
sS'nilearn/data/power_2011.csv'
p3140
I1
sS'nilearn/description/smith_2009.rst'
p3141
I1
sS'nilearn/datasets/description/adhd.rst'
p3142
I1
sS'examples/connectivity/plot_ica_resting_state.py'
p3143
I4
sS'nilearn/description/icbm.rst'
p3144
I2
sS'doc/building_blocks/manual_pipeline.rst'
p3145
I1
sS'nilearn/description/miyawaki.rst'
p3146
I2
sS'examples/manipulating_visualizing/plot_haxby_masks.py'
p3147
I2
sS'nilearn/plotting/find_cuts.py'
p3148
I4
sS'nilearn/datasets/tests/data/__init__.py'
p3149
I1
sS'nilearn/description/craddock.rst'
p3150
I2
sS'nilearn/datasets/description/miyawaki2008.rst'
p3151
I1
sS'nilearn/tests/test_region.py'
p3152
I1
sS'nilearn/datasets/tests/test_struct.py'
p3153
I2
sS'nilearn/plotting/displays.py'
p3154
I11
sS'nilearn/plotting/slicers.py'
p3155
I2
sS'nilearn/datasets/description/nyu.rst'
p3156
I1
sS'examples/manipulating_visualizing/plot_haxby_mass_univariate.py'
p3157
I2
sS'nilearn/description/brainomics_localizer.rst'
p3158
I1
sS'nilearn/datasets/description/brainomics_localizer.rst'
p3159
I1
sS'nilearn/datasets/description/yeo.rst'
p3160
I1
sS'nilearn/input_data/nifti_maps_masker.py'
p3161
I2
sS'nilearn/description/haxby.rst'
p3162
I2
sS'nilearn/input_data/tests/test_nifti_labels_masker.py'
p3163
I2
sS'nilearn/datasets/data/__init__.py'
p3164
I1
sS'nilearn/datasets/description/icbm152_2009.rst'
p3165
I1
sS'nilearn/description/smith.rst'
p3166
I2
sS'nilearn/image/tests/test_image.py'
p3167
I10
sS'plot_mask_computation.py'
p3168
I1
sS'nilearn/_utils/logger.py'
p3169
I4
sS'nilearn/tests/data/test.mgz'
p3170
I1
sS'nilearn/datasets/tests/__init__.py'
p3171
I1
sS'nilearn/datasets/data/avg152t1_brain.nii.gz'
p3172
I1
sS'examples/decoding/plot_oasis_vbm.py'
p3173
I3
sS'doc/manipulating_visualizing/data_preparation.rst'
p3174
I3
sS'nilearn/image/resampling.py'
p3175
I4
sS'nilearn/description/oasis1'
p3176
I1
sS'nilearn/datasets/tests/test_utils.py'
p3177
I1
sS'nilearn/datasets/data/test.mgz'
p3178
I1
sS'nilearn/datasets/tests/data/mmap.dat'
p3179
I1
sS'nilearn/datasets/description/haxby2001.rst'
p3180
I1
sS'examples/connectivity/plot_probabilistic_atlas_extraction.py'
p3181
I2
sS'nilearn/datasets/tests/test_datasets.py'
p3182
I2
sS'nilearn/region.py'
p3183
I3
sS'examples/decoding/plot_haxby_anova_svm.py'
p3184
I2
sS'nilearn/datasets/description/__init__.py'
p3185
I1
sS'examples/manipulating_visualizing/plot_localizer_mass_univariate_methods.py'
p3186
I2
ssS'bcipolli@ucsd.edu'
p3187
g1
(g5
tRp3188
S'nilearn/tests/test_datasets.py'
p3189
I11
sS'nilearn/datasets/__init__.py'
p3190
I1
sS'examples/decoding/plot_haxby_stimuli.py'
p3191
I1
sS'nilearn/input_data/tests/test_nifti_masker.py'
p3192
I2
sS'nilearn/input_data/tests/test_base_masker.py'
p3193
I1
sS'nilearn/plotting/img_plotting.py'
p3194
I1
sS'nilearn/tests/test_niimg.py'
p3195
I1
sS'nilearn/input_data/nifti_masker.py'
p3196
I4
sS'nilearn/tests/test_logger.py'
p3197
I1
sS'nilearn/plotting/tests/test_img_plotting.py'
p3198
I4
sS'nilearn/plotting/glass_brain.py'
p3199
I3
sS'setup.py'
p3200
I6
sS'examples/connectivity/plot_ica_neurovault.py'
p3201
I14
sS'nilearn/signal.py'
p3202
I2
sS'nilearn/datasets/description/neurovault.rst'
p3203
I2
sS'nilearn/datasets/tests/test_func.py'
p3204
I5
sS'examples/manipulating_visualizing/plot_haxby_mass_univariate.py'
p3205
I1
sS'readme.rst'
p3206
I2
sS'nilearn/input_data/multi_nifti_masker.py'
p3207
I3
sS'.travis.yml'
p3208
I3
sS'examples/decoding/plot_haxby_grid_search.py'
p3209
I3
sS'doc/building_blocks/manipulating_mr_images.rst'
p3210
I3
sS'doc/modules/reference.rst'
p3211
I1
sS'examples/plot_nilearn_101.py'
p3212
I2
sS'nilearn/plotting/find_cuts.py'
p3213
I2
sS'nilearn/datasets/tests/test_struct.py'
p3214
I1
sS'nilearn/version.py'
p3215
I9
sS'examples/plot_localizer_simple_analysis.py'
p3216
I1
sS'nilearn/decomposition/multi_pca.py'
p3217
I6
sS'nilearn/tests/test_niimg_conversions.py'
p3218
I4
sS'nilearn/image/tests/test_resampling.py'
p3219
I4
sS'examples/decoding/plot_haxby_full_analysis.py'
p3220
I3
sS'nilearn/image/image.py'
p3221
I4
sS'nilearn/datasets/func.py'
p3222
I28
sS'examples/.gitignore'
p3223
I1
sS'doc/issues.txt'
p3224
I2
sS'nilearn/_utils/testing.py'
p3225
I14
sS'nilearn/_utils/niimg_conversions.py'
p3226
I8
sS'examples/decoding/plot_simulated_data.py'
p3227
I2
sS'nilearn/group_sparse_covariance.py'
p3228
I4
sS'nilearn/decoding/searchlight.py'
p3229
I3
sS'examples/decoding/plot_haxby_different_estimators.py'
p3230
I2
sS'examples/manipulating_visualizing/plot_roi_extraction.py'
p3231
I2
sS'nilearn/input_data/nifti_labels_masker.py'
p3232
I1
sS'nilearn/masking.py'
p3233
I8
sS'examples/decoding/plot_haxby_multiclass.py'
p3234
I3
sS'nilearn/tests/test_masking.py'
p3235
I12
sS'nilearn/plotting/cm.py'
p3236
I3
sS'doc/sphinxext/numpy_ext/docscrape_sphinx.py'
p3237
I2
sS'nilearn/datasets/tests/test_atlas.py'
p3238
I1
sS'nilearn/_utils/cache_mixin.py'
p3239
I1
sS'nilearn/plotting/tests/test_displays.py'
p3240
I1
sS'nilearn/datasets/utils.py'
p3241
I7
sS'nilearn/input_data/tests/test_multi_nifti_masker.py'
p3242
I1
sS'nilearn/tests/test_testing.py'
p3243
I1
sS'examples/decoding/plot_oasis_vbm.py'
p3244
I2
sS'nilearn/decomposition/tests/test_canica.py'
p3245
I1
sS'examples/connectivity/plot_rest_clustering.py'
p3246
I1
sS'examples/plot_haxby_simple.py'
p3247
I2
sS'nilearn/input_data/base_masker.py'
p3248
I3
sS'examples/manipulating_visualizing/plot_mask_computation.py'
p3249
I1
sS'nilearn/decoding/tests/test_searchlight.py'
p3250
I2
sS'examples/manipulating_visualizing/plot_neurovault_meta_analysis.py'
p3251
I6
sS'doc/sphinxext/gen_rst.py'
p3252
I7
sS'nilearn/decomposition/tests/test_multi_pca.py'
p3253
I1
sS'doc/building_blocks/pipeline_introduction.rst'
p3254
I1
sS'nilearn/mass_univariate/permuted_least_squares.py'
p3255
I2
sS'examples/manipulating_visualizing/plot_haxby_masks.py'
p3256
I1
sS'examples/decoding/plot_miyawaki_reconstruction.py'
p3257
I1
sS'continuous_integration/show-python-packages-versions.py'
p3258
I1
sS'doc/whats_new.rst'
p3259
I1
sS'nilearn/tests/test_region.py'
p3260
I4
sS'nilearn/plotting/displays.py'
p3261
I9
sS'nilearn/input_data/tests/test_nifti_maps_masker.py'
p3262
I1
sS'examples/connectivity/plot_adhd_covariance.py'
p3263
I8
sS'nilearn/input_data/nifti_maps_masker.py'
p3264
I2
sS'examples/decoding/plot_haxby_searchlight.py'
p3265
I1
sS'doc/data_analysis/decoding.rst'
p3266
I2
sS'nilearn/input_data/tests/test_nifti_labels_masker.py'
p3267
I1
sS'examples/connectivity/plot_connect_comparison.py'
p3268
I1
sS'continuous_integration/install.sh'
p3269
I2
sS'doc/building_blocks/decoding_simulated.rst'
p3270
I1
sS'nilearn/image/tests/test_image.py'
p3271
I3
sS'nilearn/datasets.py'
p3272
I18
sS'nilearn/tests/test_extmath.py'
p3273
I1
sS'nilearn/_utils/extmath.py'
p3274
I1
sS'nilearn/plotting/glass_brain_files/plot_align_svg.py'
p3275
I1
sS'nilearn/_utils/compat.py'
p3276
I1
sS'examples/manipulating_visualizing/plot_affine_transformation.py'
p3277
I2
sS'nilearn/tests/test_group_sparse_covariance.py'
p3278
I1
sS'nilearn/image/resampling.py'
p3279
I3
sS'nilearn/datasets/tests/test_utils.py'
p3280
I2
sS'nilearn/decomposition/__init__.py'
p3281
I1
sS'nilearn/plotting/glass_brain_files/svg_to_json_converter.py'
p3282
I1
sS'nilearn/__init__.py'
p3283
I4
sS'nilearn/region.py'
p3284
I1
sS'examples/decoding/plot_haxby_anova_svm.py'
p3285
I1
sS'examples/manipulating_visualizing/plot_localizer_mass_univariate_methods.py'
p3286
I1
sS'doc/sphinxext/numpy_ext/docscrape.py'
p3287
I5
ssS'abraham@drago.saclay.inria.fr'
p3288
g1
(g5
tRp3289
S'doc/themes/nilearn/layout.html'
p3290
I1
sS'doc/makefile'
p3291
I1
ssS'sylvain@dhcp-147-251.via.ecp.fr'
p3292
g1
(g5
tRp3293
S'doc/decoding/space_net.rst'
p3294
I1
sS'nilearn/decomposition/canica.py'
p3295
I4
sS'doc/decoding/estimator_choice.rst'
p3296
I1
sS'doc/manipulating_images/masker_objects.rst'
p3297
I1
sS'nilearn/decomposition/tests/test_canica.py'
p3298
I3
sS'doc/manipulating_images/manipulating_images.rst'
p3299
I1
sS'nilearn/plotting/find_cuts.py'
p3300
I1
sS'doc/decoding/searchlight.rst'
p3301
I1
sS'doc/connectivity/connectome_extraction.rst'
p3302
I1
sS'doc/building_blocks/manual_pipeline.rst'
p3303
I1
sS'doc/decoding/decoding_intro.rst'
p3304
I1
ssS'jeromedockes'
p3305
g1
(g5
tRp3306
S'doc/connectivity/functional_connectomes.rst'
p3307
I1
sS'nilearn/datasets/description/msdl_atlas.rst'
p3308
I1
sS'examples/01_plotting/plot_3d_map_to_surface_projection.py'
p3309
I8
sS'doc/manipulating_images/masker_objects.rst'
p3310
I1
sS'examples/02_decoding/plot_haxby_space_net.py'
p3311
I4
sS'examples/03_connectivity/plot_extract_regions_dictlearning_maps.py'
p3312
I1
sS'nilearn/datasets/__init__.py'
p3313
I7
sS'examples/03_connectivity/plot_seed_based_connectome.py'
p3314
I2
sS'examples/04_manipulating_images/plot_extract_rois_smith_atlas.py'
p3315
I1
sS'nilearn/datasets/tests/test_neurovault.py'
p3316
I13
sS'doc/logos/nilearn-logo-tagline.svg'
p3317
I1
sS'doc/connectivity/index.rst'
p3318
I1
sS'nilearn/datasets/description/destrieux_surface.rst'
p3319
I1
sS'examples/connectivity/plot_ica_neurovault.py'
p3320
I1
sS'nilearn/input_data/tests/test_nifti_masker.py'
p3321
I2
sS'doc/sphinxext/sphinx_gallery/__init__.py'
p3322
I3
sS'nilearn/plotting/tests/test_surf_plotting.py'
p3323
I15
sS'nilearn/input_data/tests/test_base_masker.py'
p3324
I1
sS'examples/04_manipulating_images/plot_extract_rois_statistical_maps.py'
p3325
I2
sS'nilearn/plotting/img_plotting.py'
p3326
I8
sS'nilearn/surface/data/ball_cloud_40_samples.csv'
p3327
I1
sS'nilearn/tests/test_niimg.py'
p3328
I3
sS'nilearn/input_data/nifti_masker.py'
p3329
I5
sS'nilearn/plotting/tests/test_displays.py'
p3330
I4
sS'nilearn/plotting/tests/test_img_plotting.py'
p3331
I5
sS'examples/03_connectivity/plot_power_connectome.py'
p3332
I2
sS'nilearn/plotting/glass_brain.py'
p3333
I1
sS'examples/02_decoding/plot_haxby_stimuli.py'
p3334
I1
sS'nilearn/_utils/logger.py'
p3335
I1
sS'doc/themes/nilearn/static/nature.css_t'
p3336
I1
sS'doc/building_blocks/manual_pipeline.rst'
p3337
I5
sS'nilearn/input_data/masker_validation.py'
p3338
I2
sS'nilearn/_utils/extmath.py'
p3339
I1
sS'nilearn/datasets/tests/test_utils.py'
p3340
I2
sS'nilearn/datasets/struct.py'
p3341
I2
sS'nilearn/input_data/tests/test_nifti_maps_masker.py'
p3342
I4
sS'nilearn/signal.py'
p3343
I7
sS'nilearn/datasets/description/neurovault.rst'
p3344
I2
sS'nilearn/surface/data/ball_cloud_20_samples.csv'
p3345
I1
sS'nilearn/_utils/fixes/__init__.py'
p3346
I5
sS'examples/01_plotting/plot_surface_projection_strategies.py'
p3347
I8
sS'nilearn/decomposition/dict_learning.py'
p3348
I3
sS'nilearn/datasets/tests/test_func.py'
p3349
I5
sS'nilearn/decoding/tests/test_graph_net.py'
p3350
I3
sS'nilearn/plotting/tests/test_cm.py'
p3351
I1
sS'doc/makefile'
p3352
I2
sS'examples/04_manipulating_images/plot_resample_to_template.py'
p3353
I2
sS'doc/sphinxext/sphinx_gallery/gen_rst.py'
p3354
I3
sS'doc/introduction.rst'
p3355
I4
sS'doc/manipulating_images/input_output.rst'
p3356
I4
sS'nilearn/decomposition/canica.py'
p3357
I1
sS'nilearn/datasets/atlas.py'
p3358
I29
sS'nilearn/datasets/description/fsaverage5.rst'
p3359
I1
sS'continuous_integration/flake8_diff.sh'
p3360
I2
sS'examples/05_advanced/plot_haxby_mass_univariate.py'
p3361
I5
sS'examples/03_connectivity/plot_adhd_spheres.py'
p3362
I3
sS'doc/sphinxext/sphinx_gallery/_static/gallery.css'
p3363
I3
sS'readme.rst'
p3364
I6
sS'doc/decoding/searchlight.rst'
p3365
I2
sS'doc/sphinxext/sphinx_gallery/docs_resolv.py'
p3366
I3
sS'nilearn/input_data/multi_nifti_masker.py'
p3367
I5
sS'.travis.yml'
p3368
I8
sS'nilearn/_utils/compat.py'
p3369
I4
sS'doc/modules/reference.rst'
p3370
I13
sS'nilearn/_utils/class_inspect.py'
p3371
I1
sS'nilearn/_utils/numpy_conversions.py'
p3372
I1
sS'examples/03_connectivity/plot_seed_to_voxel_correlation.py'
p3373
I2
sS'examples/03_connectivity/plot_connectivity_measures.py'
p3374
I3
sS'nilearn/surface.py'
p3375
I14
sS'examples/plot_nilearn_101.py'
p3376
I1
sS'nilearn/plotting/tests/test_edge_detect.py'
p3377
I1
sS'continuous_integration/after_success.sh'
p3378
I1
sS'nilearn/plotting/find_cuts.py'
p3379
I7
sS'nilearn/plotting/tests/data/__init__.py'
p3380
I2
sS'nilearn/datasets/tests/test_struct.py'
p3381
I5
sS'nilearn/datasets/description/talairach_atlas.rst'
p3382
I3
sS'nilearn/plotting/surf_plotting.py'
p3383
I39
sS'doc/sphinxext/sphinx_gallery/gen_gallery.py'
p3384
I3
sS'nilearn/surface/__init__.py'
p3385
I1
sS'nilearn/version.py'
p3386
I9
sS'examples/03_connectivity/plot_compare_resting_state_decomposition.py'
p3387
I2
sS'nilearn/tests/data/test.annot'
p3388
I2
sS'examples/04_manipulating_images/plot_affine_transformation.py'
p3389
I1
sS'examples/plot_localizer_simple_analysis.py'
p3390
I1
sS'nilearn/decomposition/multi_pca.py'
p3391
I2
sS'nilearn/decoding/tests/test_same_api.py'
p3392
I1
sS'nilearn/surface/data/readme.txt'
p3393
I1
sS'nilearn/tests/test_niimg_conversions.py'
p3394
I5
sS'examples/01_plotting/brainpedia_surface.py'
p3395
I7
sS'examples/05_advanced/plot_localizer_simple_analysis.py'
p3396
I4
sS'nilearn/image/image.py'
p3397
I9
sS'nilearn/decomposition/tests/test_base.py'
p3398
I2
sS'examples/01_plotting/plot_demo_more_plotting.py'
p3399
I2
sS'doc/sphinxext/sphinx_gallery/notebook.py'
p3400
I3
sS'examples/01_plotting/plot_haxby_masks.py'
p3401
I2
sS'examples/02_decoding/plot_haxby_full_analysis.py'
p3402
I4
sS'nilearn/datasets/tests/data/pymvpa-exampledata.tar.bz2'
p3403
I1
sS'examples/02_decoding/plot_miyawaki_reconstruction.py'
p3404
I1
sS'nilearn/datasets/func.py'
p3405
I7
sS'examples/.gitignore'
p3406
I1
sS'examples/03_connectivity/plot_rest_clustering.py'
p3407
I1
sS'nilearn/datasets/description/allen_rsn_2011.rst'
p3408
I1
sS'nilearn/_utils/testing.py'
p3409
I3
sS'nilearn/_utils/niimg.py'
p3410
I5
sS'doc/sphinxext/sphinx_gallery/py_source_parser.py'
p3411
I1
sS'nilearn/_utils/niimg_conversions.py'
p3412
I7
sS'examples/05_advanced/plot_neurovault_meta_analysis.py'
p3413
I7
sS'examples/02_decoding/plot_haxby_searchlight.py'
p3414
I4
sS'examples/01_plotting/plot_prob_atlas.py'
p3415
I2
sS'nilearn/connectome/connectivity_matrices.py'
p3416
I2
sS'nilearn/decomposition/tests/test_dict_learning.py'
p3417
I1
sS'examples/01_plotting/plot_surf_stat_map.py'
p3418
I2
sS'examples/01_plotting/technical_details/readme.txt'
p3419
I2
sS'examples/02_decoding/plot_haxby_multiclass.py'
p3420
I4
sS'nilearn/decoding/searchlight.py'
p3421
I4
sS'examples/02_decoding/plot_haxby_anova_svm.py'
p3422
I6
sS'doc/user_guide.rst'
p3423
I2
sS'doc/decoding/estimator_choice.rst'
p3424
I2
sS'nilearn/datasets/description/icbm152_2009.rst'
p3425
I1
sS'nilearn/input_data/nifti_labels_masker.py'
p3426
I5
sS'nilearn/plotting/tests/data/test.label'
p3427
I2
sS'examples/02_decoding/plot_oasis_vbm.py'
p3428
I2
sS'examples/04_manipulating_images/plot_roi_extraction.py'
p3429
I4
sS'nilearn/masking.py'
p3430
I5
sS'nilearn/plotting/displays.py'
p3431
I9
sS'nilearn/surface/tests/__init__.py'
p3432
I1
sS'nilearn/regions/tests/test_signal_extraction.py'
p3433
I4
sS'nilearn/plotting/cm.py'
p3434
I2
sS'nilearn/image/tests/test_image.py'
p3435
I7
sS'examples/05_advanced/plot_localizer_mass_univariate_methods.py'
p3436
I3
sS'doc/logos/nilearn_logo_tagline.png'
p3437
I1
sS'nilearn/_utils/exceptions.py'
p3438
I1
sS'nilearn/datasets/tests/test_atlas.py'
p3439
I9
sS'nilearn/plotting/tests/data/test.annot'
p3440
I2
sS'doc/connectivity/resting_state_networks.rst'
p3441
I1
sS'examples/03_connectivity/plot_multi_subject_connectome.py'
p3442
I2
sS'examples/readme.txt'
p3443
I4
sS'examples/04_manipulating_images/plot_extract_regions_labels_image.py'
p3444
I1
sS'.gitignore'
p3445
I1
sS'nilearn/datasets/utils.py'
p3446
I5
sS'nilearn/input_data/tests/test_multi_nifti_masker.py'
p3447
I2
sS'examples/01_plotting/plot_dim_plotting.py'
p3448
I1
sS'nilearn/surface/data/ball_cloud_160_samples.csv'
p3449
I1
sS'doc/connectivity/parcellating.rst'
p3450
I2
sS'examples/03_connectivity/plot_sphere_based_connectome.py'
p3451
I1
sS'examples/01_plotting/plot_cortex_projection_strategies.py'
p3452
I4
sS'examples/01_plotting/plot_demo_glass_brain_extensive.py'
p3453
I2
sS'nilearn/regions/__init__.py'
p3454
I1
sS'doc/manipulating_images/data_preparation.rst'
p3455
I1
sS'nilearn/decomposition/tests/test_canica.py'
p3456
I1
sS'nilearn/surface/tests/data/test.label'
p3457
I1
sS'nilearn/connectome/__init__.py'
p3458
I1
sS'nilearn/regions/signal_extraction.py'
p3459
I5
sS'doc/install_doc_component.html'
p3460
I2
sS'nilearn/regions/tests/test_region_extractor.py'
p3461
I4
sS'nilearn/plotting/tests/test_find_cuts.py'
p3462
I3
sS'nilearn/input_data/base_masker.py'
p3463
I2
sS'nilearn/input_data/nifti_spheres_masker.py'
p3464
I5
sS'examples/plot_haxby_simple.py'
p3465
I1
sS'nilearn/decoding/tests/test_searchlight.py'
p3466
I4
sS'examples/03_connectivity/plot_seed_based_correlation.py'
p3467
I1
sS'examples/plot_decoding_tutorial.py'
p3468
I5
sS'examples/02_decoding/plot_haxby_grid_search.py'
p3469
I4
sS'examples/02_decoding/plot_haxby_different_estimators.py'
p3470
I3
sS'examples/05_advanced/plot_ica_resting_state.py'
p3471
I1
sS'examples/01_plotting/plot_3d_map_projection.py'
p3472
I3
sS'nilearn/surface/tests/data/test.annot'
p3473
I1
sS'nilearn/tests/test_surface.py'
p3474
I16
sS'nilearn/_utils/fixes/sklearn_validation.py'
p3475
I1
sS'nilearn/connectome/tests/test_connectivity_matrices.py'
p3476
I2
sS'examples/plot_3d_and_4d_niimg.py'
p3477
I1
sS'doc/decoding/decoding_intro.rst'
p3478
I1
sS'setup.py'
p3479
I5
sS'nilearn/surface/tests/data/__init__.py'
p3480
I1
sS'doc/decoding/space_net.rst'
p3481
I1
sS'nilearn/surface/data/ball_cloud_80_samples.csv'
p3482
I1
sS'doc/sphinxext/sphinx_gallery/downloads.py'
p3483
I2
sS'doc/decoding/decoding_simulated.rst'
p3484
I1
sS'doc/decoding/decoding_tutorial.rst'
p3485
I3
sS'doc/conf.py'
p3486
I5
sS'doc/manipulating_images/index.rst'
p3487
I1
sS'doc/whats_new.rst'
p3488
I25
sS'nilearn/datasets/description/nki_enhanced_surface.rst'
p3489
I1
sS'examples/03_connectivity/plot_signal_extraction.py'
p3490
I2
sS'nilearn/surface/data/__init__.py'
p3491
I1
sS'nilearn/datasets/neurovault.py'
p3492
I25
sS'nilearn/image/__init__.py'
p3493
I3
sS'examples/03_connectivity/plot_canica_resting_state.py'
p3494
I1
sS'nilearn/datasets/description/cobre.rst'
p3495
I1
sS'nilearn/decomposition/base.py'
p3496
I4
sS'circle.yml'
p3497
I7
sS'examples/01_plotting/plot_demo_glass_brain.py'
p3498
I1
sS'doc/index.rst'
p3499
I1
sS'nilearn/surface/surface.py'
p3500
I14
sS'nilearn/data/surface/_uniform_ball_cloud/ball_cloud_20_samples.csv'
p3501
I2
sS'nilearn/_utils/fixes/sklearn_f_regression_nosparse.py'
p3502
I1
sS'doc/decoding/index.rst'
p3503
I1
sS'examples/05_advanced/plot_ica_neurovault.py'
p3504
I8
sS'nilearn/decoding/tests/test_space_net.py'
p3505
I2
sS'examples/01_plotting/technical_details/plot_surface_projection_strategies.py'
p3506
I2
sS'nilearn/datasets/tests/data/craddock_2011_parcellations.tar.gz'
p3507
I1
sS'nilearn/input_data/nifti_maps_masker.py'
p3508
I5
sS'examples/manipulating_visualizing/plot_neurovault_meta_analysis.py'
p3509
I1
sS'nilearn/surface/data/ball_cloud_10_samples.csv'
p3510
I1
sS'nilearn/tests/test_cache_mixin.py'
p3511
I2
sS'examples/02_decoding/plot_simulated_data.py'
p3512
I1
sS'nilearn/input_data/tests/test_nifti_labels_masker.py'
p3513
I4
sS'nilearn/tests/test_param_validation.py'
p3514
I1
sS'continuous_integration/install.sh'
p3515
I1
sS'nilearn/connectome/group_sparse_cov.py'
p3516
I2
sS'examples/03_connectivity/plot_probabilistic_atlas_extraction.py'
p3517
I1
sS'examples/04_manipulating_images/plot_nifti_simple.py'
p3518
I1
sS'doc/manipulating_images/manipulating_images.rst'
p3519
I2
sS'nilearn/decoding/space_net.py'
p3520
I9
sS'nilearn/_utils/cache_mixin.py'
p3521
I2
sS'nilearn/surface/tests/test_surface.py'
p3522
I5
sS'examples/01_plotting/show_ball_sampling.py'
p3523
I7
sS'nilearn/data/surface/_uniform_ball_cloud/ball_cloud_160_samples.csv'
p3524
I2
sS'examples/01_plotting/plot_surf_atlas.py'
p3525
I3
sS'nilearn/plotting/glass_brain_files/plot_align_svg.py'
p3526
I1
sS'doc/themes/nilearn/layout.html'
p3527
I3
sS'nilearn/tests/data/test.label'
p3528
I2
sS'nilearn/data/surface/_uniform_ball_cloud/ball_cloud_40_samples.csv'
p3529
I2
sS'manifest.in'
p3530
I1
sS'examples/01_plotting/plot_demo_plotting.py'
p3531
I2
sS'appveyor.yml'
p3532
I3
sS'nilearn/regions/tests/__init__.py'
p3533
I1
sS'nilearn/_utils/param_validation.py'
p3534
I4
sS'nilearn/data/surface/_uniform_ball_cloud/ball_cloud_80_samples.csv'
p3535
I2
sS'doc/sphinxext/sphinx_gallery/backreferences.py'
p3536
I2
sS'examples/02_decoding/plot_miyawaki_encoding.py'
p3537
I3
sS'nilearn/image/resampling.py'
p3538
I10
sS'nilearn/datasetsc'
p3539
I2
sS'nilearn/regions/region_extractor.py'
p3540
I6
sS'nilearn/plotting/__init__.py'
p3541
I4
sS'examples/04_manipulating_images/plot_mask_computation.py'
p3542
I1
sS'doc/building_blocks/index.rst'
p3543
I1
sS'doc/themes/nilearn/static/copybutton.js'
p3544
I1
sS'examples/01_plotting/plot_visualization.py'
p3545
I1
sS'nilearn/tests/test_masking.py'
p3546
I4
sS'doc/building_blocks/neurovault.rst'
p3547
I6
sS'nilearn/tests/test_signal.py'
p3548
I2
sS'nilearn/__init__.py'
p3549
I2
sS'doc/plotting/index.rst'
p3550
I7
sS'nilearn/plotting/edge_detect.py'
p3551
I1
sS'nilearn/data/surface/_uniform_ball_cloud/ball_cloud_10_samples.csv'
p3552
I2
sS'nilearn/image/tests/test_resampling.py'
p3553
I6
sS'doc/sphinxext/sphinx_gallery/_static/broken_stamp.svg'
p3554
I1
ssS'alexandre.abraham@cea.fr'
p3555
g1
(g5
tRp3556
S'nisl/tests/test_mri_transformer.py'
p3557
I3
sS'nyu_rest_clustering.py'
p3558
I2
sS'doc/haxby_decoding.rst'
p3559
I7
sS'doc/readme'
p3560
I2
sS'nisl/decomposition/__init__.py'
p3561
I2
sS'doc/nifti_masker/nifti_masker_advanced.rst'
p3562
I4
sS'doc/ward_clustering.rst'
p3563
I4
sS'nisl/io/nifti_masker.py'
p3564
I17
sS'decoding_example.py'
p3565
I5
sS'nisl/testing.py'
p3566
I5
sS'nisl/preprocessing.py'
p3567
I2
sS'nisl/datasets.py'
p3568
I56
sS'doc/datasets/download.rst'
p3569
I2
sS'doc/images/plusbox.png'
p3570
I1
sS'doc/copying'
p3571
I1
sS'searchlight/searchlight.py'
p3572
I1
sS'doc/nifti_masker/nifti_masker_simple.rst'
p3573
I3
sS'nisl/io/tests/test_nifti_masker.py'
p3574
I4
sS'doc/introduction.rst'
p3575
I1
sS'nisl/starplus.py'
p3576
I1
sS'plot_rest_clustering.py'
p3577
I15
sS'doc/images/masking.jpg'
p3578
I1
sS'nisl/io/nifti_loader.py'
p3579
I3
sS'plot_nyu_rest_decomposition.py'
p3580
I4
sS'nisl/tests/test_searchlight.py'
p3581
I4
sS'doc/nifti_masker_advanced.rst'
p3582
I2
sS'nisl/io/nifti_multi_masker.py'
p3583
I20
sS'nisl/images.py'
p3584
I2
sS'plot_haxby_masking.py'
p3585
I3
sS'doc/themes/scikit-learn/static/sidebar.js'
p3586
I1
sS'doc/developers/dataset_download.rst'
p3587
I1
sS'readme.rst'
p3588
I2
sS'plot_visualization.py'
p3589
I7
sS'nisl/decomposition/canica.py'
p3590
I12
sS'plot_nyu_rest_clustering.py'
p3591
I5
sS'doc/masking.png'
p3592
I2
sS'nisl/tests/test_masking.py'
p3593
I5
sS'doc/nifti_masker.rst'
p3594
I10
sS'plot_nifti_simple.py'
p3595
I6
sS'doc/nifti_masker/getting_started.rst'
p3596
I4
sS'examples/plot_haxby_visualisation.py'
p3597
I3
sS'nisl/__init__.py'
p3598
I3
sS'nisl/io/tests/test_nifti_multi_masker.py'
p3599
I1
sS'doc/themes/scikit-learn/layout.html'
p3600
I8
sS'visualization.py'
p3601
I2
sS'doc/datasets/visualization.rst'
p3602
I4
sS'nisl/io/__init__.py'
p3603
I2
sS'nisl/base_model.py'
p3604
I2
sS'plot_haxby_searchlight.py'
p3605
I24
sS'nisl/searchlight.py'
p3606
I13
sS'doc/images/minboxhighlight.png'
p3607
I1
sS'kamitani.py'
p3608
I5
sS'doc/makefile'
p3609
I2
sS'nisl/mask.py'
p3610
I4
sS'doc/images/feature_array.svg'
p3611
I1
sS'readme.txt'
p3612
I1
sS'plot_haxby_simple.py'
p3613
I3
sS'doc/themes/scikit-learn/static/nature.css_t'
p3614
I3
sS'doc/masking.jpg'
p3615
I1
sS'makefile'
p3616
I4
sS'doc/images/nonebox.png'
p3617
I1
sS'nisl/starplus_decoding_example.py'
p3618
I1
sS'doc/images/feature_array.jpg'
p3619
I1
sS'nisl/tests/test_resampling.py'
p3620
I5
sS'doc/sphinxext/gen_rst.py'
p3621
I2
sS'plot_ica_resting_state.py'
p3622
I5
sS'plot_haxby_decoding.py'
p3623
I21
sS'nisl/tests/test_mask.py'
p3624
I3
sS'setup.py'
p3625
I1
sS'nisl/tests/__init__.py'
p3626
I1
sS'doc/visualization.rst'
p3627
I7
sS'plot_haxby_mask.py'
p3628
I3
sS'nisl/resampling.py'
p3629
I13
sS'nisl/tests/test_utils.py'
p3630
I6
sS'doc/images/niimg.jpg'
p3631
I1
sS'nisl/tests/test_signals.py'
p3632
I7
sS'nisl/signals.py'
p3633
I10
sS'nisl/tests/data/pymvpa-exampledata.tar.bz2'
p3634
I1
sS'nisl/io/base_masker.py'
p3635
I14
sS'nisl/tests/test_datasets.py'
p3636
I10
sS'doc/index.rst'
p3637
I13
sS'doc/dataset_manipulation.rst'
p3638
I5
sS'doc/modules/classes.rst'
p3639
I3
sS'nyu_rest_decomposition.py'
p3640
I4
sS'doc/images/plusboxhighlight.png'
p3641
I1
sS'doc/datasets/nyu.rst'
p3642
I3
sS'nyu_rest.py'
p3643
I2
sS'searchlight/example_searchlight.py'
p3644
I1
sS'plot_simulated_data.py'
p3645
I4
sS'nisl/decomposition/tests/test_canica.py'
p3646
I1
sS'copying'
p3647
I1
sS'nisl/masking.py'
p3648
I28
sS'doc/images/niimgs.jpg'
p3649
I1
sS'example_searchlight.py'
p3650
I3
sS'nisl/utils.py'
p3651
I13
sS'nisl/decomposition/decomposition_model.py'
p3652
I3
sS'plot_canica_resting_state.py'
p3653
I12
sS'doc/haxby_searchlight.rst'
p3654
I5
sS'nisl/mri_transformer.py'
p3655
I24
sS'plot_nifti_advanced.py'
p3656
I4
sS'searchlight/images.py'
p3657
I1
sS'doc/tutorial/index.rst'
p3658
I3
sS'doc/images/minbox.png'
p3659
I1
ssS'sylvainlan'
p3660
g1
(g5
tRp3661
S'nilearn/plotting/find_cuts.py'
p3662
I5
sS'doc/decoding/decoding_intro.rst'
p3663
I2
sS'nilearn/plotting/tests/test_find_cuts.py'
p3664
I2
ssS'bthirion'
p3665
g1
(g5
tRp3666
S'nilearn/tests/test_datasets.py'
p3667
I1
sS'doc/modules/reference.rst'
p3668
I1
sS'nilearn/mass_univariate/__init__.py'
p3669
I1
sS'doc/haxby_decoding.rst'
p3670
I1
sS'nilearn/mass_univariate/tests/test_permuted_least_squares.py'
p3671
I1
sS'plot_haxby_mass_univariate.py'
p3672
I1
sS'nilearn/_utils/fixes/sklearn_f_regression_nosparse.py'
p3673
I1
sS'nisl/io/nifti_masker.py'
p3674
I1
sS'doc/extracting_data.rst'
p3675
I3
sS'plot_haxby_simple.py'
p3676
I1
sS'doc/simulations.rst'
p3677
I1
sS'nilearn/plotting/img_plotting.py'
p3678
I1
sS'nilearn/tests/test_niimg_conversions.py'
p3679
I1
sS'nilearn/_utils/cache_mixin.py'
p3680
I1
sS'plot_simulated_data.py'
p3681
I3
sS'nisl/decomposition/tests/test_canica.py'
p3682
I1
sS'doc/install_doc_component.html'
p3683
I1
sS'nisl/io/tests/test_nifti_multi_masker.py'
p3684
I1
sS'setup.py'
p3685
I1
sS'nilearn/plotting/tests/test_edge_detect.py'
p3686
I1
sS'nilearn/datasets.py'
p3687
I2
sS'nilearn/decoding/tests/test_searchlight.py'
p3688
I2
sS'nisl/io/nifti_multi_masker.py'
p3689
I1
sS'nilearn/description/yeo.rst'
p3690
I2
sS'nilearn/_utils/fixes/__init__.py'
p3691
I1
sS'doc/getting_started.rst'
p3692
I1
sS'nilearn/_utils/niimg_conversions.py'
p3693
I1
sS'nilearn/decomposition/tests/test_canica.py'
p3694
I1
sS'doc/ward_clustering.rst'
p3695
I1
sS'examples/plot_atlas.py'
p3696
I2
sS'nilearn/group_sparse_covariance.py'
p3697
I1
sS'nisl/io/tests/test_nifti_masker.py'
p3698
I1
sS'doc/haxby_searchlight.rst'
p3699
I1
sS'nilearn/mass_univariate/permuted_least_squares.py'
p3700
I1
sS'doc/introduction.rst'
p3701
I2
sS'doc/dataset_manipulation.rst'
p3702
I1
sS'doc/ica_resting_state.rst'
p3703
I1
sS'plot_haxby_searchlight.py'
p3704
I1
sS'nisl/resampling.py'
p3705
I1
sS'nilearn/decoding/searchlight.py'
p3706
I1
sS'plot_nifti_advanced.py'
p3707
I1
sS'nilearn/tests/test_signal.py'
p3708
I1
sS'plot_visualization.py'
p3709
I1
sS'nilearn/plotting/edge_detect.py'
p3710
I1
sS'doc/building_blocks/searchlight.rst'
p3711
I1
sS'nilearn/plotting/displays.py'
p3712
I1
ssS'aabraham@is148601.intra.cea.fr'
p3713
g1
(g5
tRp3714
S'doc/includes/bigger_toc_css.rst'
p3715
I1
sS'doc/readme'
p3716
I1
sS'doc/logos/scikit-learn-logo-thumb.png'
p3717
I1
sS'datasets.py'
p3718
I1
sS'doc/logos/scikit-learn-logo.png'
p3719
I1
sS'doc/makefile'
p3720
I2
sS'starplus.py'
p3721
I1
sS'doc/logos/favicon.ico'
p3722
I1
sS'doc/index.rst'
p3723
I2
sS'doc/logos/identity.pdf'
p3724
I1
sS'doc/sphinxext/numpy_ext/docscrape_sphinx.pyc'
p3725
I2
sS'examples/readme.txt'
p3726
I1
sS'doc/sphinxext/numpy_ext/__init__.pyc'
p3727
I2
sS'tests/test_hierarchical_clustering.py'
p3728
I1
sS'decoding_example.py'
p3729
I4
sS'themes/scikit-learn/theme.conf'
p3730
I1
sS'examples/plot_haxby_visualisation.py'
p3731
I2
sS'tests/__init__.py'
p3732
I1
sS'themes/scikit-learn/layout.html'
p3733
I1
sS'doc/scikitlearn.png'
p3734
I1
sS'hierarchical_clustering.py'
p3735
I1
sS'nisl/starplus.py'
p3736
I1
sS'nisl/datasets.py'
p3737
I4
sS'doc/sphinxext/gen_rst.pyc'
p3738
I2
sS'conf.py'
p3739
I1
sS'doc/sphinxext/numpy_ext/numpydoc.pyc'
p3740
I2
sS'doc/themes/scikit-learn/static/nature.css_t'
p3741
I1
sS'makefile'
p3742
I1
sS'nisl/supervised_clustering_vs_anova.py'
p3743
I2
sS'nisl/supervised_clustering.py'
p3744
I2
sS'authors.rst'
p3745
I2
sS'copying'
p3746
I1
sS'doc/themes/scikit-learn/layout.html'
p3747
I3
sS'supervised_clustering_vs_anova.py'
p3748
I1
sS'starplus_supervised_clustering.py'
p3749
I1
sS'nisl/__init__.py'
p3750
I4
sS'doc/make.bat'
p3751
I2
sS'doc/themes/scikit-learn/theme.conf'
p3752
I1
sS'supervised_clustering.py'
p3753
I1
sS'tests/test_supervised_clustering.py'
p3754
I1
sS'nisl/starplus_decoding_example.py'
p3755
I1
sS'doc/sphinxext/license.txt'
p3756
I1
sS'nisl/starplus_supervised_clustering.py'
p3757
I2
sS'doc/logos/scikit-learn-logo-small.png'
p3758
I1
sS'doc/sphinxext/numpy_ext/docscrape.pyc'
p3759
I2
sS'nisl/hierarchical_clustering.py'
p3760
I1
sS'doc/sphinxext/numpy_ext/__init__.py'
p3761
I1
sS'nisl/decoding_example.py'
p3762
I2
sS'themes/scikit-learn/static/.svn/text-base/nature.css_t.svn-base'
p3763
I1
sS'doc/sphinxext/manifest.in'
p3764
I1
sS'doc/sphinxext/gen_rst.py'
p3765
I1
sS'doc/sphinxext/numpy_ext_old/numpydoc.py'
p3766
I1
sS'doc/logos/scikit-learn-logo.svg'
p3767
I1
sS'doc/includes/big_toc_css.rst'
p3768
I1
sS'nisl/setup.py'
p3769
I2
sS'scikitlearn.png'
p3770
I1
sS'doc/sphinxext/numpy_ext/docscrape_sphinx.py'
p3771
I1
sS'simulated_example.py'
p3772
I2
sS'setup.py'
p3773
I2
sS'nisl/tests/__init__.py'
p3774
I1
sS'themes/scikit-learn/static/.svn/entries'
p3775
I1
sS'nisl/tests/test_supervised_clustering.py'
p3776
I2
sS'nisl/tests/test_hierarchical_clustering.py'
p3777
I1
sS'nisl/conf.py'
p3778
I2
sS'doc/themes/scikit-learn/static/sidebar.js'
p3779
I1
sS'doc/conf.py'
p3780
I2
sS'doc/sphinxext/numpy_ext_old/docscrape_sphinx.py'
p3781
I1
sS'doc/themes/scikit-learn/static/jquery.js'
p3782
I1
sS'readme-py3k.rst'
p3783
I1
sS'__init__.py'
p3784
I1
sS'themes/scikit-learn/static/nature.css_t'
p3785
I1
sS'index.rst'
p3786
I1
sS'doc/tutorial/index.rst'
p3787
I1
sS'starplus_decoding_example.py'
p3788
I1
sS'readme.rst'
p3789
I2
sS'doc/sphinxext/readme.txt'
p3790
I1
sS'nisl/simulated_example.py'
p3791
I2
sS'doc/sphinxext/numpy_ext_old/docscrape.py'
p3792
I1
sS'doc/sphinxext/numpy_ext_old/__init__.py'
p3793
I1
sS'doc/sphinxext/numpy_ext/numpydoc.py'
p3794
I1
sS'doc/sphinxext/numpy_ext/docscrape.py'
p3795
I1
sS'doc/logos/scikit-learn-logo.bmp'
p3796
I1
ssS'mehdi.rahim@cea.fr'
p3797
g1
(g5
tRp3798
S'nilearn/plotting/tests/test_img_plotting.py'
p3799
I1
ssS'simon.richard.steinkamp@uni-oldenburg.de'
p3800
g1
(g5
tRp3801
S'doc/whats_new.rst'
p3802
I1
sS'nilearn/_utils/ndimage.py'
p3803
I3
sS'nilearn/tests/test_ndimage.py'
p3804
I2
ssS'souravsingh'
p3805
g1
(g5
tRp3806
S'examples/02_decoding/plot_haxby_anova_svm.py'
p3807
I6
ssS'thechymera'
p3808
g1
(g5
tRp3809
S'nilearn/image/resampling.py'
p3810
I1
sS'nilearn/plotting/tests/test_img_plotting.py'
p3811
I1
sS'nilearn/plotting/displays.py'
p3812
I1
sS'nilearn/plotting/img_plotting.py'
p3813
I1
ssS'jakirkham'
p3814
g1
(g5
tRp3815
S'manifest.in'
p3816
I1
ssS'ahoyosid'
p3817
g1
(g5
tRp3818
S'doc/manipulating_images/masker_objects.rst'
p3819
I1
sS'examples/02_decoding/plot_haxby_space_net.py'
p3820
I2
sS'nilearn/datasets/__init__.py'
p3821
I4
sS'nilearn/datasets/description/destrieux_surface.rst'
p3822
I1
sS'nilearn/input_data/tests/test_nifti_masker.py'
p3823
I2
sS'doc/sphinxext/sphinx_gallery/__init__.py'
p3824
I1
sS'nilearn/plotting/tests/test_surf_plotting.py'
p3825
I1
sS'nilearn/plotting/img_plotting.py'
p3826
I2
sS'nilearn/_utils/cache_mixin.py'
p3827
I8
sS'nilearn/plotting/tests/test_displays.py'
p3828
I1
sS'nilearn/plotting/tests/test_img_plotting.py'
p3829
I4
sS'examples/03_connectivity/plot_power_connectome.py'
p3830
I1
sS'setup.py'
p3831
I3
sS'nilearn/datasets/struct.py'
p3832
I1
sS'nilearn/_utils/fixes/sklearn_validation.py'
p3833
I5
sS'nilearn/signal.py'
p3834
I1
sS'nilearn/_utils/fixes/__init__.py'
p3835
I21
sS'examples/02_decoding/plot_haxby_full_analysis.py'
p3836
I2
sS'nilearn/decomposition/dict_learning.py'
p3837
I2
sS'nilearn/datasets/tests/test_func.py'
p3838
I3
sS'examples/readme.txt'
p3839
I1
sS'nilearn/input_data/masker_validation.py'
p3840
I11
sS'doc/introduction.rst'
p3841
I2
sS'doc/plotting/index.rst'
p3842
I2
sS'nilearn/_utils/fixes/odict.py'
p3843
I2
sS'doc/sphinxext/sphinx_gallery/gen_rst.py'
p3844
I1
sS'nilearn/datasets/description/fsaverage5.rst'
p3845
I1
sS'continuous_integration/flake8_diff.sh'
p3846
I1
sS'examples/05_advanced/plot_haxby_mass_univariate.py'
p3847
I3
sS'doc/sphinxext/sphinx_gallery/_static/gallery.css'
p3848
I1
sS'readme.rst'
p3849
I5
sS'doc/decoding/searchlight.rst'
p3850
I2
sS'doc/sphinxext/sphinx_gallery/docs_resolv.py'
p3851
I1
sS'nilearn/input_data/multi_nifti_masker.py'
p3852
I1
sS'.travis.yml'
p3853
I5
sS'examples/05_advanced/plot_localizer_mass_univariate_methods.py'
p3854
I4
sS'doc/modules/reference.rst'
p3855
I6
sS'examples/03_connectivity/plot_seed_to_voxel_correlation.py'
p3856
I2
sS'continuous_integration/after_success.sh'
p3857
I2
sS'nilearn/plotting/find_cuts.py'
p3858
I1
sS'nilearn/datasets/tests/test_struct.py'
p3859
I1
sS'nilearn/plotting/surf_plotting.py'
p3860
I2
sS'nilearn/version.py'
p3861
I6
sS'nilearn/decomposition/multi_pca.py'
p3862
I1
sS'nilearn/decoding/tests/test_same_api.py'
p3863
I2
sS'examples/05_advanced/plot_localizer_simple_analysis.py'
p3864
I4
sS'nilearn/image/image.py'
p3865
I4
sS'doc/sphinxext/sphinx_gallery/notebook.py'
p3866
I1
sS'nilearn/_utils/tests/test_validation.py'
p3867
I24
sS'nilearn/datasets/func.py'
p3868
I5
sS'nilearn/datasets/description/allen_rsn_2011.rst'
p3869
I2
sS'nilearn/_utils/testing.py'
p3870
I2
sS'doc/sphinxext/sphinx_gallery/py_source_parser.py'
p3871
I1
sS'nilearn/_utils/niimg_conversions.py'
p3872
I2
sS'nilearn/datasets/atlas.py'
p3873
I5
sS'examples/02_decoding/plot_haxby_searchlight.py'
p3874
I1
sS'examples/01_plotting/plot_prob_atlas.py'
p3875
I2
sS'examples/01_plotting/plot_surf_stat_map.py'
p3876
I2
sS'examples/02_decoding/plot_haxby_anova_svm.py'
p3877
I3
sS'doc/decoding/estimator_choice.rst'
p3878
I2
sS'nilearn/input_data/nifti_labels_masker.py'
p3879
I1
sS'nilearn/plotting/tests/data/test.label'
p3880
I1
sS'examples/02_decoding/plot_oasis_vbm.py'
p3881
I2
sS'nilearn/_utils/fixes/funcsigs.py'
p3882
I6
sS'nilearn/_utils/fixes/scikit_learn_scorer.py'
p3883
I2
sS'nilearn/plotting/cm.py'
p3884
I1
sS'nilearn/datasets/tests/test_atlas.py'
p3885
I3
sS'nilearn/input_data/nifti_masker.py'
p3886
I1
sS'examples/04_manipulating_images/plot_extract_regions_labels_image.py'
p3887
I2
sS'nilearn/datasets/utils.py'
p3888
I2
sS'nilearn/input_data/tests/test_multi_nifti_masker.py'
p3889
I2
sS'doc/connectivity/parcellating.rst'
p3890
I2
sS'nilearn/plotting/tests/data/test.annot'
p3891
I1
sS'nilearn/_utils/fixes/sklearn_model_selection.py'
p3892
I13
sS'examples/01_plotting/plot_demo_glass_brain_extensive.py'
p3893
I1
sS'nilearn/regions/__init__.py'
p3894
I2
sS'doc/install_doc_component.html'
p3895
I2
sS'nilearn/regions/tests/test_region_extractor.py'
p3896
I2
sS'nilearn/plotting/tests/test_find_cuts.py'
p3897
I2
sS'nilearn/input_data/nifti_spheres_masker.py'
p3898
I1
sS'examples/plot_haxby_simple.py'
p3899
I1
sS'examples/plot_decoding_tutorial.py'
p3900
I3
sS'doc/manipulating_images/manipulating_images.rst'
p3901
I2
sS'nilearn/regions/region_extractor.py'
p3902
I2
sS'examples/01_plotting/plot_haxby_masks.py'
p3903
I2
sS'doc/decoding/decoding_intro.rst'
p3904
I2
sS'doc/building_blocks/manual_pipeline.rst'
p3905
I1
sS'doc/decoding/space_net.rst'
p3906
I1
sS'doc/sphinxext/sphinx_gallery/downloads.py'
p3907
I1
sS'doc/decoding/decoding_simulated.rst'
p3908
I2
sS'doc/decoding/decoding_tutorial.rst'
p3909
I3
sS'doc/conf.py'
p3910
I1
sS'doc/whats_new.rst'
p3911
I7
sS'nilearn/datasets/description/nki_enhanced_surface.rst'
p3912
I1
sS'examples/02_decoding/plot_haxby_multiclass.py'
p3913
I1
sS'examples/02_decoding/plot_haxby_grid_search.py'
p3914
I1
sS'nilearn/datasets/description/cobre.rst'
p3915
I1
sS'nilearn/_utils/fixes/scikit_learn_gridsearch.py'
p3916
I2
sS'nilearn/decomposition/base.py'
p3917
I3
sS'nilearn/plotting/displays.py'
p3918
I5
sS'doc/index.rst'
p3919
I1
sS'nilearn/decoding/tests/test_space_net.py'
p3920
I23
sS'nilearn/_utils/fixes/sklearn_f_regression_nosparse.py'
p3921
I2
sS'doc/decoding/index.rst'
p3922
I2
sS'nilearn/_utils/validation.py'
p3923
I20
sS'nilearn/input_data/nifti_maps_masker.py'
p3924
I1
sS'examples/02_decoding/plot_simulated_data.py'
p3925
I3
sS'nilearn/_utils/fixes/scikit_learn_validation.py'
p3926
I3
sS'nilearn/tests/test_param_validation.py'
p3927
I7
sS'continuous_integration/install.sh'
p3928
I2
sS'nilearn/connectome/group_sparse_cov.py'
p3929
I9
sS'nilearn/decoding/space_net.py'
p3930
I34
sS'nilearn/image/tests/test_image.py'
p3931
I2
sS'nilearn/plotting/tests/data/__init__.py'
p3932
I1
sS'examples/01_plotting/plot_surf_atlas.py'
p3933
I1
sS'manifest.in'
p3934
I2
sS'nilearn/regions/tests/__init__.py'
p3935
I2
sS'nilearn/_utils/param_validation.py'
p3936
I47
sS'doc/sphinxext/sphinx_gallery/backreferences.py'
p3937
I1
sS'doc/sphinxext/sphinx_gallery/gen_gallery.py'
p3938
I1
sS'nilearn/_utils/fixes/scikit_learn_utils.py'
p3939
I2
sS'nilearn/datasetsc'
p3940
I2
sS'nilearn/datasets/tests/test_utils.py'
p3941
I1
sS'nilearn/plotting/__init__.py'
p3942
I1
sS'examples/04_manipulating_images/plot_mask_computation.py'
p3943
I1
sS'nilearn/tests/test_cache_mixin.py'
p3944
I4
sS'nilearn/tests/test_signal.py'
p3945
I1
sS'doc/sphinxext/sphinx_gallery/_static/broken_stamp.svg'
p3946
I1
ssS'alpinho'
p3947
g1
(g5
tRp3948
S'nilearn/plotting/tests/test_img_plotting.py'
p3949
I2
sS'nilearn/plotting/img_plotting.py'
p3950
I2
ssS'salma@is223297.intra.cea.fr'
p3951
g1
(g5
tRp3952
S'doc/building_blocks/manipulating_mr_images.rst'
p3953
I1
sS'examples/decoding/plot_haxby_different_estimators.py'
p3954
I1
sS'examples/decoding/plot_haxby_full_analysis.py'
p3955
I1
sS'examples/manipulating_visualizing/plot_roi_extraction.py'
p3956
I3
ssS'mih'
p3957
g1
(g5
tRp3958
S'doc/introduction.rst'
p3959
I1
sS'doc/sphinxext/license.txt'
p3960
I1
sS'license'
p3961
I1
sS'examples/readme.txt'
p3962
I1
ssS'kossaifi@is208616.intra.cea.fr'
p3963
g1
(g5
tRp3964
S'example_hierarchical_clustering_from_scikits_learn.py'
p3965
I3
sS'test_hierarchical_clustering.py'
p3966
I2
sS'tests/test_hierarchical_clustering.py'
p3967
I1
sS'hierarchical_clustering.py'
p3968
I3
sS'benchmark_hierarchical_clustering_from_scikits_learn.py'
p3969
I1
ssS'cbedetti'
p3970
g1
(g5
tRp3971
S'examples/04_manipulating_images/plot_extract_rois_statistical_maps.py'
p3972
I1
sS'nilearn/plotting/img_plotting.py'
p3973
I1
ssS'demianw'
p3974
g1
(g5
tRp3975
S'nilearn/plotting/displays.py'
p3976
I3
sS'nilearn/plotting/img_plotting.py'
p3977
I2
ssS'arthurmensch'
p3978
g1
(g5
tRp3979
S'doc/modules/reference.rst'
p3980
I1
sS'doc/connectivity/resting_state_networks.rst'
p3981
I5
sS'nilearn/input_data/tests/test_nifti_masker.py'
p3982
I2
sS'nilearn/datasets/__init__.py'
p3983
I1
sS'nilearn/_utils/cache_mixin.py'
p3984
I1
sS'nilearn/input_data/tests/test_masker_validation.py'
p3985
I1
sS'nilearn/input_data/tests/test_multi_nifti_masker.py'
p3986
I2
sS'doc/connectivity/index.rst'
p3987
I2
sS'examples/03_connectivity/plot_compare_resting_state_decomposition.py'
p3988
I3
sS'nilearn/decomposition/multi_pca.py'
p3989
I5
sS'nilearn/plotting/img_plotting.py'
p3990
I1
sS'nilearn/decomposition/tests/test_canica.py'
p3991
I2
sS'nilearn/input_data/nifti_masker.py'
p3992
I2
sS'.gitignore'
p3993
I1
sS'nilearn/decomposition/tests/test_base.py'
p3994
I2
sS'nilearn/plotting/tests/test_img_plotting.py'
p3995
I2
sS'nilearn/masking.py'
p3996
I1
sS'examples/.gitignore'
p3997
I2
sS'nilearn/_utils/fixes/__init__.py'
p3998
I1
sS'nilearn/decomposition/tests/test_multi_pca.py'
p3999
I4
sS'.idea/vcs.xml'
p4000
I2
sS'examples/01_plotting/plot_prob_atlas.py'
p4001
I1
sS'nilearn/decomposition/dict_learning.py'
p4002
I3
sS'nilearn/decomposition/tests/test_dict_learning.py'
p4003
I1
sS'nilearn/input_data/masker_validation.py'
p4004
I2
sS'nilearn/decomposition/canica.py'
p4005
I2
sS'nilearn/datasets/atlas.py'
p4006
I2
sS'nilearn/decomposition/__init__.py'
p4007
I1
sS'nilearn/tests/test_masking.py'
p4008
I1
sS'nilearn/tests/test_cache_mixin.py'
p4009
I3
sS'examples/connectivity/compare_resting_state_decomposition.py'
p4010
I2
sS'examples/connectivity/plot_compare_resting_state_decomposition.py'
p4011
I1
sS'nilearn/input_data/multi_nifti_masker.py'
p4012
I2
sS'nilearn/decomposition/base.py'
p4013
I2
sS'nilearn/plotting/displays.py'
p4014
I6
ssS'ronald.phlypo@inria.fr'
p4015
g1
(g5
tRp4016
S'doc/building_blocks/manipulating_mr_images.rst'
p4017
I1
sS'nilearn/tests/test_datasets.py'
p4018
I1
sS'doc/modules/reference.rst'
p4019
I1
sS'doc/makefile'
p4020
I1
sS'plot_haxby_grid_search.py'
p4021
I1
sS'doc/index.rst'
p4022
I1
sS'doc/themes/nilearn/static/nature.css_t'
p4023
I1
sS'plot_nifti_simple.py'
p4024
I1
sS'nilearn/image/__init__.py'
p4025
I1
sS'.gitignore'
p4026
I1
sS'plot_haxby_different_estimators.py'
p4027
I1
sS'doc/building_blocks/ica.rst'
p4028
I1
sS'plot_haxby_multiclass.py'
p4029
I1
sS'plot_python_101.py'
p4030
I1
sS'doc/themes/nilearn/layout.html'
p4031
I1
sS'doc/building_blocks/supervised_learning.rst'
p4032
I1
sS'plot_haxby_simple.py'
p4033
I2
sS'doc/data_analysis/decoding.rst'
p4034
I1
sS'nilearn/tests/test_niimg_conversions.py'
p4035
I1
sS'nilearn/image/image.py'
p4036
I4
sS'nilearn/input_data/nifti_masker.py'
p4037
I4
sS'plot_simulated_data.py'
p4038
I1
sS'plot_roi_extraction.py'
p4039
I1
sS'doc/data_analysis/parcellating.rst'
p4040
I1
sS'plot_haxby_anova_svm.py'
p4041
I1
sS'nilearn/image/tests/test_image.py'
p4042
I1
sS'nilearn/datasets.py'
p4043
I1
sS'doc/data_analysis/functional_connectomes.rst'
p4044
I2
sS'plot_haxby_full_analysis.py'
p4045
I1
sS'nilearn/signal.py'
p4046
I7
sS'plot_rest_clustering.py'
p4047
I1
sS'nilearn/_utils/niimg_conversions.py'
p4048
I1
sS'plot_canica_resting_state.py'
p4049
I1
sS'plot_ica_resting_state.py'
p4050
I1
sS'nilearn/group_sparse_covariance.py'
p4051
I5
sS'plot_haxby_decoding.py'
p4052
I2
sS'doc/building_blocks/pipeline_introduction.rst'
p4053
I1
sS'.travis.yml'
p4054
I1
sS'doc/introduction.rst'
p4055
I2
sS'plot_haxby_searchlight.py'
p4056
I2
sS'plot_connect_comparison.py'
p4057
I1
sS'doc/conf.py'
p4058
I1
sS'nilearn/input_data/nifti_region.py'
p4059
I1
sS'plot_nifti_advanced.py'
p4060
I2
sS'doc/building_blocks/data_preparation.rst'
p4061
I1
sS'doc/data_analysis/resting_state_networks.rst'
p4062
I1
sS'nilearn/tests/test_signal.py'
p4063
I3
sS'nilearn/masking.py'
p4064
I4
sS'nilearn/masking.py.orig'
p4065
I1
sS'plot_visualization.py'
p4066
I2
sS'plot_adhd_covariance.py'
p4067
I1
sS'doc/building_blocks/searchlight.rst'
p4068
I1
sS'plot_haxby_masks.py'
p4069
I1
sS'doc/building_blocks/estimator_choice.rst'
p4070
I1
sS'plot_haxby_stimuli.py'
p4071
I1
ssS'salma1601'
p4072
g1
(g5
tRp4073
S'doc/connectivity/functional_connectomes.rst'
p4074
I1
sS'doc/modules/reference.rst'
p4075
I4
sS'nilearn/datasets/tests/test_atlas.py'
p4076
I6
sS'examples/03_connectivity/plot_seed_to_voxel_correlation.py'
p4077
I1
sS'examples/03_connectivity/plot_connectivity_measures.py'
p4078
I2
sS'nilearn/datasets/__init__.py'
p4079
I1
sS'examples/03_connectivity/plot_seed_based_connectome.py'
p4080
I4
sS'nilearn/connectome/connectivity_matrices.py'
p4081
I15
sS'examples/03_connectivity/plot_signal_extraction.py'
p4082
I1
sS'examples/03_connectivity/plot_group_level_connectivity.py'
p4083
I3
sS'nilearn/datasets/data/dosenbach_2010.csv'
p4084
I1
sS'nilearn/input_data/nifti_maps_masker.py'
p4085
I1
sS'examples/03_connectivity/plot_sphere_based_connectome.py'
p4086
I2
sS'nilearn/plotting/img_plotting.py'
p4087
I1
sS'nilearn/connectome/__init__.py'
p4088
I4
sS'nilearn/image/image.py'
p4089
I4
sS'doc/install_doc_component.html'
p4090
I1
sS'examples/03_connectivity/plot_power_connectome.py'
p4091
I1
sS'nilearn/regions/tests/test_region_extractor.py'
p4092
I7
sS'examples/03_connectivity/plot_probabilistic_atlas_extraction.py'
p4093
I1
sS'nilearn/decoding/space_net.py'
p4094
I2
sS'nilearn/input_data/nifti_spheres_masker.py'
p4095
I1
sS'nilearn/signal.py'
p4096
I5
sS'nilearn/connectome/tests/test_connectivity_matrices.py'
p4097
I6
sS'examples/03_connectivity/plot_seed_based_correlation.py'
p4098
I1
sS'nilearn/regions/region_extractor.py'
p4099
I5
sS'nilearn/datasets/atlas.py'
p4100
I6
sS'examples/03_connectivity/plot_adhd_spheres.py'
p4101
I2
sS'doc/whats_new.rst'
p4102
I6
sS'nilearn/tests/test_signal.py'
p4103
I1
sS'doc/connectivity/connectome_extraction.rst'
p4104
I1
sS'nilearn/datasets/description/dosenbach_2010.rst'
p4105
I3
sS'nilearn/plotting/displays.py'
p4106
I2
ssS'erramuzpe'
p4107
g1
(g5
tRp4108
S'doc/modules/reference.rst'
p4109
I1
sS'nilearn/_utils/testing.py'
p4110
I1
sS'nilearn/connectome/__init__.py'
p4111
I1
sS'nilearn/input_data/tests/test_nifti_maps_masker.py'
p4112
I1
sS'doc/themes/nilearn/static/nature.css_t'
p4113
I1
sS'nilearn/connectome/connectivity_matrices.py'
p4114
I1
sS'nilearn/plotting/displays.py'
p4115
I1
sS'doc/themes/nilearn/static/copybutton.js'
p4116
I1
sS'nilearn/connectome/tests/test_connectivity_matrices.py'
p4117
I1
sS'nilearn/input_data/nifti_maps_masker.py'
p4118
I1
ssS'mjboos'
p4119
g1
(g5
tRp4120
S'nilearn/image/image.py'
p4121
I4
sS'nilearn/_utils/niimg_conversions.py'
p4122
I2
sS'examples/02_decoding/plot_miyawaki_encoding.py'
p4123
I9
ssS'sfvndtu'
p4124
g1
(g5
tRp4125
S'examples/02_decoding/plot_haxby_anova_svm.py'
p4126
I3
ssS'yarikoptic'
p4127
g1
(g5
tRp4128
S'nilearn/plotting/glass_brain_files/plot_align_svg.py'
p4129
I1
ssS'xgrg'
p4130
g1
(g5
tRp4131
S'nilearn/plotting/cm.py'
p4132
I1
ss.