ccollections
defaultdict
p1
(c__main__
dd
p2
tRp3
S'awhetter'
p4
g1
(c__builtin__
int
p5
tRp6
S'doc/index.rst'
p7
I1
sS'doc/api/astroid.nodes.rst'
p8
I1
sS'doc/api/astroid.rst'
p9
I1
sS'astroid/nodes.py'
p10
I1
sS'doc/api/astroid.exceptions.rst'
p11
I1
sS'astroid/scoped_nodes.py'
p12
I1
sS'doc/ast_objects.inv'
p13
I1
sS'astroid/protocols.py'
p14
I1
sS'astroid/node_classes.py'
p15
I1
sS'doc/conf.py'
p16
I1
sS'doc/api/base_nodes.rst'
p17
I1
ssS'jwilk'
p18
g1
(g5
tRp19
S'astroid/brain/brain_namedtuple_enum.py'
p20
I1
sS'astroid/tests/unittest_regrtest.py'
p21
I1
sS'changelog'
p22
I1
sS'astroid/modutils.py'
p23
I1
sS'astroid/tests/unittest_inference.py'
p24
I1
sS'astroid/tests/unittest_protocols.py'
p25
I1
sS'astroid/tests/unittest_builder.py'
p26
I1
sS'pylintrc'
p27
I1
sS'astroid/raw_building.py'
p28
I1
sS'astroid/tests/unittest_nodes.py'
p29
I1
sS'doc/source/extending.rst'
p30
I1
sS'astroid/mixins.py'
p31
I1
sS'astroid/node_classes.py'
p32
I1
sS'astroid/inference.py'
p33
I1
sS'astroid/brain/brain_gi.py'
p34
I1
sS'astroid/tests/unittest_transforms.py'
p35
I1
sS'astroid/tests/unittest_scoped_nodes.py'
p36
I1
sS'astroid/test_utils.py'
p37
I1
sS'astroid/as_string.py'
p38
I1
sS'doc/source/inference.rst'
p39
I1
ssS'lothiraldan'
p40
g1
(g5
tRp41
S'test/unittest_nodes.py'
p42
I1
sS'changelog'
p43
I1
sS'test/unittest_python3.py'
p44
I1
sS'bases.py'
p45
I1
sS'node_classes.py'
p46
I2
sS'inference.py'
p47
I1
sS'raw_building.py'
p48
I1
ssS'pierre-yves.david@logilab.fr'
p49
g1
(g5
tRp50
S'apycot.ini'
p51
I2
ssS'laura.medioni@logilab.fr'
p52
g1
(g5
tRp53
S'astroid/tests/unittest_inference.py'
p54
I1
sS'changelog'
p55
I1
sS'astroid/brain/brain_builtin_inference.py'
p56
I1
sS'astroid/tests/unittest_brain.py'
p57
I2
sS'astroid/brain/brain_stdlib.py'
p58
I1
sS'astroid/__init__.py'
p59
I1
ssS'ioanatia'
p60
g1
(g5
tRp61
S'astroid/interpreter/_import/spec.py'
p62
I1
sS'astroid/tests/unittest_manager.py'
p63
I1
ssS'flying-sheep'
p64
g1
(g5
tRp65
S'test/unittest_scoped_nodes.py'
p66
I1
sS'builder.py'
p67
I2
sS'scoped_nodes.py'
p68
I2
sS'test/fulltest.sh'
p69
I1
ssS'alexandre.fayolle@logilab.fr'
p70
g1
(g5
tRp71
S'debian/python-logilab-astng.postinst'
p72
I1
sS'debian/copyright'
p73
I2
sS'debian.hardy/preinst'
p74
I1
sS'__pkginfo__.py'
p75
I1
sS'debian.hardy/rules'
p76
I1
sS'debian/compat'
p77
I1
sS'debian.intrepid/preinst'
p78
I1
sS'debian/control'
p79
I8
sS'debian/python-logilab-astng.dirs'
p80
I1
sS'debian.intrepid/rules'
p81
I1
sS'test/unittest_inference.py'
p82
I1
sS'debian/rules'
p83
I5
sS'inference.py'
p84
I2
sS'.hgtags'
p85
I1
sS'debian/watch'
p86
I1
sS'readme'
p87
I1
sS'debian/pycompat'
p88
I2
sS'_nodes_ast.py'
p89
I1
sS'debian/changelog'
p90
I6
sS'setup.py'
p91
I1
sS'debian/python-logilab-astng.prerm'
p92
I1
ssS'arusahni'
p93
g1
(g5
tRp94
S'.hgignore'
p95
I1
sS'.gitignore'
p96
I1
ssS'jcristau'
p97
g1
(g5
tRp98
S'test/unittest_builder.py'
p99
I1
sS'debian/control'
p100
I1
sS'test/unittest_nodes.py'
p101
I1
sS'protocols.py'
p102
I1
sS'changelog'
p103
I2
sS'rebuilder.py'
p104
I5
sS'test/unittest_python3.py'
p105
I2
sS'bases.py'
p106
I2
sS'astroid/tests/unittest_inference.py'
p107
I1
sS'doc/source/conf.py'
p108
I1
sS'test/data/module.py'
p109
I1
sS'node_classes.py'
p110
I3
sS'test/unittest_lookup.py'
p111
I1
sS'test/unittest_scoped_nodes.py'
p112
I3
sS'manager.py'
p113
I1
sS'as_string.py'
p114
I1
sS'scoped_nodes.py'
p115
I5
sS'doc/source/inference.rst'
p116
I1
ssS'euresti'
p117
g1
(g5
tRp118
S'astroid/tests/unittest_brain.py'
p119
I1
sS'astroid/brain/brain_typing.py'
p120
I1
ssS'shlomme'
p121
g1
(g5
tRp122
S'astroid/tests/testdata/python3/data/unicode_package/core/__init__.py'
p123
I1
sS'test/data/ssl1/connection1.py'
p124
I1
sS'astroid/brain/py2pytest.py'
p125
I2
sS'astroid/tests/unittest_lookup.py'
p126
I3
sS'astroid/tests/data_py3/find_test/module.py'
p127
I2
sS'astroid/tests/data_py3/notall.py'
p128
I2
sS'test/data_py3/absimport.py'
p129
I2
sS'astroid/nodes.py'
p130
I1
sS'astroid/tests/data/find_test/__init__.py'
p131
I2
sS'astroid/brain/py2qt4.py'
p132
I2
sS'brain/py2gi.py'
p133
I1
sS'test/unittest_inference.py'
p134
I3
sS'astroid/exceptions.py'
p135
I1
sS'test/data_py3/ssl1/__init__.py'
p136
I2
sS'astroid/tests/data_py3/all.py'
p137
I2
sS'test/data_py3/__init__.py'
p138
I2
sS'test/unittest_manager.py'
p139
I2
sS'astroid/tests/testdata/python3/data/module1abs/__init__.py'
p140
I1
sS'as_string.py'
p141
I1
sS'test/data/find_test/module.py'
p142
I1
sS'test/regrtest_data/package/__init__.py'
p143
I2
sS'astroid/tests/testdata/python2/data/find_test/__init__.py'
p144
I1
sS'astroid/tests/testdata/python2/data/lmfp/__init__.py'
p145
I1
sS'astroid/tests/testdata/python3/data/find_test/module2.py'
p146
I1
sS'astroid/tests/data/module1abs/__init__.py'
p147
I2
sS'astroid/tests/unittest_regrtest.py'
p148
I3
sS'astroid/tests/testdata/python2/data/notall.py'
p149
I1
sS'test/data_py3/lmfp/foo.py'
p150
I2
sS'astroid/tests/data_py3/module.py'
p151
I2
sS'astroid/tests/unittest_raw_building.py'
p152
I1
sS'test/unittest_modutils.py'
p153
I2
sS'astroid/tests/testdata/python2/data/find_test/noendingnewline.py'
p154
I1
sS'astroid/tests/testdata/python3/data/absimp/__init__.py'
p155
I1
sS'astroid/tests/data/email.py'
p156
I2
sS'astroid/tests/testdata/python3/data/__init__.py'
p157
I1
sS'astroid/tests/data/mypypa-0.1.0-py2.5.egg'
p158
I2
sS'.hgtags'
p159
I5
sS'astroid/tests/testdata/python3/data/descriptor_crash.py'
p160
I1
sS'brain/py2qt4.py'
p161
I1
sS'test/data_py3/appl/__init__.py'
p162
I2
sS'setup.py'
p163
I8
sS'raw_building.py'
p164
I3
sS'astroid/__init__.py'
p165
I2
sS'astroid/tests/testdata/python2/data/ssl1/connection1.py'
p166
I1
sS'astroid/tests/testdata/python3/data/absimp/sidepackage/__init__.py'
p167
I1
sS'nodes.py'
p168
I1
sS'astroid/inspector.py'
p169
I1
sS'astroid/tests/testdata/python2/data/mypypa-0.1.0-py2.5.egg'
p170
I1
sS'astroid/tests/data2/suppliermodule_test.py'
p171
I2
sS'test/data_py3/lmfp/__init__.py'
p172
I2
sS'builder.py'
p173
I4
sS'astroid/tests/data/nonregr.py'
p174
I2
sS'astroid/tests/unittest_builder.py'
p175
I5
sS'astroid/tests/regrtest_data/package/subpackage/__init__.py'
p176
I2
sS'utils.py'
p177
I1
sS'astroid/builder.py'
p178
I2
sS'astroid/tests/data/notall.py'
p179
I2
sS'astroid/tests/data/ssl1/connection1.py'
p180
I2
sS'astroid/tests/regrtest_data/unicode_package/core/__init__.py'
p181
I2
sS'mixins.py'
p182
I1
sS'changelog'
p183
I9
sS'test/data_py3/find_test/module2.py'
p184
I2
sS'astroid/tests/testdata/python2/data/nonregr.py'
p185
I1
sS'astroid/tests/data_py3/module1abs/__init__.py'
p186
I2
sS'test/data_py3/find_test/__init__.py'
p187
I2
sS'astroid/tests/data_py3/find_test/nonregr.py'
p188
I2
sS'astroid/tests/testdata/python3/data/mypypa-0.1.0-py2.5.egg'
p189
I1
sS'astroid/brain/py2gi.py'
p190
I2
sS'astroid/protocols.py'
p191
I1
sS'astroid/tests/testdata/python3/data/ssl1/connection1.py'
p192
I1
sS'test/data/appl/myconnection.py'
p193
I1
sS'astroid/tests/regrtest_data/package/absimport.py'
p194
I2
sS'astroid/tests/regrtest_data/descriptor_crash.py'
p195
I2
sS'test/data/appl/__init__.py'
p196
I1
sS'test/regrtest_data/absimp/__init__.py'
p197
I1
sS'astroid/tests/testdata/python3/data/package/import_package_subpackage_module.py'
p198
I1
sS'test/data/mypypa-0.1.0-py2.5.zip'
p199
I1
sS'astroid/tests/testdata/python3/data/find_test/nonregr.py'
p200
I1
sS'announce.txt'
p201
I1
sS'test/data_py3/nonregr.py'
p202
I2
sS'astroid/tests/regrtest_data/absimp/__init__.py'
p203
I2
sS'astroid/tests/data_py3/ssl1/__init__.py'
p204
I2
sS'test/data_py3/module.py'
p205
I2
sS'astroid/tests/testdata/python2/data/noendingnewline.py'
p206
I1
sS'astroid/tests/data/__init__.py'
p207
I2
sS'test/data/find_test/__init__.py'
p208
I1
sS'astroid/tests/testdata/python2/data/absimp/string.py'
p209
I1
sS'astroid/tests/testdata/python3/data/mypypa-0.1.0-py2.5.zip'
p210
I1
sS'astroid/mixins.py'
p211
I1
sS'astroid/tests/testdata/python3/data/absimp/string.py'
p212
I1
sS'__pkginfo__.py'
p213
I4
sS'astroid/tests/testdata/python2/data/find_test/nonregr.py'
p214
I1
sS'astroid/tests/data/module.py'
p215
I2
sS'astroid/tests/testdata/python3/data/module.py'
p216
I1
sS'astroid/tests/regrtest_data/package/import_package_subpackage_module.py'
p217
I2
sS'astroid/tests/data/module2.py'
p218
I2
sS'astroid/tests/unittest_inspector.py'
p219
I2
sS'astroid/tests/testdata/python3/data/nonregr.py'
p220
I1
sS'astroid/tests/testdata/python3/data/unicode_package/__init__.py'
p221
I1
sS'astroid/tests/testdata/python3/data/email.py'
p222
I1
sS'astroid/tests/data_py3/noendingnewline.py'
p223
I2
sS'astroid/tests/testdata/python3/data/absimport.py'
p224
I1
sS'astroid/modutils.py'
p225
I5
sS'astroid/tests/testdata/python2/data/email.py'
p226
I1
sS'astroid/tests/testdata/python2/data/absimport.py'
p227
I1
sS'astroid/tests/testdata/python2/data/module1abs/__init__.py'
p228
I1
sS'astroid/tests/data_py3/lmfp/foo.py'
p229
I2
sS'test/regrtest_data/package/hello.py'
p230
I1
sS'astroid/node_classes.py'
p231
I1
sS'brain/py2mechanize.py'
p232
I1
sS'astroid/tests/resources.py'
p233
I2
sS'readme'
p234
I1
sS'astroid/tests/testdata/python2/data/__init__.py'
p235
I1
sS'astroid/tests/data_py3/nonregr.py'
p236
I2
sS'brain/py2pytest.py'
p237
I1
sS'test/data/module2.py'
p238
I1
sS'test/data_py3/format.py'
p239
I2
sS'astroid/tests/regrtest_data/package/hello.py'
p240
I2
sS'test/regrtest_data/absimp/string.py'
p241
I2
sS'astroid/tests/testdata/python2/data/package/subpackage/module.py'
p242
I1
sS'astroid/tests/testdata/python2/data/find_test/module.py'
p243
I1
sS'test/unittest_inspector.py'
p244
I2
sS'astroid/tests/data/absimport.py'
p245
I2
sS'test/unittest_builder.py'
p246
I3
sS'astroid/tests/unittest_nodes.py'
p247
I3
sS'astroid/tests/data/find_test/module.py'
p248
I2
sS'node_classes.py'
p249
I1
sS'astroid/tests/testdata/python2/data/all.py'
p250
I1
sS'astroid/tests/testdata/python2/data/absimp/__init__.py'
p251
I1
sS'test/data/module1abs/__init__.py'
p252
I1
sS'test/regrtest_data/unicode_package/core/__init__.py'
p253
I1
sS'.hgignore'
p254
I1
sS'astroid/tests/unittest_modutils.py'
p255
I6
sS'test/regrtest_data/package/subpackage/module.py'
p256
I1
sS'test/data_py3/noendingnewline.py'
p257
I2
sS'astroid/tests/data_py3/format.py'
p258
I2
sS'astroid/tests/testdata/python2/data/format.py'
p259
I1
sS'test/regrtest_data/descriptor_crash.py'
p260
I1
sS'astroid/tests/testdata/python2/data/appl/myconnection.py'
p261
I1
sS'astroid/tests/testdata/python2/data/ssl1/__init__.py'
p262
I1
sS'test/unittest_brain.py'
p263
I4
sS'test/regrtest_data/absimp/sidepackage/__init__.py'
p264
I1
sS'test/unittest_regrtest.py'
p265
I3
sS'test/data_py3/module2.py'
p266
I3
sS'astroid/tests/data_py3/__init__.py'
p267
I2
sS'astroid/tests/testdata/python2/data/module1abs/core.py'
p268
I1
sS'inspector.py'
p269
I1
sS'test/data/all.py'
p270
I1
sS'test/data_py3/mypypa-0.1.0-py2.5.zip'
p271
I2
sS'test/data_py3/notall.py'
p272
I2
sS'astroid/tests/testdata/python3/data/noendingnewline.py'
p273
I1
sS'test/unittest_lookup.py'
p274
I3
sS'astroid/tests/testdata/python3/data/find_test/module.py'
p275
I1
sS'astroid/tests/unittest_inference.py'
p276
I6
sS'astroid/tests/testdata/python2/data/lmfp/foo.py'
p277
I1
sS'astroid/tests/testdata/python2/data/package/absimport.py'
p278
I1
sS'test/data2/clientmodule_test.py'
p279
I1
sS'astroid/tests/testdata/python3/data/ssl1/__init__.py'
p280
I1
sS'astroid/tests/data_py3/mypypa-0.1.0-py2.5.egg'
p281
I2
sS'brain/py2stdlib.py'
p282
I2
sS'astroid/tests/testdata/python3/data/module2.py'
p283
I1
sS'astroid/tests/data/lmfp/__init__.py'
p284
I2
sS'scoped_nodes.py'
p285
I5
sS'astroid/manager.py'
p286
I6
sS'astroid/tests/regrtest_data/absimp/string.py'
p287
I2
sS'astroid/tests/testdata/python3/data/lmfp/foo.py'
p288
I1
sS'astroid/bases.py'
p289
I1
sS'modutils.py'
p290
I1
sS'astroid/tests/data/format.py'
p291
I2
sS'astroid/tests/data_py3/ssl1/connection1.py'
p292
I2
sS'astroid/brain/py2stdlib.py'
p293
I3
sS'astroid/tests/data/find_test/nonregr.py'
p294
I2
sS'astroid/tests/testdata/python2/data/find_test/module2.py'
p295
I1
sS'test/data/mypypa-0.1.0-py2.5.egg'
p296
I1
sS'astroid/brain/py2mechanize.py'
p297
I2
sS'astroid/raw_building.py'
p298
I1
sS'test/regrtest_data/package/import_package_subpackage_module.py'
p299
I1
sS'astroid/tests/testdata/python3/data/package/absimport.py'
p300
I1
sS'astroid/tests/data_py3/find_test/noendingnewline.py'
p301
I2
sS'astroid/tests/data_py3/find_test/__init__.py'
p302
I2
sS'astroid/tests/unittest_brain.py'
p303
I2
sS'astroid/tests/testdata/python2/data/package/subpackage/__init__.py'
p304
I1
sS'astroid/tests/unittest_manager.py'
p305
I5
sS'astroid/as_string.py'
p306
I2
sS'astroid/tests/testdata/python2/data/suppliermodule_test.py'
p307
I1
sS'test/data_py3/find_test/module.py'
p308
I2
sS'test_utils.py'
p309
I2
sS'test/data/format.py'
p310
I1
sS'astroid/tests/testdata/python3/data/suppliermodule_test.py'
p311
I1
sS'astroid/tests/regrtest_data/unicode_package/__init__.py'
p312
I2
sS'astroid/tests/data_py3/appl/myconnection.py'
p313
I2
sS'astroid/tests/data/ssl1/__init__.py'
p314
I2
sS'test/fulltest.sh'
p315
I1
sS'astroid/tests/data/module1abs/core.py'
p316
I2
sS'astroid/tests/testdata/python3/data/package/subpackage/module.py'
p317
I1
sS'bases.py'
p318
I1
sS'test/data/find_test/noendingnewline.py'
p319
I1
sS'astroid/scoped_nodes.py'
p320
I6
sS'test/data/module.py'
p321
I1
sS'test/data/email.py'
p322
I1
sS'astroid/tests/data_py3/find_test/module2.py'
p323
I2
sS'astroid/tests/testdata/python3/data/appl/myconnection.py'
p324
I1
sS'astroid/tests/testdata/python2/data/package/import_package_subpackage_module.py'
p325
I1
sS'test/data/module1abs/core.py'
p326
I1
sS'astroid/tests/data/lmfp/foo.py'
p327
I2
sS'test/data_py3/module1abs/__init__.py'
p328
I2
sS'astroid/tests/testdata/python2/data/appl/__init__.py'
p329
I1
sS'astroid/tests/testdata/python3/data/recursion.py'
p330
I1
sS'test/data/nonregr.py'
p331
I1
sS'test/data/ssl1/__init__.py'
p332
I1
sS'astroid/tests/data_py3/module2.py'
p333
I2
sS'astroid/tests/testdata/python3/data/appl/__init__.py'
p334
I1
sS'astroid/tests/testdata/python2/data/module2.py'
p335
I1
sS'astroid/tests/testdata/python2/data/mypypa-0.1.0-py2.5.zip'
p336
I1
sS'astroid/tests/testdata/python3/data/package/hello.py'
p337
I1
sS'protocols.py'
p338
I1
sS'astroid/tests/testdata/python2/data/descriptor_crash.py'
p339
I1
sS'astroid/tests/regrtest_data/package/__init__.py'
p340
I2
sS'test/data_py3/email.py'
p341
I2
sS'test/data_py3/mypypa-0.1.0-py2.5.egg'
p342
I2
sS'test/regrtest_data/package/subpackage/__init__.py'
p343
I1
sS'inference.py'
p344
I1
sS'test/data/lmfp/foo.py'
p345
I1
sS'astroid/tests/data_py3/mypypa-0.1.0-py2.5.zip'
p346
I2
sS'astroid/tests/testdata/python2/data/clientmodule_test.py'
p347
I1
sS'test/unittest_raw_building.py'
p348
I2
sS'astroid/__pkginfo__.py'
p349
I4
sS'astroid/rebuilder.py'
p350
I1
sS'astroid/tests/data/find_test/noendingnewline.py'
p351
I2
sS'astroid/tests/data/noendingnewline.py'
p352
I2
sS'test/data2/suppliermodule_test.py'
p353
I1
sS'astroid/tests/testdata/python3/data/clientmodule_test.py'
p354
I1
sS'astroid/tests/testdata/python2/data/recursion.py'
p355
I1
sS'test/unittest_python3.py'
p356
I2
sS'astroid/tests/data_py3/module1abs/core.py'
p357
I2
sS'doc/release.txt'
p358
I2
sS'astroid/tests/data2/clientmodule_test.py'
p359
I2
sS'astroid/inference.py'
p360
I1
sS'astroid/tests/regrtest_data/recursion.py'
p361
I2
sS'astroid/tests/data_py3/email.py'
p362
I2
sS'astroid/tests/data2/__init__.py'
p363
I2
sS'astroid/tests/testdata/python3/data/module1abs/core.py'
p364
I1
sS'test/data/noendingnewline.py'
p365
I1
sS'test/data2/__init__.py'
p366
I1
sS'tox.ini'
p367
I15
sS'astroid/tests/data/all.py'
p368
I2
sS'astroid/tests/data_py3/lmfp/__init__.py'
p369
I2
sS'test/data/notall.py'
p370
I1
sS'astroid/tests/regrtest_data/absimp/sidepackage/__init__.py'
p371
I2
sS'astroid/tests/testdata/python3/data/find_test/noendingnewline.py'
p372
I1
sS'astroid/test_utils.py'
p373
I3
sS'astroid/tests/testdata/python2/data/package/hello.py'
p374
I1
sS'astroid/tests/regrtest_data/package/subpackage/module.py'
p375
I2
sS'astroid/tests/testdata/python3/data/format.py'
p376
I1
sS'astroid/tests/data/appl/__init__.py'
p377
I2
sS'astroid/tests/data/find_test/module2.py'
p378
I2
sS'test/unittest_utils.py'
p379
I2
sS'astroid/tests/__init__.py'
p380
I1
sS'astroid/tests/testdata/python2/data/unicode_package/core/__init__.py'
p381
I1
sS'astroid/tests/testdata/python3/data/notall.py'
p382
I1
sS'test/unittest_scoped_nodes.py'
p383
I4
sS'astroid/tests/unittest_utils.py'
p384
I1
sS'test/data/__init__.py'
p385
I1
sS'test/data/lmfp/__init__.py'
p386
I1
sS'exceptions.py'
p387
I1
sS'test/data_py3/all.py'
p388
I2
sS'astroid/tests/testdata/python3/data/package/subpackage/__init__.py'
p389
I1
sS'astroid/tests/testdata/python2/data/unicode_package/__init__.py'
p390
I1
sS'astroid/tests/testdata/python2/data/absimp/sidepackage/__init__.py'
p391
I1
sS'astroid/tests/testdata/python2/data/module.py'
p392
I1
sS'test/data/find_test/nonregr.py'
p393
I1
sS'test/data_py3/find_test/nonregr.py'
p394
I2
sS'manifest.in'
p395
I4
sS'astroid/tests/testdata/python3/data/all.py'
p396
I1
sS'astroid/tests/data_py3/absimport.py'
p397
I2
sS'astroid/tests/testdata/python3/data/package/__init__.py'
p398
I1
sS'test/regrtest_data/recursion.py'
p399
I1
sS'test/data/find_test/module2.py'
p400
I1
sS'astroid/tests/testdata/python2/data/package/__init__.py'
p401
I1
sS'test/data_py3/ssl1/connection1.py'
p402
I2
sS'astroid/tests/data/mypypa-0.1.0-py2.5.zip'
p403
I2
sS'astroid/tests/unittest_scoped_nodes.py'
p404
I5
sS'readme.python3'
p405
I1
sS'astroid/tests/data/appl/myconnection.py'
p406
I2
sS'test/unittest_nodes.py'
p407
I2
sS'astroid/tests/testdata/python3/data/find_test/__init__.py'
p408
I1
sS'astroid/utils.py'
p409
I1
sS'test/regrtest_data/package/absimport.py'
p410
I2
sS'test/data/absimport.py'
p411
I1
sS'rebuilder.py'
p412
I1
sS'astroid/tests/data_py3/appl/__init__.py'
p413
I2
sS'__init__.py'
p414
I1
sS'test/data_py3/find_test/noendingnewline.py'
p415
I2
sS'test/regrtest_data/unicode_package/__init__.py'
p416
I1
sS'astroid/tests/unittest_python3.py'
p417
I1
sS'manager.py'
p418
I3
sS'test/data_py3/module1abs/core.py'
p419
I2
sS'test/data_py3/appl/myconnection.py'
p420
I2
sS'astroid/tests/testdata/python3/data/lmfp/__init__.py'
p421
I1
ssS'brycepg'
p422
g1
(g5
tRp423
S'tox.ini'
p424
I2
sS'astroid/interpreter/objectmodel.py'
p425
I1
sS'setup.cfg'
p426
I1
sS'changelog'
p427
I2
sS'astroid/brain/brain_attrs.py'
p428
I1
sS'astroid/tests/unittest_brain.py'
p429
I1
sS'astroid/scoped_nodes.py'
p430
I1
sS'astroid/tests/unittest_builder.py'
p431
I1
sS'astroid/tests/unittest_scoped_nodes.py'
p432
I1
ssS'jayvdb'
p433
g1
(g5
tRp434
S'astroid/tests/testdata/python3/data/module.py'
p435
I1
sS'astroid/tests/testdata/python2/data/appl/myconnection.py'
p436
I1
ssS'ovidiusabou'
p437
g1
(g5
tRp438
S'astroid/raw_building.py'
p439
I1
ssS'hugovk'
p440
g1
(g5
tRp441
S'tox.ini'
p442
I1
sS'astroid/brain/brain_namedtuple_enum.py'
p443
I1
sS'astroid/brain/brain_subprocess.py'
p444
I1
sS'astroid/tests/unittest_inference.py'
p445
I1
sS'.travis.yml'
p446
I1
sS'astroid/interpreter/_import/spec.py'
p447
I2
sS'.gitignore'
p448
I1
sS'astroid/rebuilder.py'
p449
I1
sS'appveyor.yml'
p450
I1
sS'readme.rst'
p451
I1
sS'astroid/tests/unittest_python3.py'
p452
I1
sS'setup.py'
p453
I1
sS'astroid/tests/unittest_manager.py'
p454
I2
sS'astroid/__pkginfo__.py'
p455
I2
ssS'obsc'
p456
g1
(g5
tRp457
S'astroid/scoped_nodes.py'
p458
I2
sS'astroid/tests/unittest_inference.py'
p459
I1
sS'astroid/brain/builtin_inference.py'
p460
I1
sS'astroid/tests/unittest_scoped_nodes.py'
p461
I1
ssS'royw'
p462
g1
(g5
tRp463
S'astroid/brain/brain_qt.py'
p464
I1
ssS'biogeek'
p465
g1
(g5
tRp466
S'astroid/manager.py'
p467
I1
ssS'ceridwen'
p468
g1
(g5
tRp469
S'astroid/exceptions.py'
p470
I4
sS'astroid/tests/unittest_lookup.py'
p471
I7
sS'astroid/brain/brain_pkg_resources.py'
p472
I2
sS'astroid/tests/unittest_inference.py'
p473
I19
sS'astroid/brain/brain_numpy.py'
p474
I2
sS'astroid/nodes.py'
p475
I9
sS'astroid/brain/brain_qt.py'
p476
I1
sS'astroid/tests/unittest_objects.py'
p477
I6
sS'astroid/tests/unittest_peephole.py'
p478
I3
sS'astroid/protocols.py'
p479
I13
sS'astroid/brain/builtin_inference.py'
p480
I5
sS'astroid/inference.py'
p481
I17
sS'astroid/brain/brain_ssl.py'
p482
I1
sS'astroid/brain/brain_dateutil.py'
p483
I1
sS'astroid/tests/testdata/python2/data/notamodule/file.py'
p484
I1
sS'astroid/brain/brain_mechanize.py'
p485
I1
sS'astroid/manager.py'
p486
I12
sS'astroid/tests/unittest_transforms.py'
p487
I4
sS'pylintrc'
p488
I1
sS'astroid/raw_building.py'
p489
I4
sS'tox.ini'
p490
I28
sS'astroid/util.py'
p491
I7
sS'astroid/bases.py'
p492
I24
sS'astroid/tests/unittest_regrtest.py'
p493
I6
sS'astroid/brain/py2stdlib.py'
p494
I4
sS'astroid/brain/pysix_moves.py'
p495
I4
sS'astroid/test_utils.py'
p496
I7
sS'astroid/tests/unittest_protocols.py'
p497
I6
sS'astroid/arguments.py'
p498
I7
sS'astroid/tests/testdata/python3/data/notamodule/file.py'
p499
I1
sS'astroid/brain/brain_six.py'
p500
I3
sS'astroid/tests/unittest_raw_building.py'
p501
I2
sS'astroid/node_classes.py'
p502
I22
sS'astroid/tests/__init__.py'
p503
I1
sS'astroid/tests/resources.py'
p504
I1
sS'readme'
p505
I1
sS'astroid/tests/unittest_utils.py'
p506
I1
sS'astroid/rebuilder.py'
p507
I13
sS'astroid/decorators.py'
p508
I11
sS'astroid/transforms.py'
p509
I2
sS'astroid/__init__.py'
p510
I8
sS'astroid/as_string.py'
p511
I8
sS'astroid/tests/unittest_modutils.py'
p512
I3
sS'astroid/brain/brain_nose.py'
p513
I1
sS'astroid/context.py'
p514
I5
sS'astroid/scoped_nodes.py'
p515
I31
sS'astroid/tests/unittest_builder.py'
p516
I9
sS'astroid/modutils.py'
p517
I3
sS'astroid/objects.py'
p518
I10
sS'astroid/brain/py2gi.py'
p519
I3
sS'astroid/builder.py'
p520
I10
sS'astroid/brain/brain_builtin_inference.py'
p521
I6
sS'astroid/tests/unittest_scoped_nodes.py'
p522
I12
sS'changelog'
p523
I6
sS'astroid/tests/testdata/python3/data/module.py'
p524
I1
sS'astroid/interpreter/objectmodel.py'
p525
I1
sS'astroid/tests/unittest_nodes.py'
p526
I14
sS'astroid/tests/unittest_helpers.py'
p527
I6
sS'astroid/tests/unittest_manager.py'
p528
I5
sS'astroid/tests/unittest_brain.py'
p529
I11
sS'astroid/brain/brain_stdlib.py'
p530
I5
sS'astroid/mixins.py'
p531
I10
sS'astroid/tests/testdata/python2/data/module.py'
p532
I1
sS'astroid/tests/unittest_python3.py'
p533
I2
sS'astroid/brain/brain_pytest.py'
p534
I1
sS'astroid/astpeephole.py'
p535
I2
sS'astroid/brain/brain_gi.py'
p536
I2
sS'astroid/__pkginfo__.py'
p537
I5
sS'astroid/helpers.py'
p538
I8
ssS'radowit'
p539
g1
(g5
tRp540
S'astroid/tests/unittest_modutils.py'
p541
I3
sS'tox.ini'
p542
I2
sS'astroid/modutils.py'
p543
I3
sS'astroid/tests/testdata/python2/data/notamodule/file.py'
p544
I1
sS'astroid/tests/testdata/python3/data/notamodule/file.py'
p545
I1
sS'astroid/__pkginfo__.py'
p546
I1
ssS'living180'
p547
g1
(g5
tRp548
S'nodes_as_string.py'
p549
I2
sS'nodes.py'
p550
I3
sS'node_classes.py'
p551
I3
sS'test/unittest_lookup.py'
p552
I2
sS'_nodes_ast.py'
p553
I2
sS'utils.py'
p554
I2
sS'scoped_nodes.py'
p555
I2
ssS'rr-'
p556
g1
(g5
tRp557
S'changelog'
p558
I1
sS'astroid/nodes.py'
p559
I1
sS'astroid/tests/unittest_nodes.py'
p560
I1
sS'astroid/protocols.py'
p561
I1
sS'astroid/node_classes.py'
p562
I1
sS'astroid/rebuilder.py'
p563
I1
sS'astroid/as_string.py'
p564
I1
ssS'invalid-email-address'
p565
g1
(g5
tRp566
S'test/data/ssl1/connection1.py'
p567
I1
sS'debian/control'
p568
I1
sS'test/regrtest_data/package/__init__.py'
p569
I1
sS'test/data/ssl1/__init__.py'
p570
I1
sS'test/data2/suppliermodule_test.py'
p571
I1
sS'test/data2/clientmodule_test.py'
p572
I1
sS'debian/python-logilab-astng.dirs'
p573
I1
sS'test/unittest_inference.py'
p574
I1
sS'__pkginfo__.py'
p575
I1
sS'test/unittest_manager.py'
p576
I1
sS'scoped_nodes.py'
p577
I2
sS'debian/python-logilab-astng.prerm'
p578
I1
sS'test/data2/__init__.py'
p579
I1
sS'test/data/notall.py'
p580
I1
sS'astroid/brain/py2stdlib.py'
p581
I2
sS'inspector.py'
p582
I1
sS'test/regrtest_data/descriptor_crash.py'
p583
I1
sS'manager.py'
p584
I1
sS'astroid/node_classes.py'
p585
I2
sS'astroid/utils.py'
p586
I1
sS'test/unittest_scoped_nodes.py'
p587
I2
sS'test/data/__init__.py'
p588
I1
sS'test/data/module.py'
p589
I1
sS'astroid/as_string.py'
p590
I1
sS'test/data/appl/__init__.py'
p591
I1
sS'astroid/scoped_nodes.py'
p592
I1
sS'test/data/noendingnewline.py'
p593
I1
sS'depends'
p594
I1
sS'_exceptions.py'
p595
I1
sS'test/fulltest.sh'
p596
I1
sS'test/unittest_inspector.py'
p597
I1
sS'manifest.in'
p598
I1
sS'test/unittest_builder.py'
p599
I2
sS'readme'
p600
I1
sS'builder.py'
p601
I2
sS'debian/rules'
p602
I1
sS'test/unittest_lookup.py'
p603
I1
sS'debian/watch'
p604
I1
sS'utils.py'
p605
I1
sS'test/regrtest_data/import_package_subpackage_module.py'
p606
I1
sS'setup.py'
p607
I1
sS'test/data/nonregr.py'
p608
I1
sS'raw_building.py'
p609
I1
sS'test/runtests.py'
p610
I1
sS'test/regrtest_data/package/subpackage/module.py'
p611
I1
sS'debian/copyright'
p612
I1
sS'test/unittest_nodes.py'
p613
I1
sS'changelog'
p614
I3
sS'debian/changelog'
p615
I1
sS'nodes.py'
p616
I1
sS'announce.txt'
p617
I1
sS'astroid/tests/testdata/python3/data/module2.py'
p618
I1
sS'__init__.py'
p619
I1
sS'astroid/tests/unittest_brain.py'
p620
I1
sS'test/regrtest_data/package/subpackage/__init__.py'
p621
I1
sS'debian/python-logilab-astng.postinst'
p622
I1
sS'inference.py'
p623
I1
sS'test/regrtest.py'
p624
I1
sS'test/data/appl/myconnection.py'
p625
I1
sS'lookup.py'
p626
I1
sS'.hgignore'
p627
I1
sS'test/data/module2.py'
p628
I1
sS'test/data/all.py'
p629
I1
ssS'hippo91'
p630
g1
(g5
tRp631
S'astroid/tests/unittest_brain.py'
p632
I1
sS'astroid/brain/brain_numpy.py'
p633
I3
sS'astroid/tests/unittest_brain_numpy.py'
p634
I6
ssS'dashea'
p635
g1
(g5
tRp636
S'astroid/brain/py2gi.py'
p637
I2
sS'astroid/brain/py2stdlib.py'
p638
I1
sS'astroid/brain/brain_gi.py'
p639
I1
ssS'imih'
p640
g1
(g5
tRp641
S'astroid/manager.py'
p642
I1
ssS'douardda'
p643
g1
(g5
tRp644
S'debian/control'
p645
I1
sS'debian.sid/rules'
p646
I1
sS'test/unittest_python3.py'
p647
I1
sS'bases.py'
p648
I1
sS'debian/python-logilab-astng.dirs'
p649
I1
sS'mixins.py'
p650
I1
sS'brain/py2stdlib.py'
p651
I1
sS'test/unittest_inference.py'
p652
I1
sS'__pkginfo__.py'
p653
I1
sS'test/unittest_manager.py'
p654
I1
sS'scoped_nodes.py'
p655
I1
sS'as_string.py'
p656
I1
sS'debian.intrepid/rules'
p657
I1
sS'rebuilder.py'
p658
I1
sS'inspector.py'
p659
I1
sS'test/regrtest_data/package/import_package_subpackage_module.py'
p660
I1
sS'test/unittest_utils.py'
p661
I1
sS'brain/py2mechanize.py'
p662
I1
sS'brain/py2qt4.py'
p663
I1
sS'test/unittest_scoped_nodes.py'
p664
I1
sS'debian.lenny/rules'
p665
I1
sS'setup.py'
p666
I1
sS'exceptions.py'
p667
I1
sS'debian.intrepid/preinst'
p668
I1
sS'test/unittest_inspector.py'
p669
I1
sS'debian.sid/control'
p670
I1
sS'debian.lenny/preinst'
p671
I1
sS'test/unittest_builder.py'
p672
I1
sS'readme'
p673
I1
sS'test/data/module.py'
p674
I1
sS'debian/rules'
p675
I1
sS'test/unittest_lookup.py'
p676
I1
sS'debian/watch'
p677
I1
sS'utils.py'
p678
I1
sS'debian/python-astroid.dirs'
p679
I1
sS'raw_building.py'
p680
I1
sS'test/unittest_nodes.py'
p681
I1
sS'protocols.py'
p682
I1
sS'debian/copyright'
p683
I1
sS'nodes.py'
p684
I1
sS'changelog'
p685
I1
sS'builder.py'
p686
I1
sS'__init__.py'
p687
I1
sS'test/unittest_regrtest.py'
p688
I1
sS'node_classes.py'
p689
I1
sS'inference.py'
p690
I1
sS'manager.py'
p691
I1
ssS'balparda'
p692
g1
(g5
tRp693
S'astroid/scoped_nodes.py'
p694
I1
sS'astroid/builder.py'
p695
I1
sS'astroid/tests/unittest_builder.py'
p696
I1
sS'astroid/tests/unittest_scoped_nodes.py'
p697
I1
ssS'raylu'
p698
g1
(g5
tRp699
S'astroid/tests/unittest_brain.py'
p700
I1
sS'astroid/brain/pydateutil.py'
p701
I1
ssS'mic92'
p702
g1
(g5
tRp703
S'.travis.yml'
p704
I1
ssS'emile.anclin@logilab.fr'
p705
g1
(g5
tRp706
S'patchcomptransformer.py'
p707
I7
sS'debian/control'
p708
I5
sS'_exceptions.py'
p709
I6
sS'test/regrtest_data/package/absimport.py'
p710
I2
sS'test/__init__.py'
p711
I1
sS'readme._ast_compatibility'
p712
I2
sS'bases.py'
p713
I23
sS'mixins.py'
p714
I11
sS'test/unittest_inference.py'
p715
I30
sS'readme.python3'
p716
I1
sS'__pkginfo__.py'
p717
I9
sS'test/unittest_manager.py'
p718
I10
sS'_inference_compiler.py'
p719
I2
sS'scoped_nodes.py'
p720
I90
sS'as_string.py'
p721
I12
sS'todo'
p722
I1
sS'readme._ast_compatibily'
p723
I2
sS'todo._ast_compat'
p724
I7
sS'test/data2/__init__.py'
p725
I1
sS'rebuilder.py'
p726
I89
sS'infutils.py'
p727
I9
sS'inspector.py'
p728
I10
sS'debian.py3k/source/format'
p729
I1
sS'astutils.py'
p730
I1
sS'debian.py3k/control'
p731
I2
sS'test/regrtest_data/package/hello.py'
p732
I1
sS'test/unittest_utils.py'
p733
I3
sS'.hgtags'
p734
I13
sS'test/unittest_scoped_nodes.py'
p735
I22
sS'test/test_encoding.py'
p736
I2
sS'setup.py'
p737
I3
sS'debian/changelog'
p738
I8
sS'test/regrtest_data/package/import_package_subpackage_module.py'
p739
I1
sS'test/data/module2.py'
p740
I5
sS'_inference_ast.py'
p741
I1
sS'test/unittest_inspector.py'
p742
I5
sS'manifest.in'
p743
I2
sS'test/unittest_builder.py'
p744
I36
sS'readme'
p745
I4
sS'builder.py'
p746
I59
sS'node_classes.py'
p747
I61
sS'test/unittest_lookup.py'
p748
I10
sS'debian.py3k/rules'
p749
I1
sS'utils.py'
p750
I36
sS'test/regrtest_data/import_package_subpackage_module.py'
p751
I1
sS'raw_building.py'
p752
I15
sS'debian/copyright'
p753
I1
sS'test/unittest_nodes.py'
p754
I24
sS'protocols.py'
p755
I22
sS'changelog'
p756
I13
sS'exceptions.py'
p757
I1
sS'nodes.py'
p758
I98
sS'nodes_as_string.py'
p759
I22
sS'_nodes.py'
p760
I16
sS'test/data/module.py'
p761
I3
sS'__init__.py'
p762
I12
sS'_nodes_compiler.py'
p763
I144
sS'test/regrtest_data/absimp/sidepackage/__init__.py'
p764
I1
sS'test/unittest_regrtest.py'
p765
I7
sS'inference.py'
p766
I39
sS'test/regrtest_data/absimport.py'
p767
I1
sS'test/regrtest.py'
p768
I1
sS'_nodes_ast.py'
p769
I116
sS'lookup.py'
p770
I23
sS'manager.py'
p771
I18
sS'test/regrtest_data/absimp/__init__.py'
p772
I1
ssS'eevee'
p773
g1
(g5
tRp774
S'test/unittest_modutils.py'
p775
I1
sS'test/unittest_python3.py'
p776
I1
sS'bases.py'
p777
I7
sS'doc/release.txt'
p778
I1
sS'mixins.py'
p779
I2
sS'brain/py2stdlib.py'
p780
I2
sS'test/unittest_inference.py'
p781
I2
sS'__pkginfo__.py'
p782
I1
sS'test/unittest_manager.py'
p783
I1
sS'scoped_nodes.py'
p784
I6
sS'as_string.py'
p785
I1
sS'test/data/find_test/module.py'
p786
I1
sS'modutils.py'
p787
I2
sS'rebuilder.py'
p788
I3
sS'inspector.py'
p789
I1
sS'.hgtags'
p790
I1
sS'test/unittest_scoped_nodes.py'
p791
I3
sS'test/data/lmfp/__init__.py'
p792
I1
sS'test/data/lmfp/foo.py'
p793
I1
sS'test/data/find_test/nonregr.py'
p794
I1
sS'test/data/find_test/noendingnewline.py'
p795
I1
sS'test/data/module.py'
p796
I1
sS'node_classes.py'
p797
I3
sS'builder.py'
p798
I1
sS'test/data/find_test/module2.py'
p799
I1
sS'test/data/module1abs/core.py'
p800
I1
sS'test/data/module1abs/__init__.py'
p801
I1
sS'utils.py'
p802
I1
sS'raw_building.py'
p803
I1
sS'test_utils.py'
p804
I1
sS'test/unittest_nodes.py'
p805
I3
sS'protocols.py'
p806
I3
sS'changelog'
p807
I1
sS'test/data/find_test/__init__.py'
p808
I1
sS'__init__.py'
p809
I1
sS'test/unittest_regrtest.py'
p810
I2
sS'inference.py'
p811
I3
sS'manager.py'
p812
I2
ssS'dmand'
p813
g1
(g5
tRp814
S'astroid/brain/brain_stdlib.py'
p815
I1
sS'astroid/protocols.py'
p816
I2
sS'astroid/inference.py'
p817
I1
sS'astroid/tests/unittest_inference.py'
p818
I2
ssS'marienz@gentoo.org'
p819
g1
(g5
tRp820
S'test/unittest_inference.py'
p821
I2
sS'test/regrtest.py'
p822
I1
ssS'pcmanticore'
p823
g1
(g5
tRp824
S'astroid/exceptions.py'
p825
I17
sS'astroid/brain/pydateutil.py'
p826
I3
sS'astroid/tests/unittest_lookup.py'
p827
I13
sS'astroid/tests/testdata/python3/data/namespace_pep_420/module.py'
p828
I2
sS'test/unittest_modutils.py'
p829
I4
sS'astroid/brain/brain_io.py'
p830
I1
sS'astroid/nodes.py'
p831
I11
sS'astroid/brain/brain_typing.py'
p832
I1
sS'mixins.py'
p833
I2
sS'brain/py2gi.py'
p834
I3
sS'test/unittest_inference.py'
p835
I17
sS'astroid/protocols.py'
p836
I49
sS'astroid/brain/brain_ssl.py'
p837
I3
sS'test/unittest_manager.py'
p838
I3
sS'astroid/tests/unittest_transforms.py'
p839
I8
sS'as_string.py'
p840
I7
sS'astroid/tests/testdata/python2/data/module1abs/__init__.py'
p841
I1
sS'astroid/brain/pynumpy.py'
p842
I3
sS'astroid/tests/unittest_regrtest.py'
p843
I26
sS'astroid/tests/unittest_raw_building.py'
p844
I13
sS'astroid/tests/testdata/python2/data/suppliermodule_test.py'
p845
I1
sS'astroid/tests/unittest_protocols.py'
p846
I12
sS'.gitignore'
p847
I2
sS'astroid/tests/testdata/python3/data/path_pkg_resources_2/package/bar.py'
p848
I1
sS'astroid/brain/brain_subprocess.py'
p849
I5
sS'.hgtags'
p850
I10
sS'astroid/brain/_numpy.py'
p851
I2
sS'test/fulltest.sh'
p852
I3
sS'setup.py'
p853
I8
sS'astroid/decorators.py'
p854
I9
sS'doc/make.bat'
p855
I1
sS'astroid/__init__.py'
p856
I13
sS'astroid/tests/testdata/python2/data/ssl1/connection1.py'
p857
I1
sS'astroid/tests/testdata/python2/data/path_pkgutil_1/package/foo.py'
p858
I1
sS'astroid/tests/testdata/python3/data/foogle_fax-0.12.5-py2.7-nspkg.pth'
p859
I1
sS'astroid/brain/brain_numpy.py'
p860
I3
sS'astroid/brain/brain_pytest.py'
p861
I3
sS'astroid/brain/brain_attrs.py'
p862
I2
sS'astroid/inspector.py'
p863
I1
sS'astroid/brain/pyqt.py'
p864
I2
sS'astroid/tests/unittest_object_model.py'
p865
I15
sS'readme'
p866
I4
sS'builder.py'
p867
I5
sS'astroid/tests/unittest_builder.py'
p868
I30
sS'utils.py'
p869
I1
sS'astroid/builder.py'
p870
I29
sS'astroid/brain/_gi.py'
p871
I2
sS'astroid/brain/_dateutil.py'
p872
I2
sS'raw_building.py'
p873
I10
sS'astroid/brain/py2qt4.py'
p874
I1
sS'astroid/tests/testdata/python2/data/path_pkg_resources_1/package/foo.py'
p875
I1
sS'changelog'
p876
I196
sS'astroid/tests/testdata/python3/data/foogle/fax/__init__.py'
p877
I1
sS'astroid/interpreter/__init__.py'
p878
I4
sS'astroid/brain/py2gi.py'
p879
I5
sS'astroid/interpreter/_import/__init__.py'
p880
I1
sS'readme.rst'
p881
I7
sS'doc/conf.py'
p882
I2
sS'.hgignore'
p883
I2
sS'astroid/tests/testdata/python2/data/nonregr.py'
p884
I1
sS'astroid/brain/brain_fstrings.py'
p885
I2
sS'astroid/tests/testdata/python3/data/path_pkgutil_3/package/__init__.py'
p886
I1
sS'astroid/tests/testdata/python3/data/path_pkgutil_2/package/__init__.py'
p887
I1
sS'.travis.yml'
p888
I6
sS'bases.py'
p889
I4
sS'astroid/tests/unittest_objects.py'
p890
I14
sS'astroid/mixins.py'
p891
I13
sS'.github/issue_template.md'
p892
I1
sS'__pkginfo__.py'
p893
I7
sS'astroid/brain/brain_threading.py'
p894
I3
sS'astroid/brain/brain_mechanize.py'
p895
I3
sS'astroid/tests/testdata/python3/data/path_pkgutil_1/package/foo.py'
p896
I1
sS'astroid/tests/testdata/python2/data/path_pkgutil_2/package/bar.py'
p897
I1
sS'rebuilder.py'
p898
I26
sS'astroid/modutils.py'
p899
I37
sS'doc/inference.rst'
p900
I2
sS'astroid/brain/brain_six.py'
p901
I5
sS'astroid/tests/testdata/python2/data/path_pkg_resources_2/package/__init__.py'
p902
I1
sS'astroid/node_classes.py'
p903
I61
sS'.github/pull_request_template.md'
p904
I1
sS'astroid/tests/resources.py'
p905
I5
sS'doc/source/conf.py'
p906
I6
sS'astroid/brain/brain_multiprocessing.py'
p907
I3
sS'astroid/transforms.py'
p908
I4
sS'brain/py2pytest.py'
p909
I1
sS'test/data/module2.py'
p910
I1
sS'astroid/tests/testdata/python3/data/module.py'
p911
I3
sS'astroid/brain/_nose.py'
p912
I2
sS'setup.cfg'
p913
I1
sS'astroid/tests/testdata/python2/data/path_pkgutil_3/package/__init__.py'
p914
I1
sS'test/unittest_builder.py'
p915
I8
sS'astroid/tests/unittest_nodes.py'
p916
I41
sS'astroid/interpreter/dunder_lookup.py'
p917
I3
sS'node_classes.py'
p918
I7
sS'astroid/tests/testdata/python2/data/path_pkg_resources_1/package/__init__.py'
p919
I1
sS'doc/source/index.rst'
p920
I2
sS'astroid/context.py'
p921
I11
sS'test/regrtest_data/unicode_package/core/__init__.py'
p922
I1
sS'astroid/brain/brain_builtin_inference.py'
p923
I7
sS'astroid/tests/unittest_modutils.py'
p924
I21
sS'astroid/tests/testdata/python3/data/suppliermodule_test.py'
p925
I1
sS'astroid/tests/testdata/python3/data/invalid_encoding.py'
p926
I1
sS'astroid/brain/brain_namedtuple_enum.py'
p927
I13
sS'.coveragerc'
p928
I1
sS'astroid/brain/pysix_moves.py'
p929
I10
sS'astroid/tests/testdata/python2/data/path_pkgutil_2/package/__init__.py'
p930
I1
sS'astroid/tests/testdata/python3/data/path_pkg_resources_3/package/__init__.py'
p931
I1
sS'test/unittest_brain.py'
p932
I3
sS'test/unittest_raw_building.py'
p933
I4
sS'astroid/tests/unittest_brain.py'
p934
I54
sS'test/unittest_regrtest.py'
p935
I8
sS'astroid/tests/testdata/python2/data/path_pkg_resources_3/package/baz.py'
p936
I1
sS'astroid/tests/testdata/python3/data/path_pkgutil_2/package/bar.py'
p937
I1
sS'astroid/astpeephole.py'
p938
I6
sS'astroid/interpreter/_import/util.py'
p939
I2
sS'doc/makefile'
p940
I1
sS'astroid/tests/testdata/python2/data/foogle/fax/a.py'
p941
I1
sS'astroid/brain/brain_pkg_resources.py'
p942
I4
sS'astroid/tests/unittest_inference.py'
p943
I117
sS'astroid/brain/brain_collections.py'
p944
I3
sS'astroid/brain/brain_qt.py'
p945
I3
sS'astroid/tests/testdata/python3/data/joined_strings.py'
p946
I1
sS'brain/py2stdlib.py'
p947
I16
sS'astroid/tests/testdata/python3/data/module2.py'
p948
I2
sS'astroid/helpers.py'
p949
I15
sS'astroid/brain/_stdlib.py'
p950
I3
sS'scoped_nodes.py'
p951
I41
sS'astroid/manager.py'
p952
I25
sS'astroid/brain/_six.py'
p953
I3
sS'astroid/bases.py'
p954
I51
sS'modutils.py'
p955
I6
sS'astroid/tests/testdata/python2/data/joined_strings.py'
p956
I1
sS'astroid/brain/py2stdlib.py'
p957
I17
sS'astroid/tests/testdata/python3/data/path_pkgutil_1/package/__init__.py'
p958
I1
sS'astroid/tests/testdata/python2/data/path_pkgutil_3/package/baz.py'
p959
I1
sS'astroid/tests/testdata/python2/data/invalid_encoding.py'
p960
I1
sS'astroid/raw_building.py'
p961
I25
sS'astroid/tests/testdata/python2/data/contribute_to_namespace/namespace_pep_420/submodule.py'
p962
I1
sS'astroid/brain/brain_uuid.py'
p963
I1
sS'astroid/tests/testdata/python2/data/path_pkg_resources_2/package/bar.py'
p964
I1
sS'astroid/tests/unittest_manager.py'
p965
I25
sS'astroid/as_string.py'
p966
I21
sS'doc/source/inference.rst'
p967
I3
sS'test_utils.py'
p968
I2
sS'astroid/tests/testdata/python3/data/contribute_to_namespace/namespace_pep_420/submodule.py'
p969
I1
sS'astroid/brain/brain_hashlib.py'
p970
I3
sS'astroid/interpreter/_import/spec.py'
p971
I5
sS'astroid/tests/testdata/python2/data/appl/myconnection.py'
p972
I2
sS'astroid/scoped_nodes.py'
p973
I111
sS'test/data/module.py'
p974
I1
sS'debian/rules'
p975
I2
sS'astroid/objects.py'
p976
I27
sS'astroid/brain/brain_functools.py'
p977
I5
sS'astroid/brain/pynose.py'
p978
I6
sS'astroid/tests/testdata/python2/data/path_pkg_resources_3/package/__init__.py'
p979
I1
sS'astroid/tests/testdata/python2/data/module2.py'
p980
I1
sS'astroid/tests/testdata/python2/data/namespace_pep_420/module.py'
p981
I2
sS'protocols.py'
p982
I5
sS'astroid/tests/testdata/python3/data/path_pkg_resources_1/package/__init__.py'
p983
I1
sS'debian/changelog'
p984
I8
sS'astroid/tests/unittest_helpers.py'
p985
I10
sS'astroid/brain/_qt.py'
p986
I2
sS'astroid/tests/testdata/python2/data/foogle_fax-0.12.5-py2.7-nspkg.pth'
p987
I1
sS'inference.py'
p988
I7
sS'appveyor/install.ps1'
p989
I2
sS'astroid/tests/testdata/python2/data/clientmodule_test.py'
p990
I1
sS'astroid/brain/brain_gi.py'
p991
I8
sS'astroid/__pkginfo__.py'
p992
I25
sS'astroid/brain/py2pytest.py'
p993
I2
sS'doc/extending.rst'
p994
I3
sS'astroid/brain/_mechanize.py'
p995
I2
sS'astroid/tests/testdata/python3/data/clientmodule_test.py'
p996
I1
sS'doc/index.rst'
p997
I1
sS'test/unittest_python3.py'
p998
I20
sS'astroid/tests/testdata/python2/data/notall.py'
p999
I2
sS'astroid/brain/_pytest.py'
p1000
I2
sS'astroid/brain/builtin_inference.py'
p1001
I28
sS'astroid/inference.py'
p1002
I63
sS'astroid/tests/testdata/python3/data/path_pkgutil_3/package/baz.py'
p1003
I1
sS'astroid/tests/testdata/python3/data/foogle/fax/a.py'
p1004
I1
sS'astroid/tests/testdata/python3/data/path_pkg_resources_1/package/foo.py'
p1005
I1
sS'astroid/tests/unittest_inspector.py'
p1006
I3
sS'tox.ini'
p1007
I35
sS'astroid/util.py'
p1008
I12
sS'astroid/tests/testdata/python3/data/path_pkg_resources_2/package/__init__.py'
p1009
I1
sS'astroid/tests/testdata/python2/data/foogle/fax/__init__.py'
p1010
I1
sS'astroid/test_utils.py'
p1011
I11
sS'astroid/arguments.py'
p1012
I12
sS'astroid/tests/__init__.py'
p1013
I3
sS'test/unittest_scoped_nodes.py'
p1014
I27
sS'astroid/tests/unittest_utils.py'
p1015
I5
sS'astroid/rebuilder.py'
p1016
I30
sS'astroid/brain/_builtin_inference.py'
p1017
I2
sS'astroid/brain/brain_nose.py'
p1018
I3
sS'astroid/tests/testdata/python2/data/module.py'
p1019
I3
sS'appveyor.yml'
p1020
I3
sS'astroid/tests/unittest_peephole.py'
p1021
I6
sS'doc/source/extending.rst'
p1022
I3
sS'test/regrtest_data/recursion.py'
p1023
I2
sS'test/unittest_lookup.py'
p1024
I1
sS'astroid/brain/brain_dateutil.py'
p1025
I3
sS'astroid/brain/py2mechanize.py'
p1026
I1
sS'astroid/tests/unittest_scoped_nodes.py'
p1027
I77
sS'astroid/tests/unittest_brain_numpy.py'
p1028
I1
sS'test/unittest_nodes.py'
p1029
I6
sS'astroid/interpreter/objectmodel.py'
p1030
I12
sS'astroid/utils.py'
p1031
I2
sS'nodes.py'
p1032
I2
sS'debian/control'
p1033
I1
sS'doc/release.txt'
p1034
I3
sS'__init__.py'
p1035
I1
sS'pylintrc'
p1036
I17
sS'astroid/brain/brain_stdlib.py'
p1037
I12
sS'test/regrtest_data/unicode_package/__init__.py'
p1038
I1
sS'astroid/tests/unittest_python3.py'
p1039
I13
sS'manager.py'
p1040
I6
sS'astroid/tests/testdata/python3/data/path_pkg_resources_3/package/baz.py'
p1041
I1
sS'astroid/tests/testdata/python2/data/path_pkgutil_1/package/__init__.py'
p1042
I1
ssS'moylop260'
p1043
g1
(g5
tRp1044
S'.travis.yml'
p1045
I1
sS'astroid/__init__.py'
p1046
I1
sS'astroid/__pkginfo__.py'
p1047
I2
ssS'emile@crater.logilab.fr'
p1048
g1
(g5
tRp1049
S'utils.py'
p1050
I1
sS'manager.py'
p1051
I1
ssS'degustaf'
p1052
g1
(g5
tRp1053
S'astroid/exceptions.py'
p1054
I1
sS'astroid/tests/unittest_inference.py'
p1055
I1
sS'astroid/brain/brain_collections.py'
p1056
I1
sS'astroid/protocols.py'
p1057
I1
sS'astroid/manager.py'
p1058
I1
sS'tox.ini'
p1059
I1
sS'astroid/bases.py'
p1060
I2
sS'astroid/modutils.py'
p1061
I1
sS'astroid/raw_building.py'
p1062
I1
sS'astroid/node_classes.py'
p1063
I2
sS'astroid/rebuilder.py'
p1064
I2
sS'astroid/decorators.py'
p1065
I1
sS'astroid/__init__.py'
p1066
I1
sS'astroid/interpreter/_import/spec.py'
p1067
I1
sS'astroid/tests/unittest_object_model.py'
p1068
I1
sS'astroid/scoped_nodes.py'
p1069
I2
sS'astroid/objects.py'
p1070
I1
sS'astroid/builder.py'
p1071
I1
sS'astroid/tests/unittest_scoped_nodes.py'
p1072
I1
sS'astroid/interpreter/objectmodel.py'
p1073
I1
sS'astroid/tests/unittest_nodes.py'
p1074
I1
sS'pylintrc'
p1075
I1
sS'astroid/tests/unittest_brain.py'
p1076
I1
ssS'jgarst'
p1077
g1
(g5
tRp1078
S'tox.ini'
p1079
I1
sS'astroid/nodes.py'
p1080
I1
sS'astroid/node_classes.py'
p1081
I1
sS'astroid/tests/unittest_python3.py'
p1082
I1
sS'astroid/rebuilder.py'
p1083
I1
sS'astroid/as_string.py'
p1084
I1
ssS'mbdevpl'
p1085
g1
(g5
tRp1086
S'astroid/brain/brain_stdlib.py'
p1087
I1
ssS'rogalski'
p1088
g1
(g5
tRp1089
S'astroid/tests/unittest_inference.py'
p1090
I2
sS'astroid/brain/brain_collections.py'
p1091
I3
sS'astroid/protocols.py'
p1092
I3
sS'astroid/inference.py'
p1093
I1
sS'astroid/tests/testdata/python2/data/tmp__init__.py'
p1094
I1
sS'tox.ini'
p1095
I1
sS'astroid/tests/unittest_protocols.py'
p1096
I1
sS'astroid/node_classes.py'
p1097
I1
sS'astroid/rebuilder.py'
p1098
I2
sS'astroid/as_string.py'
p1099
I1
sS'astroid/tests/unittest_object_model.py'
p1100
I1
sS'astroid/scoped_nodes.py'
p1101
I1
sS'astroid/tests/unittest_builder.py'
p1102
I3
sS'astroid/builder.py'
p1103
I3
sS'astroid/tests/unittest_scoped_nodes.py'
p1104
I1
sS'astroid/brain/brain_re.py'
p1105
I1
sS'astroid/brain/brain_namedtuple_enum.py'
p1106
I2
sS'changelog'
p1107
I7
sS'astroid/brain/brain_threading.py'
p1108
I1
sS'astroid/tests/unittest_brain.py'
p1109
I5
sS'astroid/tests/testdata/python3/data/tmp__init__.py'
p1110
I1
sS'astroid/tests/unittest_python3.py'
p1111
I2
sS'astroid/__pkginfo__.py'
p1112
I1
ssS'asottile'
p1113
g1
(g5
tRp1114
S'.travis.yml'
p1115
I1
ssS'david@dropbox.com'
p1116
g1
(g5
tRp1117
S'astroid/scoped_nodes.py'
p1118
I1
sS'changelog'
p1119
I1
sS'astroid/tests/unittest_inference.py'
p1120
I1
ssS'ionelmc'
p1121
g1
(g5
tRp1122
S'debian/rules'
p1123
I1
sS'debian/changelog'
p1124
I1
ssS'dbaum'
p1125
g1
(g5
tRp1126
S'astroid/tests/unittest_utils.py'
p1127
I1
sS'astroid/node_classes.py'
p1128
I1
sS'changelog'
p1129
I1
ssS'sthenault'
p1130
g1
(g5
tRp1131
S'test/data/ssl1/connection1.py'
p1132
I4
sS'readme.python3'
p1133
I2
sS'test/regrtest_data/package/__init__.py'
p1134
I4
sS'test/regrtest_data/package/absimport.py'
p1135
I3
sS'readme._ast_compatibility'
p1136
I3
sS'mixins.py'
p1137
I13
sS'brain/py2gi.py'
p1138
I2
sS'test/unittest_inference.py'
p1139
I62
sS'test/unittest_manager.py'
p1140
I28
sS'readme._ast_compatibily'
p1141
I4
sS'as_string.py'
p1142
I7
sS'astutils.py'
p1143
I2
sS'debian.sid/rules'
p1144
I1
sS'todo._ast_compat'
p1145
I1
sS'astroid/tests/unittest_regrtest.py'
p1146
I1
sS'inspector.py'
p1147
I17
sS'astroid/tests/unittest_inference.py'
p1148
I4
sS'.hgtags'
p1149
I49
sS'brain/py2qt4.py'
p1150
I2
sS'setup.py'
p1151
I24
sS'debian.sid/source/format'
p1152
I1
sS'debian/changelog'
p1153
I44
sS'builder.py'
p1154
I59
sS'test/unittest_modutils.py'
p1155
I2
sS'utils.py'
p1156
I29
sS'raw_building.py'
p1157
I51
sS'changelog'
p1158
I114
sS'_nodes.py'
p1159
I1
sS'test/data/find_test/__init__.py'
p1160
I1
sS'_nodes_compiler.py'
p1161
I35
sS'_nodes_ast.py'
p1162
I36
sS'lookup.py'
p1163
I26
sS'.hgignore'
p1164
I2
sS'test/data/module2.py'
p1165
I7
sS'test/regrtest_data/absimp/__init__.py'
p1166
I1
sS'patchcomptransformer.py'
p1167
I11
sS'test/data/find_test/module2.py'
p1168
I1
sS'test/data/mypypa-0.1.0.zip'
p1169
I2
sS'bases.py'
p1170
I27
sS'depends'
p1171
I2
sS'__pkginfo__.py'
p1172
I57
sS'todo'
p1173
I3
sS'rebuilder.py'
p1174
I40
sS'infutils.py'
p1175
I17
sS'test/data/find_test/module.py'
p1176
I1
sS'debian.py3k/control'
p1177
I2
sS'test/regrtest_data/package/hello.py'
p1178
I1
sS'brain/py2mechanize.py'
p1179
I2
sS'readme'
p1180
I5
sS'debian.lenny/rules'
p1181
I1
sS'test/data/appl/__init__.py'
p1182
I4
sS'test/data/mypypa-0.1.0-py2.5.zip'
p1183
I1
sS'test/regrtest_data/absimp/string.py'
p1184
I2
sS'debian.hardy/rules'
p1185
I3
sS'test/data/appl/myconnection.py'
p1186
I4
sS'test/unittest_inspector.py'
p1187
I13
sS'debian.sid/control'
p1188
I1
sS'test/unittest_builder.py'
p1189
I59
sS'debian.intrepid/rules'
p1190
I1
sS'node_classes.py'
p1191
I23
sS'test/data/module1abs/__init__.py'
p1192
I1
sS'test_utils.py'
p1193
I1
sS'test/regrtest_data/package/subpackage/module.py'
p1194
I4
sS'test/data/email.py'
p1195
I2
sS'test/regrtest_data/descriptor_crash.py'
p1196
I4
sS'test/unittest_raw_building.py'
p1197
I1
sS'test/regrtest_data/absimp/sidepackage/__init__.py'
p1198
I1
sS'test/unittest_regrtest.py'
p1199
I13
sS'test/regrtest.py'
p1200
I12
sS'test/data/all.py'
p1201
I4
sS'test/unittest_lookup.py'
p1202
I24
sS'test/data/ssl1/__init__.py'
p1203
I4
sS'test/__init__.py'
p1204
I4
sS'test/data2/clientmodule_test.py'
p1205
I4
sS'brain/py2stdlib.py'
p1206
I12
sS'debian.py3k/rules'
p1207
I3
sS'scoped_nodes.py'
p1208
I99
sS'astroid/manager.py'
p1209
I1
sS'modutils.py'
p1210
I3
sS'astroid/brain/py2stdlib.py'
p1211
I3
sS'test/data/mypypa-0.1.0-py2.5.egg'
p1212
I1
sS'test/regrtest_data/package/import_package_subpackage_module.py'
p1213
I3
sS'test/data/lmfp/foo.py'
p1214
I1
sS'_inference_ast.py'
p1215
I3
sS'debian.hardy/preinst'
p1216
I2
sS'test/data/noendingnewline.py'
p1217
I4
sS'test/fulltest.sh'
p1218
I7
sS'test/data/find_test/noendingnewline.py'
p1219
I1
sS'test/data/module.py'
p1220
I7
sS'debian/rules'
p1221
I7
sS'test/data/module1abs/core.py'
p1222
I1
sS'test/data/nonregr.py'
p1223
I4
sS'copying.lesser'
p1224
I2
sS'protocols.py'
p1225
I28
sS'debian.py3k/source/format'
p1226
I2
sS'test/regrtest_data/package/subpackage/__init__.py'
p1227
I4
sS'debian/python-logilab-astng.postinst'
p1228
I2
sS'inference.py'
p1229
I64
sS'nodes.py'
p1230
I64
sS'doc/extending.rst'
p1231
I1
sS'test/data2/suppliermodule_test.py'
p1232
I4
sS'test/unittest_python3.py'
p1233
I5
sS'debian/python-logilab-astng.prerm'
p1234
I2
sS'astroid/brain/builtin_inference.py'
p1235
I2
sS'_inference_compiler.py'
p1236
I4
sS'nodes_as_string.py'
p1237
I16
sS'test/data/format.py'
p1238
I3
sS'test/data2/__init__.py'
p1239
I4
sS'debian/pycompat'
p1240
I1
sS'test/data/notall.py'
p1241
I4
sS'test/unittest_utils.py'
p1242
I10
sS'copying'
p1243
I5
sS'test/unittest_scoped_nodes.py'
p1244
I42
sS'test/data/__init__.py'
p1245
I4
sS'test/data/lmfp/__init__.py'
p1246
I1
sS'exceptions.py'
p1247
I4
sS'test/data/find_test/nonregr.py'
p1248
I1
sS'manifest.in'
p1249
I8
sS'debian/copyright'
p1250
I3
sS'_exceptions.py'
p1251
I6
sS'debian/watch'
p1252
I1
sS'test/regrtest_data/import_package_subpackage_module.py'
p1253
I3
sS'test/runtests.py'
p1254
I1
sS'test/unittest_nodes.py'
p1255
I34
sS'test/data/absimport.py'
p1256
I2
sS'debian/control'
p1257
I12
sS'debian/python-logilab-astng.dirs'
p1258
I1
sS'__init__.py'
p1259
I36
sS'test/regrtest_data/absimport.py'
p1260
I4
sS'manager.py'
p1261
I44
ssS'anthony.truchet@logilab.fr'
p1262
g1
(g5
tRp1263
S'doc/makefile'
p1264
I1
sS'doc/extending.rst'
p1265
I1
sS'doc/source/extending.rst'
p1266
I1
sS'doc/source/conf.py'
p1267
I2
sS'doc/source/index.rst'
p1268
I2
sS'doc/make.bat'
p1269
I1
sS'.hgignore'
p1270
I1
sS'doc/source/inference.rst'
p1271
I1
ssS'nchauvat'
p1272
g1
(g5
tRp1273
S'depends'
p1274
I1
sS'changelog'
p1275
I1
sS'test/fulltest.sh'
p1276
I1
sS'manifest.in'
p1277
I1
sS'builder.py'
p1278
I1
sS'copying'
p1279
I1
sS'__pkginfo__.py'
p1280
I1
sS'.hgignore'
p1281
I1
ssS'giuseppe'
p1282
g1
(g5
tRp1283
S'astroid/brain/brain_gi.py'
p1284
I1
ssS'flagist0'
p1285
g1
(g5
tRp1286
S'astroid/rebuilder.py'
p1287
I1
sS'astroid/builder.py'
p1288
I1
ssS'dlax'
p1289
g1
(g5
tRp1290
S'modutils.py'
p1291
I1
ssS'tmarek@google.com'
p1292
g1
(g5
tRp1293
S'test_utils.py'
p1294
I3
sS'doc/extending.rst'
p1295
I1
sS'changelog'
p1296
I10
sS'rebuilder.py'
p1297
I2
sS'test/unittest_brain.py'
p1298
I3
sS'brain/py2stdlib.py'
p1299
I5
sS'test/unittest_inference.py'
p1300
I2
sS'node_classes.py'
p1301
I1
sS'inference.py'
p1302
I2
sS'test/unittest_scoped_nodes.py'
p1303
I3
sS'test/unittest_regrtest.py'
p1304
I1
sS'scoped_nodes.py'
p1305
I3
sS'as_string.py'
p1306
I1
sS'test/data/module2.py'
p1307
I1
ssS'lorenzph'
p1308
g1
(g5
tRp1309
S'astroid/brain/py2stdlib.py'
p1310
I1
sS'astroid/tests/unittest_brain.py'
p1311
I2
sS'astroid/tests/unittest_scoped_nodes.py'
p1312
I1
sS'astroid/scoped_nodes.py'
p1313
I1
sS'changelog'
p1314
I1
ssS'the-compiler'
p1315
g1
(g5
tRp1316
S'astroid/tests/unittest_modutils.py'
p1317
I1
sS'astroid/tests/unittest_brain.py'
p1318
I1
sS'tox.ini'
p1319
I1
sS'astroid/bases.py'
p1320
I1
sS'astroid/tests/testdata/python2/data/module.py'
p1321
I1
sS'astroid/tests/unittest_scoped_nodes.py'
p1322
I1
sS'changelog'
p1323
I1
sS'astroid/modutils.py'
p1324
I3
sS'astroid/tests/testdata/python3/data/module.py'
p1325
I1
sS'astroid/tests/unittest_nodes.py'
p1326
I1
sS'astroid/objects.py'
p1327
I1
sS'astroid/raw_building.py'
p1328
I1
sS'astroid/scoped_nodes.py'
p1329
I2
sS'astroid/mixins.py'
p1330
I1
sS'astroid/node_classes.py'
p1331
I1
sS'astroid/tests/unittest_builder.py'
p1332
I2
sS'readme'
p1333
I1
sS'astroid/brain/brain_pytest.py'
p1334
I1
sS'astroid/decorators.py'
p1335
I3
sS'astroid/__pkginfo__.py'
p1336
I1
sS'.hgtags'
p1337
I1
ssS'thedrow'
p1338
g1
(g5
tRp1339
S'astroid/tests/testdata/python2/data/module2.py'
p1340
I1
sS'astroid/tests/testdata/python2/data/module.py'
p1341
I1
sS'astroid/tests/testdata/python2/data/nonregr.py'
p1342
I1
sS'astroid/tests/testdata/python2/data/appl/myconnection.py'
p1343
I1
sS'astroid/tests/testdata/python2/data/notall.py'
p1344
I2
sS'astroid/tests/testdata/python2/data/ssl1/connection1.py'
p1345
I2
sS'astroid/tests/testdata/python2/data/module1abs/__init__.py'
p1346
I2
ssS'mathieui'
p1347
g1
(g5
tRp1348
S'astroid/brain/brain_curses.py'
p1349
I1
ssS'jquast'
p1350
g1
(g5
tRp1351
S'astroid/brain/py2pytest.py'
p1352
I1
ssS'gerardpaligot'
p1353
g1
(g5
tRp1354
S'test/unittest_manager.py'
p1355
I2
sS'test/unittest_raw_building.py'
p1356
I2
ssS'adimasci'
p1357
g1
(g5
tRp1358
S'nodes.py'
p1359
I1
sS'debian/rules'
p1360
I1
sS'debian/changelog'
p1361
I1
sS'__pkginfo__.py'
p1362
I1
sS'debian/control'
p1363
I1
ssS'mmaslowskicc'
p1364
g1
(g5
tRp1365
S'astroid/inference.py'
p1366
I1
ssS'julien.jehannet@logilab.fr'
p1367
g1
(g5
tRp1368
S'readme.python3'
p1369
I1
sS'debian.sid/rules'
p1370
I1
sS'debian.py3k/source/format'
p1371
I1
sS'bases.py'
p1372
I1
sS'mixins.py'
p1373
I1
sS'test/unittest_inference.py'
p1374
I1
sS'__pkginfo__.py'
p1375
I1
sS'test/unittest_manager.py'
p1376
I1
sS'scoped_nodes.py'
p1377
I1
sS'as_string.py'
p1378
I1
sS'debian.lenny/preinst'
p1379
I1
sS'rebuilder.py'
p1380
I1
sS'inspector.py'
p1381
I1
sS'debian.py3k/control'
p1382
I2
sS'.hgtags'
p1383
I1
sS'test/unittest_scoped_nodes.py'
p1384
I1
sS'debian.lenny/rules'
p1385
I2
sS'setup.py'
p1386
I3
sS'raw_building.py'
p1387
I1
sS'exceptions.py'
p1388
I1
sS'test/data/module2.py'
p1389
I1
sS'debian.hardy/preinst'
p1390
I1
sS'debian.hardy/rules'
p1391
I2
sS'_exceptions.py'
p1392
I1
sS'test/unittest_inspector.py'
p1393
I2
sS'manifest.in'
p1394
I1
sS'debian.sid/control'
p1395
I1
sS'test/unittest_builder.py'
p1396
I1
sS'debian.intrepid/rules'
p1397
I1
sS'builder.py'
p1398
I1
sS'debian/rules'
p1399
I1
sS'test/unittest_lookup.py'
p1400
I1
sS'debian.py3k/rules'
p1401
I3
sS'utils.py'
p1402
I1
sS'debian.sid/source/format'
p1403
I1
sS'test/unittest_nodes.py'
p1404
I1
sS'protocols.py'
p1405
I1
sS'changelog'
p1406
I1
sS'debian/changelog'
p1407
I1
sS'__init__.py'
p1408
I1
sS'test/unittest_regrtest.py'
p1409
I1
sS'node_classes.py'
p1410
I1
sS'inference.py'
p1411
I1
sS'_nodes_ast.py'
p1412
I1
sS'manager.py'
p1413
I1
ssS'crobinso'
p1414
g1
(g5
tRp1415
S'brain/py2gi.py'
p1416
I1
ssS'cpennington'
p1417
g1
(g5
tRp1418
S'tox.ini'
p1419
I1
sS'astroid/bases.py'
p1420
I1
sS'astroid/interpreter/objectmodel.py'
p1421
I1
sS'astroid/tests/unittest_inference.py'
p1422
I2
sS'astroid/interpreter/_import/spec.py'
p1423
I2
sS'astroid/inference.py'
p1424
I1
sS'astroid/__pkginfo__.py'
p1425
I1
ssS'jarradh'
p1426
g1
(g5
tRp1427
S'astroid/scoped_nodes.py'
p1428
I1
sS'changelog'
p1429
I1
sS'astroid/tests/unittest_scoped_nodes.py'
p1430
I1
ss.