ccollections
defaultdict
p1
(c__builtin__
int
p2
tRp3
(S'oauthlib/oauth2/draft25/errors.py'
p4
S'oauthlib/oauth2/draft25/parameters.py'
p5
tp6
I2
s(S'tests/oauth2/rfc6749/__init__.py'
p7
S'tests/oauth2/rfc6749/test_client.py'
p8
tp9
I1
s(S'tests/oauth2/rfc6749/grant_types/test_openid_connect.py'
p10
S'tests/oauth2/rfc6749/grant_types/test_resource_owner_password.py'
p11
tp12
I3
s(S'oauthlib/oauth2/rfc6749/endpoints/base.py'
p13
g11
tp14
I1
s(S'oauthlib/oauth2/rfc6749/request_validator.py'
p15
S'tests/oauth2/rfc6749/endpoints/test_resource_owner_association.py'
p16
tp17
I2
s(S'oauthlib/oauth1/rfc5849/endpoints/access_token.py'
p18
S'tests/oauth2/rfc6749/grant_types/test_implicit.py'
p19
tp20
I1
s(S'oauthlib/oauth1/rfc5849/endpoints/request_token.py'
p21
S'tests/oauth2/rfc6749/clients/test_base.py'
p22
tp23
I1
s(S'oauthlib/oauth2/rfc6749/endpoints/__init__.py'
p24
S'oauthlib/oauth2/rfc6749/grant_types/__init__.py'
p25
tp26
I1
s(S'oauthlib/__init__.py'
p27
S'oauthlib/oauth2/rfc6749/clients/legacy_application.py'
p28
tp29
I2
s(S'oauthlib/oauth1/rfc5849/signature.py'
p30
S'oauthlib/oauth2/rfc6749/grant_types/refresh_token.py'
p31
tp32
I3
s(S'oauthlib/oauth2/rfc6749/parameters.py'
p33
S'tests/oauth2/rfc6749/test_parameters.py'
p34
tp35
I8
s(S'oauthlib/oauth2/rfc6749/clients/legacy_application.py'
p36
S'tests/oauth2/rfc6749/endpoints/test_scope_handling.py'
p37
tp38
I1
s(S'oauthlib/oauth1/rfc5849/__init__.py'
p39
S'oauthlib/oauth2/rfc6749/errors.py'
p40
tp41
I2
s(S'tests/oauth2/rfc6749/endpoints/test_credentials_preservation.py'
p42
S'tests/oauth2/rfc6749/grant_types/test_authorization_code.py'
p43
tp44
I4
s(S'oauthlib/oauth1/rfc5849/__init__.py'
p45
S'oauthlib/oauth1/rfc5849/utils.py'
p46
tp47
I15
s(S'oauthlib/oauth2/rfc6749/__init__.py'
p48
g25
tp49
I1
s(g13
S'tests/oauth1/rfc5849/endpoints/test_resource.py'
p50
tp51
I1
s(S'oauthlib/oauth2/draft25/utils.py'
p52
S'oauthlib/oauth2/ext/django.py'
p53
tp54
I1
s(S'oauthlib/oauth2/draft25/__init__.py'
p55
S'tests/oauth2/draft25/test_tokens.py'
p56
tp57
I4
s(S'tests/oauth1/rfc5849/endpoints/test_authorization.py'
p58
g16
tp59
I1
s(g24
S'oauthlib/oauth2/rfc6749/grant_types/authorization_code.py'
p60
tp61
I1
s(S'oauthlib/oauth2/rfc6749/errors.py'
p62
g15
tp63
I5
s(S'oauthlib/oauth2/draft25/exceptions.py'
p64
S'tests/oauth2/rfc6749/test_utils.py'
p65
tp66
I1
s(S'oauthlib/oauth2/draft25/parameters.py'
p67
S'tests/oauth1/rfc5849/test_parameters.py'
p68
tp69
I3
s(S'oauthlib/oauth.py'
p70
S'oauthlib/parameters.py'
p71
tp72
I4
s(S'oauthlib/oauth2/rfc6749/clients/backend_application.py'
p73
g36
tp74
I8
s(S'oauthlib/oauth1/rfc5849/endpoints/pre_configured.py'
p75
S'oauthlib/oauth2/rfc6749/grant_types/base.py'
p76
tp77
I3
s(g16
S'tests/oauth2/rfc6749/test_utils.py'
p78
tp79
I2
s(S'docs/conf.py'
p80
g34
tp81
I1
s(S'oauthlib/oauth1/rfc5849/__init__.py'
p82
S'oauthlib/oauth1/rfc5849/endpoints/authorization.py'
p83
tp84
I5
s(g13
S'oauthlib/oauth2/rfc6749/grant_types/implicit.py'
p85
tp86
I7
s(S'tests/oauth2/draft25/__init__.py'
p87
S'tests/oauth2/draft25/test_grant_types.py'
p88
tp89
I1
s(S'tests/oauth1/rfc5849/test_utils.py'
p90
g22
tp91
I1
s(S'tests/oauth2/draft25/test_utils.py'
p92
g7
tp93
I1
s(S'oauthlib/oauth1/__init__.py'
p94
S'tests/oauth1/rfc5849/endpoints/test_request_token.py'
p95
tp96
I1
s(g68
S'tests/oauth2/draft25/test_utils.py'
p97
tp98
I3
s(S'tests/oauth2/rfc6749/endpoints/test_utils.py'
p99
S'tests/oauth2/rfc6749/grant_types/test_authorization_code.py'
p100
tp101
I1
s(g80
S'oauthlib/oauth2/rfc6749/grant_types/openid_connect.py'
p102
tp103
I1
s(g80
S'oauthlib/oauth2/rfc6749/grant_types/client_credentials.py'
p104
tp105
I1
s(S'oauthlib/oauth2/__init__.py'
p106
S'oauthlib/oauth2/rfc6749/clients/service_application.py'
p107
tp108
I1
s(S'tests/oauth2/rfc6749/clients/test_service_application.py'
p109
S'tests/oauth2/rfc6749/endpoints/test_error_responses.py'
p110
tp111
I1
s(g27
S'oauthlib/oauth1/rfc5849/parameters.py'
p112
tp113
I2
s(S'oauthlib/oauth2/rfc6749/tokens.py'
p114
S'tests/oauth2/rfc6749/clients/test_web_application.py'
p115
tp116
I3
s(S'oauthlib/common.py'
p117
S'oauthlib/oauth2/rfc6749/endpoints/authorization.py'
p118
tp119
I7
s(S'oauthlib/oauth2/rfc6749/exceptions.py'
p120
S'oauthlib/oauth2/rfc6749/tokens.py'
p121
tp122
I1
s(g90
g37
tp123
I1
s(S'oauthlib/oauth2/rfc6749/clients/service_application.py'
p124
S'oauthlib/oauth2/rfc6749/endpoints/pre_configured.py'
p125
tp126
I1
s(S'oauthlib/oauth2/rfc6749/endpoints/token.py'
p127
g16
tp128
I1
s(S'oauthlib/oauth2/draft25/utils.py'
S'oauthlib/oauth2/ext/flask.py'
p129
tp130
I2
s(S'oauthlib/oauth1/rfc5849/parameters.py'
p131
S'tests/oauth2/rfc6749/endpoints/test_prompt_handling.py'
p132
tp133
I1
s(S'oauthlib/oauth2/draft25/grant_types.py'
p134
S'tests/oauth2/draft25/test_grant_types.py'
p135
tp136
I9
s(S'tests/oauth2/draft25/test_servers.py'
p137
g8
tp138
I1
s(g18
S'oauthlib/oauth1/rfc5849/endpoints/resource.py'
p139
tp140
I14
s(S'oauthlib/oauth2/rfc6749/endpoints/revocation.py'
p141
S'tests/oauth1/rfc5849/endpoints/test_signature_only.py'
p142
tp143
I1
s(g82
S'oauthlib/oauth1/rfc5849/request_validator.py'
p144
tp145
I6
s(g127
g85
tp146
I6
s(S'oauthlib/common.py'
p147
S'oauthlib/oauth1/rfc5849/endpoints/access_token.py'
p148
tp149
I7
s(S'oauthlib/oauth2/rfc6749/__init__.py'
p150
S'oauthlib/oauth2/rfc6749/endpoints/revocation.py'
p151
tp152
I5
s(S'oauthlib/oauth2/draft25/tokens.py'
p153
S'oauthlib/oauth2/rfc6749/errors.py'
p154
tp155
I1
s(S'oauthlib/oauth1/__init__.py'
p156
S'oauthlib/oauth1/rfc5849/signature.py'
p157
tp158
I8
s(S'oauthlib/oauth1/rfc5849/__init__.py'
p159
S'oauthlib/oauth2/draft25/utils.py'
p160
tp161
I4
s(g33
S'tests/oauth2/rfc6749/endpoints/test_claims_handling.py'
p162
tp163
I1
s(g64
S'oauthlib/oauth2/rfc6749/parameters.py'
p164
tp165
I1
s(g82
g148
tp166
I6
s(S'oauthlib/common.py'
p167
S'oauthlib/oauth2/ext/__init__.py'
p168
tp169
I1
s(S'oauthlib/oauth2/rfc6749/grant_types/resource_owner_password_credentials.py'
p170
g114
tp171
I3
s(g127
g15
tp172
I8
s(g114
S'oauthlib/uri_validate.py'
p173
tp174
I3
s(S'oauthlib/oauth1/rfc5849/utils.py'
p175
S'tests/oauth1/rfc5849/endpoints/test_base.py'
p176
tp177
I1
s(S'oauthlib/oauth2/rfc6749/clients/base.py'
p178
g85
tp179
I4
s(S'tests/oauth2/rfc6749/endpoints/__init__.py'
p180
g99
tp181
I1
s(g27
S'oauthlib/oauth2/rfc6749/endpoints/pre_configured.py'
tp182
I2
s(S'oauthlib/oauth2/rfc6749/clients/base.py'
p183
g24
tp184
I3
s(g15
g114
tp185
I3
s(g15
g90
tp186
I1
s(g21
g15
tp187
I4
s(g80
g141
tp188
I1
s(S'tests/oauth1/rfc5849/endpoints/test_access_token.py'
p189
S'tests/test_common.py'
p190
tp191
I1
s(S'oauthlib/oauth1/rfc5849/__init__.py'
S'tests/oauth1/rfc5849/test_server.py'
p192
tp193
I19
s(S'tests/oauth2/rfc6749/endpoints/test_client_authentication.py'
p194
g132
tp195
I1
s(g141
g19
tp196
I1
s(S'tests/oauth2/rfc6749/grant_types/test_client_credentials.py'
p197
S'tests/oauth2/rfc6749/test_servers.py'
p198
tp199
I1
s(S'oauthlib/oauth2/__init__.py'
p200
S'oauthlib/oauth2/rfc6749/endpoints/base.py'
p201
tp202
I3
s(S'tests/oauth2/draft25/__init__.py'
p203
S'tests/test_signatures.py'
p204
tp205
I2
s(g164
S'tests/oauth2/draft25/test_server.py'
p206
tp207
I1
s(g56
S'tests/unittest/__init__.py'
p208
tp209
I2
s(g124
g176
tp210
I1
s(S'oauthlib/oauth1/rfc5849/endpoints/base.py'
p211
S'oauthlib/oauth2/rfc6749/endpoints/__init__.py'
p212
tp213
I2
s(g42
g110
tp214
I4
s(g80
S'tests/oauth1/rfc5849/test_parameters.py'
p215
tp216
I1
s(g139
S'oauthlib/oauth2/rfc6749/utils.py'
p217
tp218
I5
s(S'oauthlib/signature.py'
p219
S'tests/oauth2_draft25/__init__.py'
p220
tp221
I1
s(g141
g109
tp222
I1
s(g80
g127
tp223
I1
s(S'oauthlib/oauth2_draft25/tokens.py'
p224
S'tests/oauth2_draft25/test_tokens.py'
p225
tp226
I3
s(g102
g33
tp227
I1
s(S'oauthlib/oauth2/rfc6749/grant_types/authorization_code.py'
p228
g58
tp229
I1
s(g178
g16
tp230
I1
s(S'tests/oauth1/rfc5849/endpoints/test_request_token.py'
p231
g22
tp232
I1
s(g33
g43
tp233
I1
s(g50
g10
tp234
I1
s(g131
g228
tp235
I3
s(g15
g115
tp236
I1
s(S'setup.py'
p237
S'tests/oauth2/rfc6749/clients/test_backend_application.py'
p238
tp239
I3
s(g102
g132
tp240
I4
s(g141
S'tests/oauth2/rfc6749/endpoints/test_base_endpoint.py'
p241
tp242
I1
s(g13
g62
tp243
I3
s(S'oauthlib/signature.py'
S'tests/test_signatures.py'
tp244
I8
s(g80
g11
tp245
I1
s(g102
S'tests/oauth1/rfc5849/test_signatures.py'
p246
tp247
I1
s(g19
g10
tp248
I3
s(S'oauthlib/oauth2/draft25/parameters.py'
p249
S'tests/oauth2/rfc6749/test_servers.py'
p250
tp251
I1
s(g67
S'tests/oauth1/rfc5849/test_signatures.py'
p252
tp253
I3
s(S'oauthlib/oauth1/rfc5849/endpoints/authorization.py'
p254
g58
tp255
I7
s(S'oauthlib/common.py'
p256
S'tests/oauth2/draft25/test_parameters.py'
p257
tp258
I3
s(S'oauthlib/__init__.py'
S'setup.py'
tp259
I1
s(S'oauthlib/oauth1/rfc5849/endpoints/__init__.py'
p260
S'oauthlib/oauth1/rfc5849/endpoints/request_token.py'
p261
tp262
I1
s(g80
g190
tp263
I1
s(g90
S'tests/oauth2/rfc6749/grant_types/test_refresh_token.py'
p264
tp265
I1
s(g62
g194
tp266
I1
s(S'oauthlib/oauth2/ext/django.py'
p267
S'tests/oauth2/draft25/test_servers.py'
p268
tp269
I1
s(S'oauthlib/oauth1/rfc5849/errors.py'
p270
g43
tp271
I1
s(g131
g11
tp272
I1
s(g76
g215
tp273
I1
s(g139
g33
tp274
I5
s(S'tests/oauth2/rfc6749/endpoints/test_revocation_endpoint.py'
p275
S'tests/oauth2/rfc6749/test_request_validator.py'
p276
tp277
I1
s(g82
S'oauthlib/oauth2/rfc6749/endpoints/base.py'
p278
tp279
I5
s(g249
S'oauthlib/oauth2/rfc6749/__init__.py'
p280
tp281
I1
s(g156
S'oauthlib/oauth2/rfc6749/utils.py'
p282
tp283
I2
s(S'oauthlib/oauth2/__init__.py'
p284
g151
tp285
I3
s(S'tests/oauth2/draft25/test_client.py'
p286
g268
tp287
I2
s(g18
g173
tp288
I5
s(g164
g7
tp289
I1
s(g139
g237
tp290
I1
s(g80
g13
tp291
I1
s(g88
g250
tp292
I1
s(S'oauthlib/oauth1/rfc5849/endpoints/base.py'
p293
g132
tp294
I1
s(g127
g173
tp295
I5
s(g178
g76
tp296
I4
s(g13
g31
tp297
I7
s(S'oauthlib/oauth2/__init__.py'
p298
S'tests/oauth2/__init__.py'
p299
tp300
I2
s(g293
g275
tp301
I1
s(g249
g65
tp302
I1
s(S'oauthlib/oauth1/rfc5849/endpoints/signature_only.py'
p303
g90
tp304
I1
s(g141
g173
tp305
I5
s(g73
g178
tp306
I7
s(g124
g241
tp307
I1
s(S'oauthlib/oauth2/draft25/grant_types.py'
p308
S'tests/oauth2/rfc6749/test_grant_types.py'
p309
tp310
I1
s(g254
g31
tp311
I3
s(g246
g190
tp312
I5
s(g176
g43
tp313
I1
s(g75
g85
tp314
I3
s(S'oauthlib/oauth1/rfc5849/__init__.py'
p315
S'tests/oauth1/rfc5849/endpoints/test_resource.py'
p316
tp317
I1
s(g37
g10
tp318
I2
s(S'tests/oauth1/rfc5849/test_utils.py'
p319
S'tests/test_parameters.py'
p320
tp321
I2
s(g170
g19
tp322
I4
s(g237
g275
tp323
I1
s(g206
g65
tp324
I1
s(g80
g73
tp325
I1
s(g142
g43
tp326
I1
s(S'tests/oauth2/rfc6749/grant_types/test_refresh_token.py'
p327
S'tests/oauth2/rfc6749/grant_types/test_resource_owner_password.py'
p328
tp329
I13
s(S'tests/oauth1/rfc5849/test_request_validator.py'
p330
g90
tp331
I1
s(g30
g43
tp332
I1
s(g141
S'tests/oauth2/rfc6749/endpoints/test_extra_credentials.py'
p333
tp334
I1
s(g330
g34
tp335
I1
s(g117
g24
tp336
I3
s(g82
S'oauthlib/oauth2/rfc6749/clients/base.py'
p337
tp338
I4
s(g127
g333
tp339
I1
s(S'examples/skeleton_oauth2_web_application_server.py'
p340
S'oauthlib/oauth2/rfc6749/grant_types/authorization_code.py'
tp341
I2
s(g303
g37
tp342
I1
s(g178
S'tests/oauth2/rfc6749/test_server.py'
p343
tp344
I2
s(g154
S'oauthlib/oauth2/rfc6749/grant_types.py'
p345
tp346
I1
s(S'oauthlib/oauth2/rfc6749/endpoints/authorization.py'
p347
g173
tp348
I5
s(g162
S'tests/oauth2/rfc6749/test_tokens.py'
p349
tp350
I1
s(g249
g87
tp351
I1
s(S'oauthlib/oauth2/draft25/utils.py'
p352
g7
tp353
I1
s(g73
g347
tp354
I6
s(g200
S'oauthlib/oauth2/rfc6749/endpoints/token.py'
p355
tp356
I3
s(S'oauthlib/oauth2/draft25/exceptions.py'
p357
g257
tp358
I3
s(g21
g125
tp359
I5
s(g189
g194
tp360
I1
s(S'oauthlib/oauth1/rfc5849/signature.py'
S'tests/oauth2/draft25/test_server.py'
p361
tp362
I1
s(g115
g162
tp363
I1
s(g280
g65
tp364
I1
s(S'oauthlib/oauth1/rfc5849/endpoints/base.py'
p365
S'tests/oauth1/rfc5849/test_server.py'
p366
tp367
I1
s(g241
g110
tp368
I2
s(g18
g189
tp369
I7
s(S'oauthlib/oauth1/rfc5849/signature.py'
p370
g203
tp371
I2
s(g254
g22
tp372
I1
s(g64
S'tests/oauth2/rfc6749/test_tokens.py'
p373
tp374
I1
s(S'oauthlib/oauth2/draft25/errors.py'
p375
g65
tp376
I1
s(g170
g238
tp377
I1
s(g102
g231
tp378
I1
s(g80
g333
tp379
I1
s(g85
g43
tp380
I5
s(g175
g114
tp381
I3
s(g139
g37
tp382
I1
s(g110
g78
tp383
I2
s(S'oauthlib/oauth2/rfc6749/grant_types.py'
p384
S'oauthlib/oauth2/rfc6749/grant_types/client_credentials.py'
p385
tp386
I1
s(g211
g150
tp387
I4
s(S'oauthlib/common.py'
g361
tp388
I3
s(S'tests/oauth2/draft25/test_utils.py'
p389
S'tests/oauth2_draft25/test_utils.py'
p390
tp391
I1
s(S'tests/oauth2/rfc6749/endpoints/test_client_authentication.py'
p392
g198
tp393
I1
s(g31
g343
tp394
I5
s(S'oauthlib/oauth1/rfc5849/request_validator.py'
p395
g110
tp396
I1
s(S'oauthlib/oauth2_draft25/__init__.py'
p397
S'tests/oauth2/draft25/__init__.py'
p398
tp399
I1
s(S'oauthlib/oauth1/rfc5849/signature.py'
p400
g97
tp401
I3
s(g50
g246
tp402
I1
s(g36
g275
tp403
I1
s(S'oauthlib/oauth1/rfc5849/endpoints/__init__.py'
p404
S'tests/oauth1/rfc5849/endpoints/__init__.py'
p405
tp406
I2
s(g30
g237
tp407
I11
s(g30
g330
tp408
I1
s(g36
g190
tp409
I1
s(g31
g142
tp410
I1
s(g355
S'tests/oauth2/rfc6749/test_client.py'
p411
tp412
I1
s(g293
g246
tp413
I1
s(g175
g333
tp414
I1
s(S'tests/oauth1/rfc5849/__init__.py'
p415
g320
tp416
I2
s(S'oauthlib/parameters.py'
p417
S'tests/oauth1/rfc5849/test_parameters.py'
p418
tp419
I2
s(g249
g154
tp420
I1
s(g22
g162
tp421
I1
s(g333
g343
tp422
I1
s(g170
g43
tp423
I4
s(g117
g200
tp424
I6
s(g231
g90
tp425
I1
s(g173
g34
tp426
I1
s(g50
g90
tp427
I1
s(g76
g43
tp428
I3
s(g270
g142
tp429
I1
s(S'oauthlib/oauth1/__init__.py'
p430
g204
tp431
I2
s(g10
g264
tp432
I3
s(g293
g109
tp433
I1
s(g62
S'tests/oauth2/rfc6749/grant_types/test_client_credentials.py'
p434
tp435
I2
s(g125
g264
tp436
I2
s(S'oauthlib/oauth2/rfc6749/grant_types/__init__.py'
p437
S'tests/oauth2/rfc6749/endpoints/test_claims_handling.py'
p438
tp439
I2
s(S'oauthlib/oauth2/rfc6749/clients/mobile_application.py'
p440
g37
tp441
I1
s(g241
g16
tp442
I2
s(g110
g132
tp443
I1
s(g183
g25
tp444
I1
s(S'oauthlib/common.py'
p445
S'oauthlib/oauth1/rfc5849/endpoints/pre_configured.py'
p446
tp447
I2
s(g139
g127
tp448
I6
s(S'tests/oauth2/rfc6749/test_parameters.py'
p449
g250
tp450
I1
s(g22
g10
tp451
I1
s(S'oauthlib/oauth1/rfc5849/utils.py'
p452
g208
tp453
I2
s(g15
g34
tp454
I1
s(S'oauthlib/oauth2/draft25/__init__.py'
p455
g397
tp456
I1
s(g85
g110
tp457
I5
s(g120
S'tests/oauth2/rfc6749/test_server.py'
p458
tp459
I1
s(S'tests/oauth2/draft25/test_grant_types.py'
p460
S'tests/oauth2/draft25/test_server.py'
p461
tp462
I9
s(g132
g190
tp463
I1
s(S'tests/oauth2/rfc6749/clients/test_base.py'
p464
S'tests/oauth2/rfc6749/clients/test_legacy_application.py'
p465
tp466
I1
s(g99
S'tests/oauth2/rfc6749/grant_types/__init__.py'
p467
tp468
I1
s(g137
g309
tp469
I1
s(g347
g76
tp470
I8
s(g303
g141
tp471
I4
s(g170
g34
tp472
I1
s(g275
g349
tp473
I1
s(g333
g11
tp474
I2
s(g48
S'oauthlib/oauth2/rfc6749/endpoints/pre_configured.py'
p475
tp476
I5
s(g430
S'tests/oauth1/__init__.py'
p477
tp478
I2
s(g303
g19
tp479
I1
s(g440
g85
tp480
I4
s(g434
g11
tp481
I7
s(g200
g475
tp482
I4
s(g241
g19
tp483
I2
s(g440
g141
tp484
I5
s(g99
S'tests/oauth2/rfc6749/test_grant_types.py'
p485
tp486
I1
s(S'oauthlib/oauth2/rfc6749/clients/mobile_application.py'
p487
g411
tp488
I1
s(S'oauthlib/oauth2/draft25/parameters.py'
p489
g267
tp490
I2
s(g142
g238
tp491
I1
s(g452
g97
tp492
I4
s(g125
g31
tp493
I5
s(S'oauthlib/oauth2/draft25/utils.py'
p494
S'tests/oauth2/draft25/test_tokens.py'
p495
tp496
I5
s(S'oauthlib/oauth2/rfc6749/clients/web_application.py'
p497
g43
tp498
I1
s(g175
g343
tp499
I1
s(g160
S'tests/test_common.py'
p500
tp501
I4
s(g228
g10
tp502
I5
s(S'oauthlib/oauth2/ext/django.py'
S'oauthlib/oauth2/ext/django/__init__.py'
p503
tp504
I1
s(g114
g217
tp505
I5
s(g30
g264
tp506
I1
s(g178
g333
tp507
I1
s(g30
g19
tp508
I1
s(g308
g154
tp509
I1
s(S'oauthlib/oauth2/rfc6749/grant_types/refresh_token.py'
S'tests/oauth2/rfc6749/test_grant_types.py'
p510
tp511
I4
s(g21
g115
tp512
I1
s(g440
g237
tp513
I3
s(S'oauthlib/oauth1/rfc5849/errors.py'
p514
g366
tp515
I1
s(g440
g11
tp516
I1
s(g125
g194
tp517
I1
s(g254
g10
tp518
I1
s(g80
S'tests/oauth1/rfc5849/test_client.py'
p519
tp520
I1
s(S'oauthlib/oauth2/__init__.py'
p521
g257
tp522
I4
s(g519
g132
tp523
I1
s(S'oauthlib/oauth1/rfc5849/utils.py'
p524
g150
tp525
I2
s(g104
g42
tp526
I1
s(g142
g37
tp527
I1
s(g173
g50
tp528
I1
s(g139
g11
tp529
I1
s(g131
g231
tp530
I1
s(S'oauthlib/common.py'
p531
S'oauthlib/oauth2/rfc6749/grant_types/openid_connect.py'
tp532
I3
s(g21
g215
tp533
I1
s(g125
g15
tp534
I9
s(g131
g22
tp535
I1
s(g36
g33
tp536
I6
s(g62
g237
tp537
I1
s(g215
g333
tp538
I1
s(g139
g19
tp539
I1
s(g180
S'tests/oauth2/rfc6749/test_request_validator.py'
p540
tp541
I1
s(g75
g42
tp542
I1
s(g264
g190
tp543
I1
s(g298
g417
tp544
I2
s(S'oauthlib/oauth2/rfc6749/clients/mobile_application.py'
p545
S'oauthlib/signals.py'
p546
tp547
I2
s(g31
g15
tp548
I10
s(g241
g42
tp549
I2
s(g497
g349
tp550
I1
s(g141
g22
tp551
I2
s(g370
g477
tp552
I2
s(g13
g241
tp553
I1
s(g36
g246
tp554
I1
s(g36
g189
tp555
I1
s(g43
g190
tp556
I1
s(g102
g194
tp557
I1
s(g200
g183
tp558
I3
s(S'tests/oauth2/rfc6749/clients/test_legacy_application.py'
p559
S'tests/oauth2/rfc6749/clients/test_web_application.py'
p560
tp561
I6
s(g85
g241
tp562
I1
s(g132
g34
tp563
I1
s(g347
g343
tp564
I7
s(g254
g62
tp565
I3
s(g397
S'tests/test_utils.py'
p566
tp567
I1
s(g434
g34
tp568
I1
s(g18
g104
tp569
I4
s(S'tests/oauth2/rfc6749/clients/__init__.py'
p570
S'tests/oauth2/rfc6749/test_client.py'
p571
tp572
I1
s(g124
g110
tp573
I1
s(g237
g115
tp574
I3
s(S'tests/oauth2/draft25/test_parameters.py'
p575
g373
tp576
I1
s(g375
g309
tp577
I1
s(g62
g22
tp578
I1
s(g90
g162
tp579
I1
s(g270
g104
tp580
I1
s(S'oauthlib/oauth2/rfc6749/grant_types/base.py'
p581
g411
tp582
I1
s(g168
S'oauthlib/oauth2/ext/django/__init__.py'
p583
tp584
I1
s(g15
g142
tp585
I1
s(g45
S'oauthlib/oauth1/rfc5849/signature.py'
p586
tp587
I26
s(g215
g264
tp588
I1
s(g467
S'tests/oauth2/rfc6749/grant_types/test_refresh_token.py'
p589
tp590
I1
s(g477
g203
tp591
I2
s(g62
g33
tp592
I4
s(g73
g114
tp593
I3
s(g27
S'oauthlib/oauth2/rfc6749/clients/web_application.py'
tp594
I2
s(g452
g55
tp595
I5
s(g85
g434
tp596
I4
s(g42
g19
tp597
I2
s(g33
g37
tp598
I1
s(g42
g333
tp599
I2
s(g254
g11
tp600
I1
s(g217
g330
tp601
I1
s(g92
g65
tp602
I1
s(S'oauthlib/oauth2/rfc6749/clients/__init__.py'
p603
g475
tp604
I3
s(g215
g194
tp605
I1
s(g141
g110
tp606
I1
s(g18
g238
tp607
I1
s(g330
g10
tp608
I1
s(g395
g19
tp609
I1
s(g246
g78
tp610
I3
s(g142
g10
tp611
I1
s(g440
g434
tp612
I1
s(g154
g120
tp613
I1
s(g603
g581
tp614
I1
s(g102
g11
tp615
I3
s(g254
g42
tp616
I1
s(g228
g15
tp617
I13
s(g18
g76
tp618
I4
s(S'setup.py'
p619
g299
tp620
I1
s(S'oauthlib/oauth2/rfc6749/clients/legacy_application.py'
p621
g411
tp622
I1
s(g395
g15
tp623
I3
s(g157
g150
tp624
I4
s(g293
g238
tp625
I1
s(g115
g241
tp626
I1
s(g270
g16
tp627
I1
s(g397
g219
tp628
I1
s(g21
g395
tp629
I9
s(S'tests/oauth2/draft25/test_tokens.py'
p630
g65
tp631
I1
s(g18
g190
tp632
I1
s(g100
g198
tp633
I1
s(g194
g349
tp634
I1
s(g519
g238
tp635
I1
s(S'oauthlib/oauth1/rfc5849/parameters.py'
p636
g220
tp637
I1
s(g73
g127
tp638
I6
s(g519
g241
tp639
I1
s(g200
g60
tp640
I1
s(g256
g357
tp641
I2
s(g400
g55
tp642
I5
s(S'oauthlib/oauth1/__init__.py'
p643
g500
tp644
I3
s(g200
g411
tp645
I2
s(g175
g31
tp646
I1
s(g83
g212
tp647
I2
s(g497
g434
tp648
I1
s(g178
g330
tp649
I1
s(S'tests/oauth1/rfc5849/test_server.py'
p650
S'tests/oauth2/draft25/test_client.py'
p651
tp652
I3
s(g85
g19
tp653
I4
s(g27
S'oauthlib/oauth2/rfc6749/endpoints/token.py'
tp654
I3
s(g156
g83
tp655
I3
s(g31
g90
tp656
I1
s(S'oauthlib/oauth2/__init__.py'
p657
g373
tp658
I1
s(g90
g115
tp659
I1
s(g22
g11
tp660
I1
s(S'setup.py'
p661
g257
tp662
I3
s(g39
S'oauthlib/oauth2/rfc6749/grant_types/refresh_token.py'
p663
tp664
I3
s(g303
g78
tp665
I1
s(S'oauthlib/oauth1/rfc5849/parameters.py'
p666
g212
tp667
I2
s(g102
g142
tp668
I1
s(g142
g246
tp669
I1
s(g125
g343
tp670
I8
s(g238
g109
tp671
I2
s(g125
g76
tp672
I7
s(g114
g58
tp673
I1
s(g124
g37
tp674
I1
s(g308
g345
tp675
I1
s(g36
g333
tp676
I1
s(g15
g217
tp677
I4
s(S'oauthlib/oauth1/rfc5849/utils.py'
p678
g299
tp679
I2
s(g50
g343
tp680
I1
s(S'oauthlib/oauth2/draft25/__init__.py'
p681
S'tests/test_utils.py'
p682
tp683
I2
s(g120
g575
tp684
I1
s(g76
g276
tp685
I1
s(g73
g37
tp686
I1
s(g117
g201
tp687
I6
s(S'oauthlib/oauth1/rfc5849/parameters.py'
p688
g415
tp689
I2
s(g395
g519
tp690
I1
s(g142
g349
tp691
I1
s(g603
S'oauthlib/oauth2/rfc6749/clients/backend_application.py'
p692
tp693
I3
s(g178
g102
tp694
I1
s(g83
g284
tp695
I2
s(g254
g434
tp696
I1
s(S'tests/oauth2/draft25/test_client.py'
p697
g250
tp698
I1
s(g42
g37
tp699
I2
s(g139
g114
tp700
I3
s(g194
g264
tp701
I2
s(S'oauthlib/oauth2/rfc6749/endpoints/resource.py'
p702
g40
tp703
I2
s(g467
S'tests/oauth2/rfc6749/grant_types/test_resource_owner_password.py'
p704
tp705
I1
s(g270
g519
tp706
I1
s(g249
g120
tp707
I1
s(S'oauthlib/oauth2/draft25/__init__.py'
p708
g65
tp709
I1
s(g303
g238
tp710
I1
s(g139
g347
tp711
I6
s(g440
g189
tp712
I1
s(g27
S'oauthlib/oauth2/rfc6749/__init__.py'
p713
tp714
I3
s(g217
g16
tp715
I1
s(g73
g170
tp716
I4
s(S'oauthlib/parameters.py'
p717
g220
tp718
I1
s(g141
g238
tp719
I1
s(g315
g95
tp720
I1
s(g237
g19
tp721
I1
s(g43
g19
tp722
I7
s(g661
g97
tp723
I3
s(g521
g500
tp724
I3
s(g36
g42
tp725
I1
s(g180
S'tests/oauth2/rfc6749/endpoints/test_base_endpoint.py'
p726
tp727
I1
s(g228
g330
tp728
I1
s(g176
g519
tp729
I1
s(g124
g11
tp730
I1
s(g94
S'tests/oauth1/rfc5849/endpoints/test_access_token.py'
p731
tp732
I1
s(g688
g320
tp733
I2
s(g275
g34
tp734
I1
s(g37
g264
tp735
I2
s(g94
g316
tp736
I1
s(g411
S'tests/oauth2/rfc6749/test_server.py'
p737
tp738
I2
s(S'oauthlib/oauth2/draft25/tokens.py'
p739
g651
tp740
I7
s(g395
g349
tp741
I1
s(g36
g217
tp742
I5
s(g270
g115
tp743
I1
s(g293
g276
tp744
I1
s(g160
g257
tp745
I5
s(g75
g109
tp746
I1
s(g36
g11
tp747
I1
s(g173
g58
tp748
I1
s(g139
g31
tp749
I4
s(g246
g264
tp750
I1
s(g60
g411
tp751
I1
s(g85
g37
tp752
I2
s(g238
g275
tp753
I1
s(g22
g434
tp754
I1
s(g73
g132
tp755
I1
s(g657
g449
tp756
I1
s(g21
g62
tp757
I3
s(g156
S'oauthlib/oauth2/rfc6749/clients/legacy_application.py'
p758
tp759
I2
s(g13
g37
tp760
I1
s(g256
g160
tp761
I5
s(g270
g434
tp762
I1
s(g125
g173
tp763
I5
s(S'oauthlib/signature.py'
p764
S'tests/oauth1/rfc5849/test_signatures.py'
p765
tp766
I2
s(g175
g276
tp767
I1
s(g85
g102
tp768
I8
s(g308
g7
tp769
I1
s(g131
g264
tp770
I1
s(S'oauthlib/oauth2_draft25/utils.py'
p771
g389
tp772
I1
s(g570
S'tests/oauth2/rfc6749/clients/test_mobile_application.py'
p773
tp774
I1
s(g124
g85
tp775
I1
s(g120
g250
tp776
I1
s(g270
g440
tp777
I1
s(g246
g109
tp778
I3
s(g178
g142
tp779
I1
s(g343
g190
tp780
I1
s(g465
g571
tp781
I1
s(g237
g110
tp782
I1
s(S'oauthlib/utils.py'
p783
g220
tp784
I1
s(g237
g276
tp785
I1
s(g303
g264
tp786
I1
s(g142
g434
tp787
I1
s(g34
g343
tp788
I2
s(g764
g299
tp789
I2
s(g15
g231
tp790
I1
s(g75
g21
tp791
I4
s(g173
g115
tp792
I1
s(g293
g34
tp793
I1
s(g21
g343
tp794
I1
s(g254
g189
tp795
I5
s(g114
g276
tp796
I1
s(g125
g115
tp797
I1
s(g58
g241
tp798
I1
s(g440
g228
tp799
I4
s(g58
g238
tp800
I1
s(S'tests/oauth1/rfc5849/test_signatures.py'
g361
tp801
I1
s(S'oauthlib/oauth1/rfc5849/request_validator.py'
p802
g366
tp803
I1
s(g298
g203
tp804
I3
s(g452
g257
tp805
I3
s(g124
g43
tp806
I1
s(g395
g22
tp807
I1
s(g85
g217
tp808
I3
s(g21
g10
tp809
I1
s(g50
g349
tp810
I1
s(g64
g137
tp811
I1
s(S'tests/oauth2/rfc6749/endpoints/test_scope_handling.py'
p812
g467
tp813
I1
s(S'oauthlib/oauth1/rfc5849/parameters.py'
p814
g651
tp815
I3
s(g102
g189
tp816
I1
s(g666
S'oauthlib/oauth2/rfc6749/clients/__init__.py'
p817
tp818
I2
s(g141
g194
tp819
I1
s(g80
g109
tp820
I1
s(g121
g88
tp821
I1
s(g18
g16
tp822
I1
s(g170
g15
tp823
I7
s(g254
g115
tp824
I1
s(g80
g330
tp825
I1
s(g650
S'tests/oauth1/rfc5849/test_utils.py'
p826
tp827
I7
s(g127
g194
tp828
I1
s(g94
S'tests/oauth1/rfc5849/endpoints/__init__.py'
p829
tp830
I1
s(g170
g519
tp831
I1
s(g11
g349
tp832
I1
s(g18
g141
tp833
I6
s(g64
S'oauthlib/oauth2/rfc6749/utils.py'
p834
tp835
I1
s(g270
g30
tp836
I1
s(g173
g330
tp837
I1
s(g575
g250
tp838
I1
s(g13
g76
tp839
I5
s(g159
g661
tp840
I4
s(g64
g120
tp841
I1
s(g36
g102
tp842
I1
s(g217
g115
tp843
I2
s(g246
g43
tp844
I1
s(S'oauthlib/oauth.py'
p845
g397
tp846
I1
s(g58
g343
tp847
I1
s(g267
S'tests/oauth2/draft25/test_server.py'
p848
tp849
I2
s(g4
S'oauthlib/oauth2/draft25/grant_types.py'
p850
tp851
I8
s(g217
g215
tp852
I1
s(g726
g99
tp853
I1
s(g21
g127
tp854
I6
s(g82
S'oauthlib/oauth2/rfc6749/endpoints/token.py'
p855
tp856
I5
s(S'tests/oauth2/draft25/test_client.py'
p857
S'tests/oauth2/draft25/test_parameters.py'
p858
tp859
I7
s(g11
g190
tp860
I1
s(g246
g333
tp861
I1
s(g13
g228
tp862
I7
s(g87
g309
tp863
I1
s(g62
g238
tp864
I1
s(g18
g175
tp865
I3
s(g36
g176
tp866
I1
s(g147
S'oauthlib/oauth2/rfc6749/tokens.py'
p867
tp868
I7
s(S'tests/oauth2/rfc6749/clients/test_mobile_application.py'
p869
g560
tp870
I6
s(g114
g19
tp871
I3
s(g33
g142
tp872
I1
s(g22
g349
tp873
I1
s(g87
g7
tp874
I1
s(g231
g142
tp875
I1
s(g18
g11
tp876
I1
s(g102
g238
tp877
I1
s(g58
g90
tp878
I2
s(g124
g497
tp879
I1
s(g228
g173
tp880
I3
s(g270
g189
tp881
I2
s(g347
g85
tp882
I8
s(g477
g415
tp883
I2
s(g231
g343
tp884
I1
s(g104
g85
tp885
I16
s(g217
g34
tp886
I3
s(g395
g264
tp887
I1
s(S'oauthlib/oauth1/rfc5849/endpoints/__init__.py'
p888
S'tests/oauth1/rfc5849/endpoints/test_signature_only.py'
p889
tp890
I2
s(g651
g208
tp891
I3
s(g124
g264
tp892
I1
s(g109
g11
tp893
I1
s(g308
g458
tp894
I1
s(g211
S'oauthlib/oauth2/rfc6749/endpoints/resource.py'
p895
tp896
I4
s(g256
g55
tp897
I5
s(g33
g275
tp898
I2
s(g109
g43
tp899
I1
s(g141
g176
tp900
I1
s(S'oauthlib/oauth1/rfc5849/endpoints/request_token.py'
p901
g284
tp902
I2
s(g21
g37
tp903
I1
s(g56
g500
tp904
I3
s(g127
g114
tp905
I6
s(g254
g30
tp906
I5
s(g131
g349
tp907
I1
s(g395
g78
tp908
I1
s(S'oauthlib/oauth2/rfc6749/request_validator.py'
g510
tp909
I2
s(S'oauthlib/oauth1/rfc5849/endpoints/pre_configured.py'
p910
g829
tp911
I1
s(g150
g867
tp912
I3
s(g370
g415
tp913
I2
s(g347
g11
tp914
I2
s(g125
g333
tp915
I1
s(g417
g477
tp916
I2
s(g267
S'tests/oauth2/draft25/test_grant_types.py'
p917
tp918
I2
s(g162
g34
tp919
I1
s(g76
g22
tp920
I1
s(g440
g102
tp921
I1
s(g10
g190
tp922
I1
s(g80
g254
tp923
I1
s(g85
g231
tp924
I1
s(g395
g31
tp925
I3
s(g82
S'oauthlib/oauth2/rfc6749/clients/backend_application.py'
p926
tp927
I4
s(S'oauthlib/oauth2/rfc6749/exceptions.py'
p928
g731
tp929
I1
s(g303
g76
tp930
I4
s(g200
g692
tp931
I3
s(g545
S'tests/oauth2/rfc6749/clients/test_mobile_application.py'
p932
tp933
I2
s(g142
g194
tp934
I1
s(S'oauthlib/oauth.py'
p935
g430
tp936
I2
s(g643
g68
tp937
I5
s(g355
g25
tp938
I2
s(g153
g65
tp939
I1
s(g156
g284
tp940
I9
s(g104
g176
tp941
I1
s(g293
g349
tp942
I1
s(S'oauthlib/common.py'
S'tests/test_common.py'
tp943
I30
s(g50
g264
tp944
I1
s(g254
g303
tp945
I3
s(g21
g190
tp946
I1
s(g315
S'tests/oauth1/rfc5849/endpoints/test_authorization.py'
p947
tp948
I1
s(g80
g275
tp949
I1
s(g18
g293
tp950
I6
s(g215
g349
tp951
I1
s(g131
g10
tp952
I1
s(g254
g125
tp953
I5
s(g375
g7
tp954
I1
s(S'oauthlib/oauth1/rfc5849/__init__.py'
S'tests/test_common.py'
tp955
I8
s(g33
g434
tp956
I1
s(S'oauthlib/oauth2/rfc6749/endpoints/base.py'
p957
S'tests/oauth2/rfc6749/test_servers.py'
p958
tp959
I2
s(g132
g43
tp960
I1
s(g80
g42
tp961
I1
s(g194
g276
tp962
I2
s(g18
g434
tp963
I1
s(g834
g137
tp964
I1
s(g80
g10
tp965
I1
s(g217
g11
tp966
I1
s(g764
g415
tp967
I2
s(g280
g120
tp968
I1
s(g497
g343
tp969
I2
s(g175
g13
tp970
I3
s(g739
g650
tp971
I3
s(g678
S'oauthlib/utils.py'
p972
tp973
I2
s(g173
g10
tp974
I1
s(g21
g104
tp975
I4
s(g30
g10
tp976
I1
s(g589
g485
tp977
I1
s(S'oauthlib/oauth1/rfc5849/__init__.py'
S'tests/oauth1/rfc5849/test_parameters.py'
p978
tp979
I7
s(g16
g37
tp980
I2
s(g87
g630
tp981
I1
s(g254
g131
tp982
I5
s(g50
g190
tp983
I1
s(g131
g34
tp984
I1
s(g357
g651
tp985
I3
s(g58
g11
tp986
I1
s(g50
g132
tp987
I1
s(g228
g176
tp988
I1
s(g21
g194
tp989
I1
s(g330
g132
tp990
I1
s(S'oauthlib/oauth1/rfc5849/__init__.py'
p991
g203
tp992
I2
s(g829
g366
tp993
I1
s(g21
g349
tp994
I1
s(g21
g519
tp995
I1
s(g293
g22
tp996
I1
s(g33
g176
tp997
I1
s(g347
g34
tp998
I1
s(g36
g173
tp999
I5
s(g120
g164
tp1000
I1
s(g173
g110
tp1001
I1
s(g430
g203
tp1002
I2
s(g131
g162
tp1003
I1
s(g275
g43
tp1004
I1
s(g144
g895
tp1005
I4
s(g293
g37
tp1006
I1
s(g73
g217
tp1007
I5
s(g176
g132
tp1008
I1
s(g352
g154
tp1009
I1
s(g147
g144
tp1010
I4
s(g80
g270
tp1011
I1
s(g80
g237
tp1012
I6
s(g194
g19
tp1013
I2
s(g39
S'oauthlib/oauth2/rfc6749/request_validator.py'
p1014
tp1015
I3
s(g895
g867
tp1016
I2
s(g13
g104
tp1017
I7
s(g115
g194
tp1018
I1
s(g76
g246
tp1019
I1
s(g384
g737
tp1020
I2
s(g30
g16
tp1021
I1
s(g621
S'oauthlib/oauth2/rfc6749/endpoints/resource.py'
p1022
tp1023
I5
s(g519
g162
tp1024
I1
s(g125
g22
tp1025
I1
s(g575
g309
tp1026
I1
s(g254
g270
tp1027
I2
s(g497
g276
tp1028
I1
s(g127
g34
tp1029
I1
s(g215
g190
tp1030
I5
s(g440
g497
tp1031
I7
s(g75
g190
tp1032
I1
s(S'oauthlib/common.py'
p1033
S'tests/oauth2/rfc6749/grant_types/test_resource_owner_password.py'
tp1034
I3
s(g231
g16
tp1035
I1
s(g115
g42
tp1036
I1
s(g90
g276
tp1037
I1
s(g345
g92
tp1038
I1
s(g148
g150
tp1039
I5
s(g475
g384
tp1040
I1
s(g270
g31
tp1041
I1
s(g109
g132
tp1042
I1
s(S'oauthlib/oauth2/rfc6749/tokens.py'
p1043
S'tests/oauth2/rfc6749/clients/test_legacy_application.py'
p1044
tp1045
I2
s(g215
g110
tp1046
I1
s(g76
g37
tp1047
I1
s(g85
g132
tp1048
I1
s(S'oauthlib/common.py'
S'tests/oauth1/rfc5849/test_client.py'
tp1049
I3
s(g30
g231
tp1050
I1
s(g80
g22
tp1051
I1
s(g156
S'oauthlib/oauth2/rfc6749/endpoints/authorization.py'
p1052
tp1053
I2
s(g440
g333
tp1054
I1
s(g330
g37
tp1055
I1
s(g109
g264
tp1056
I1
s(g270
g395
tp1057
I2
s(g178
g176
tp1058
I1
s(g489
g268
tp1059
I2
s(g254
g132
tp1060
I1
s(g75
g349
tp1061
I1
s(g125
g141
tp1062
I6
s(g97
g208
tp1063
I2
s(g117
g411
tp1064
I1
s(g254
g333
tp1065
I1
s(g395
g43
tp1066
I1
s(S'tests/oauth1/rfc5849/test_request_validator.py'
S'tests/oauth1/rfc5849/test_server.py'
tp1067
I2
s(g497
g50
tp1068
I1
s(g500
g208
tp1069
I3
s(g238
g10
tp1070
I1
s(g303
g131
tp1071
I3
s(g228
g109
tp1072
I1
s(g375
g449
tp1073
I1
s(S'oauthlib/signature.py'
p1074
S'oauthlib/utils.py'
p1075
tp1076
I7
s(g7
g309
tp1077
I1
s(g139
g43
tp1078
I1
s(g178
g109
tp1079
I1
s(g928
g366
tp1080
I1
s(g109
g78
tp1081
I3
s(g395
g62
tp1082
I3
s(g156
g82
tp1083
I9
s(g175
g62
tp1084
I1
s(g347
g189
tp1085
I1
s(g62
g264
tp1086
I4
s(g246
g115
tp1087
I1
s(g173
g11
tp1088
I1
s(g398
g220
tp1089
I1
s(g33
g15
tp1090
I4
s(g173
g333
tp1091
I1
s(g330
g43
tp1092
I1
s(S'oauthlib/oauth1/rfc5849/endpoints/resource.py'
p1093
g366
tp1094
I1
s(g43
g349
tp1095
I1
s(g85
g42
tp1096
I1
s(g13
g162
tp1097
I1
s(g16
g343
tp1098
I1
s(g80
g37
tp1099
I1
s(g293
g36
tp1100
I5
s(g109
g42
tp1101
I1
s(g357
g252
tp1102
I2
s(S'oauthlib/oauth1/rfc5849/signature.py'
p1103
g220
tp1104
I1
s(g31
g162
tp1105
I2
s(g293
g395
tp1106
I6
s(g13
g519
tp1107
I1
s(g211
g817
tp1108
I2
s(g270
g178
tp1109
I1
s(g497
g176
tp1110
I1
s(g85
g519
tp1111
I1
s(g521
g208
tp1112
I2
s(S'tests/oauth2/rfc6749/endpoints/test_error_responses.py'
p1113
g198
tp1114
I1
s(g75
g131
tp1115
I3
s(g475
g25
tp1116
I4
s(S'tests/parameters.py'
p1117
S'tests/unittest/__init__.py'
p1118
tp1119
I2
s(g75
g276
tp1120
I1
s(g180
S'tests/oauth2/rfc6749/endpoints/test_extra_credentials.py'
p1121
tp1122
I1
s(g817
g151
tp1123
I2
s(g395
g333
tp1124
I1
s(g215
g238
tp1125
I1
s(g85
g50
tp1126
I1
s(g173
g264
tp1127
I1
s(g178
g13
tp1128
I6
s(g30
g85
tp1129
I3
s(g688
g299
tp1130
I2
s(g131
g127
tp1131
I5
s(g280
g206
tp1132
I1
s(g30
g115
tp1133
I1
s(g260
g947
tp1134
I1
s(g270
g333
tp1135
I1
s(S'oauthlib/oauth2/draft25/tokens.py'
p1136
g460
tp1137
I9
s(g303
g228
tp1138
I4
s(g583
S'tests/oauth2/draft25/test_grant_types.py'
p1139
tp1140
I1
s(g170
g246
tp1141
I1
s(g48
g692
tp1142
I5
s(g215
g42
tp1143
I1
s(S'oauthlib/oauth2/draft25/utils.py'
p1144
g390
tp1145
I1
s(g142
g330
tp1146
I1
s(g178
g190
tp1147
I1
s(S'tests/oauth1/rfc5849/test_server.py'
g361
tp1148
I1
s(g238
g349
tp1149
I1
s(g330
g333
tp1150
I1
s(g521
g97
tp1151
I4
s(g1022
g411
tp1152
I1
s(g153
g309
tp1153
I1
s(g254
g264
tp1154
I1
s(g231
g42
tp1155
I1
s(S'oauthlib/oauth1/rfc5849/endpoints/resource.py'
p1156
g895
tp1157
I5
s(g33
g132
tp1158
I1
s(g48
g737
tp1159
I4
s(g80
g228
tp1160
I1
s(g345
g87
tp1161
I1
s(g264
g349
tp1162
I1
s(g972
g415
tp1163
I2
s(g630
g8
tp1164
I1
s(g30
g33
tp1165
I5
s(g228
g238
tp1166
I1
s(g139
g343
tp1167
I1
s(g270
g124
tp1168
I1
s(S'oauthlib/oauth2/rfc6749/parameters.py'
g546
tp1169
I2
s(g85
g349
tp1170
I1
s(g298
g320
tp1171
I2
s(g150
g282
tp1172
I5
s(g75
g50
tp1173
I2
s(g62
g37
tp1174
I1
s(g43
g10
tp1175
I6
s(g497
g102
tp1176
I1
s(g75
g114
tp1177
I1
s(S'oauthlib/oauth2/ext/auditor.py'
p1178
S'oauthlib/oauth2/ext/flask.py'
p1179
tp1180
I1
s(g178
g194
tp1181
I1
s(g545
S'tests/oauth2/rfc6749/clients/test_legacy_application.py'
p1182
tp1183
I2
s(g76
g78
tp1184
I1
s(g270
g22
tp1185
I1
s(g395
g37
tp1186
I1
s(g104
g343
tp1187
I5
s(S'oauthlib/oauth.py'
S'tests/test_utils.py'
tp1188
I3
s(g173
g434
tp1189
I1
s(g452
g650
tp1190
I6
s(g132
g349
tp1191
I1
s(g201
g411
tp1192
I1
s(g21
g78
tp1193
I1
s(g18
g142
tp1194
I1
s(S'oauthlib/oauth2/draft25/grant_types.py'
p1195
g168
tp1196
I1
s(g156
g337
tp1197
I2
s(g21
g178
tp1198
I5
s(g104
g194
tp1199
I1
s(g497
g109
tp1200
I1
s(g814
g739
tp1201
I3
s(g651
g56
tp1202
I4
s(g68
g56
tp1203
I3
s(S'oauthlib/oauth2/rfc6749/__init__.py'
p1204
S'tests/oauth2/rfc6749/test_grant_types.py'
p1205
tp1206
I3
s(g546
S'tests/oauth2/rfc6749/clients/test_backend_application.py'
tp1207
I2
s(g30
g102
tp1208
I1
s(g90
g109
tp1209
I1
s(g200
g621
tp1210
I3
s(g452
g67
tp1211
I3
s(g8
g449
tp1212
I1
s(g246
g434
tp1213
I1
s(g114
g275
tp1214
I1
s(g1205
S'tests/oauth2/rfc6749/test_server.py'
p1215
tp1216
I3
s(g365
g829
tp1217
I1
s(g62
g349
tp1218
I2
s(g708
g7
tp1219
I1
s(g73
g246
tp1220
I1
s(g104
g132
tp1221
I1
s(g90
g42
tp1222
I1
s(g33
g190
tp1223
I1
s(g397
g717
tp1224
I1
s(g249
g7
tp1225
I1
s(g175
g162
tp1226
I1
s(g104
g10
tp1227
I3
s(g228
g190
tp1228
I2
s(g62
g78
tp1229
I2
s(g50
g194
tp1230
I1
s(g257
g208
tp1231
I3
s(g18
g50
tp1232
I5
s(g194
g43
tp1233
I2
s(g139
g141
tp1234
I6
s(g440
g276
tp1235
I1
s(g228
g11
tp1236
I6
s(S'oauthlib/oauth2/rfc6749/grant_types/__init__.py'
S'oauthlib/oauth2/rfc6749/grant_types/openid_connect.py'
tp1237
I3
s(g270
g102
tp1238
I1
s(g395
g13
tp1239
I5
s(g1022
S'oauthlib/oauth2/rfc6749/grant_types/implicit.py'
p1240
tp1241
I4
s(g48
g118
tp1242
I6
s(g178
g238
tp1243
I1
s(g303
g50
tp1244
I3
s(g643
g252
tp1245
I5
s(g330
g110
tp1246
I1
s(g118
g1022
tp1247
I6
s(g62
g10
tp1248
I2
s(g286
g848
tp1249
I3
s(g76
g333
tp1250
I1
s(g76
g176
tp1251
I1
s(g104
g78
tp1252
I1
s(g102
g31
tp1253
I4
s(g173
g246
tp1254
I1
s(g132
g10
tp1255
I1
s(g231
g115
tp1256
I1
s(g270
g15
tp1257
I1
s(g114
g238
tp1258
I3
s(g935
g320
tp1259
I2
s(g85
g246
tp1260
I1
s(S'oauthlib/oauth2/ext/__init__.py'
p1261
g1178
tp1262
I1
s(g375
g458
tp1263
I1
s(g175
g228
tp1264
I1
s(g127
g238
tp1265
I1
s(g241
g34
tp1266
I1
s(g92
g250
tp1267
I1
s(g25
g60
tp1268
I3
s(g176
g241
tp1269
I1
s(g104
g16
tp1270
I1
s(g104
g519
tp1271
I1
s(g31
g173
tp1272
I3
s(g141
g162
tp1273
I1
s(g395
g176
tp1274
I3
s(g48
g581
tp1275
I4
s(g497
g190
tp1276
I1
s(g18
g178
tp1277
I5
s(g275
g190
tp1278
I1
s(g178
g124
tp1279
I1
s(g688
g764
tp1280
I2
s(g76
g190
tp1281
I2
s(g834
g697
tp1282
I1
s(g90
g190
tp1283
I6
s(g36
g10
tp1284
I1
s(g80
g62
tp1285
I1
s(g31
g275
tp1286
I1
s(g139
g58
tp1287
I3
s(g82
g284
tp1288
I7
s(g16
g10
tp1289
I1
s(g630
g449
tp1290
I1
s(g175
g215
tp1291
I7
s(g293
g10
tp1292
I1
s(g18
g132
tp1293
I1
s(g33
g109
tp1294
I2
s(g127
g22
tp1295
I1
s(g901
g150
tp1296
I5
s(g231
g238
tp1297
I1
s(g692
g24
tp1298
I3
s(g131
g173
tp1299
I5
s(g228
g34
tp1300
I3
s(g36
g241
tp1301
I1
s(g400
g739
tp1302
I3
s(g347
g170
tp1303
I6
s(g117
g692
tp1304
I5
s(g175
g36
tp1305
I3
s(g497
g78
tp1306
I1
s(g437
S'oauthlib/oauth2/rfc6749/tokens.py'
tp1307
I1
s(g519
g115
tp1308
I1
s(g50
g276
tp1309
I1
s(g347
g142
tp1310
I1
s(g237
g231
tp1311
I1
s(g228
g33
tp1312
I5
s(g62
g114
tp1313
I3
s(g36
g85
tp1314
I4
s(g15
g162
tp1315
I4
s(g27
S'oauthlib/oauth2/rfc6749/grant_types/authorization_code.py'
p1316
tp1317
I3
s(g739
g208
tp1318
I2
s(g131
g275
tp1319
I1
s(g180
S'tests/oauth2/rfc6749/test_utils.py'
p1320
tp1321
I1
s(g170
g276
tp1322
I2
s(g303
g85
tp1323
I4
s(g125
g275
tp1324
I2
s(g58
g190
tp1325
I1
s(g154
g87
tp1326
I1
s(g48
g24
tp1327
I3
s(g159
g55
tp1328
I6
s(g228
g246
tp1329
I1
s(g124
g275
tp1330
I1
s(g176
g162
tp1331
I1
s(g173
g231
tp1332
I1
s(g173
g109
tp1333
I1
s(g21
g43
tp1334
I1
s(g58
g162
tp1335
I1
s(g991
g764
tp1336
I2
s(g139
g170
tp1337
I4
s(g15
g10
tp1338
I4
s(g293
g13
tp1339
I5
s(g127
g104
tp1340
I6
s(g521
g826
tp1341
I5
s(g217
g78
tp1342
I14
s(g256
g208
tp1343
I2
s(g330
g434
tp1344
I1
s(g829
S'tests/oauth1/rfc5849/test_request_validator.py'
p1345
tp1346
I1
s(g220
S'tests/test_parameters.py'
p1347
tp1348
I1
s(g76
g238
tp1349
I1
s(g141
g104
tp1350
I4
s(g215
g246
tp1351
I6
s(g237
g333
tp1352
I1
s(g82
g1052
tp1353
I5
s(g246
g10
tp1354
I1
s(g189
g349
tp1355
I1
s(g895
S'oauthlib/oauth2/rfc6749/parameters.py'
p1356
tp1357
I4
s(g164
g575
tp1358
I1
s(g139
g241
tp1359
I1
s(g114
g90
tp1360
I1
s(g24
g118
tp1361
I3
s(g497
g34
tp1362
I2
s(S'oauthlib/oauth2/rfc6749/grant_types/implicit.py'
p1363
g1205
tp1364
I2
s(g299
g203
tp1365
I2
s(g319
g203
tp1366
I2
s(g206
g449
tp1367
I1
s(g697
g65
tp1368
I1
s(g62
g102
tp1369
I2
s(g115
g43
tp1370
I1
s(g972
g320
tp1371
I2
s(g333
g132
tp1372
I1
s(g303
g132
tp1373
I1
s(g18
g176
tp1374
I4
s(g845
g220
tp1375
I1
s(g303
g16
tp1376
I1
s(g352
g87
tp1377
I1
s(g99
g1320
tp1378
I1
s(g217
g132
tp1379
I1
s(g37
g43
tp1380
I2
s(g21
g333
tp1381
I1
s(g293
g264
tp1382
I1
s(g270
g50
tp1383
I2
s(g178
g33
tp1384
I9
s(g154
g250
tp1385
I1
s(g183
g384
tp1386
I1
s(g48
g621
tp1387
I5
s(g352
g834
tp1388
I1
s(g162
g10
tp1389
I3
s(g308
g120
tp1390
I1
s(g299
g204
tp1391
I2
s(g395
g104
tp1392
I3
s(g55
g826
tp1393
I5
s(g102
g10
tp1394
I6
s(g812
g99
tp1395
I1
s(g27
S'oauthlib/oauth1/rfc5849/endpoints/resource.py'
tp1396
I3
s(g303
g13
tp1397
I4
s(g464
g773
tp1398
I1
s(g80
g162
tp1399
I1
s(g347
g58
tp1400
I1
s(g176
g115
tp1401
I1
s(g162
g343
tp1402
I3
s(g31
g37
tp1403
I1
s(S'tests/oauth2/rfc6749/clients/test_mobile_application.py'
S'tests/oauth2/rfc6749/clients/test_service_application.py'
p1404
tp1405
I1
s(g15
g238
tp1406
I1
s(g519
g43
tp1407
I1
s(g139
g16
tp1408
I1
s(S'oauthlib/oauth1/rfc5849/__init__.py'
p1409
g404
tp1410
I2
s(g935
g299
tp1411
I2
s(g215
g37
tp1412
I1
s(g36
g34
tp1413
I2
s(g80
g349
tp1414
I1
s(g114
g142
tp1415
I1
s(g55
g661
tp1416
I4
s(g139
g519
tp1417
I1
s(g139
g132
tp1418
I1
s(g159
g252
tp1419
I10
s(g100
g485
tp1420
I1
s(g83
g817
tp1421
I2
s(g524
g817
tp1422
I2
s(g127
g231
tp1423
I1
s(g73
g31
tp1424
I4
s(g392
g467
tp1425
I1
s(g131
g434
tp1426
I1
s(g349
g78
tp1427
I2
s(g27
S'oauthlib/oauth2/rfc6749/grant_types/implicit.py'
p1428
tp1429
I3
s(g180
g1113
tp1430
I1
s(g464
g571
tp1431
I1
s(g246
g42
tp1432
I1
s(g141
g231
tp1433
I1
s(S'tests/oauth1/rfc5849/test_client.py'
p1434
S'tests/oauth1/rfc5849/test_signatures.py'
p1435
tp1436
I6
s(g497
g330
tp1437
I1
s(g385
g411
tp1438
I1
s(g18
g275
tp1439
I1
s(g440
g347
tp1440
I6
s(g24
g385
tp1441
I1
s(g264
g34
tp1442
I1
s(g33
g78
tp1443
I4
s(g347
g78
tp1444
I1
s(g238
g343
tp1445
I1
s(g246
g194
tp1446
I1
s(g55
g650
tp1447
I3
s(g13
g43
tp1448
I1
s(g33
g276
tp1449
I1
s(g254
g50
tp1450
I2
s(g22
g110
tp1451
I1
s(g395
g178
tp1452
I5
s(g293
g125
tp1453
I5
s(g80
g21
tp1454
I1
s(g76
g90
tp1455
I1
s(g42
g349
tp1456
I1
s(g31
g22
tp1457
I1
s(g75
g36
tp1458
I3
s(g125
g237
tp1459
I2
s(g55
g97
tp1460
I4
s(g15
g330
tp1461
I1
s(g814
g208
tp1462
I2
s(g170
g173
tp1463
I3
s(g176
g343
tp1464
I1
s(g153
g834
tp1465
I1
s(g303
g176
tp1466
I1
s(g257
g500
tp1467
I4
s(g834
g87
tp1468
I1
s(g519
g10
tp1469
I1
s(g80
g43
tp1470
I1
s(g62
g228
tp1471
I9
s(g215
g276
tp1472
I1
s(g42
g16
tp1473
I2
s(g15
g173
tp1474
I3
s(g13
g434
tp1475
I1
s(g139
g10
tp1476
I1
s(g440
g173
tp1477
I5
s(g102
g16
tp1478
I1
s(g62
g215
tp1479
I1
s(g36
g19
tp1480
I1
s(g418
g320
tp1481
I2
s(g238
g19
tp1482
I1
s(g293
g58
tp1483
I2
s(g160
g826
tp1484
I4
s(g22
g333
tp1485
I1
s(g972
g203
tp1486
I2
s(g16
g19
tp1487
I2
s(g142
g109
tp1488
I1
s(g261
g829
tp1489
I1
s(g75
g178
tp1490
I3
s(g309
g449
tp1491
I1
s(g224
S'tests/oauth2/draft25/test_tokens.py'
p1492
tp1493
I1
s(g375
g697
tp1494
I1
s(g30
g114
tp1495
I3
s(g228
g162
tp1496
I3
s(g30
g42
tp1497
I1
s(g293
g237
tp1498
I1
s(g36
g62
tp1499
I3
s(g75
g303
tp1500
I3
s(g118
g411
tp1501
I1
s(g228
g132
tp1502
I1
s(g31
g110
tp1503
I1
s(g85
g333
tp1504
I3
s(g33
g19
tp1505
I1
s(S'oauthlib/oauth2/draft25/__init__.py'
p1506
g917
tp1507
I7
s(g1261
S'oauthlib/oauth2/ext/django.py'
p1508
tp1509
I1
s(g13
g90
tp1510
I1
s(g215
g343
tp1511
I1
s(g30
g73
tp1512
I5
s(g170
g189
tp1513
I1
s(g910
g928
tp1514
I1
s(g127
g76
tp1515
I6
s(g440
g50
tp1516
I1
s(g10
g349
tp1517
I1
s(g264
g276
tp1518
I4
s(g24
g581
tp1519
I1
s(g241
g190
tp1520
I1
s(g160
g650
tp1521
I3
s(g141
g76
tp1522
I5
s(g357
g97
tp1523
I3
s(g75
g102
tp1524
I1
s(g643
g826
tp1525
I5
s(g201
g1022
tp1526
I6
s(g817
g1356
tp1527
I2
s(g124
g347
tp1528
I1
s(g176
g34
tp1529
I1
s(g688
g682
tp1530
I2
s(g434
g10
tp1531
I3
s(g485
g1320
tp1532
I2
s(g85
g115
tp1533
I1
s(g817
g867
tp1534
I2
s(S'oauthlib/oauth2/rfc6749/clients/web_application.py'
p1535
g1182
tp1536
I1
s(g125
g189
tp1537
I1
s(g333
g10
tp1538
I1
s(g127
g276
tp1539
I1
s(g18
g114
tp1540
I3
s(g293
g215
tp1541
I1
s(g36
g276
tp1542
I1
s(g497
g76
tp1543
I4
s(g175
g178
tp1544
I3
s(g124
g228
tp1545
I1
s(g15
g19
tp1546
I3
s(g829
S'tests/oauth1/rfc5849/endpoints/test_base.py'
p1547
tp1548
I1
s(g704
g198
tp1549
I1
s(g370
g417
tp1550
I2
s(g178
g62
tp1551
I3
s(g124
g132
tp1552
I1
s(g217
g42
tp1553
I1
s(g75
g142
tp1554
I1
s(g264
g343
tp1555
I2
s(g293
g42
tp1556
I1
s(g241
g349
tp1557
I1
s(g19
g34
tp1558
I1
s(g55
g252
tp1559
I5
s(g293
g241
tp1560
I1
s(g303
g102
tp1561
I1
s(g18
g303
tp1562
I6
s(g30
g36
tp1563
I5
s(S'oauthlib/oauth1/rfc5849/utils.py'
p1564
g220
tp1565
I1
s(g30
g127
tp1566
I5
s(g1136
g461
tp1567
I9
s(g30
g228
tp1568
I3
s(g397
S'tests/oauth1/rfc5849/test_utils.py'
p1569
tp1570
I1
s(g531
S'tests/oauth2/rfc6749/grant_types/test_authorization_code.py'
tp1571
I4
s(g4
S'oauthlib/oauth2/draft25/tokens.py'
p1572
tp1573
I5
s(S'oauthlib/oauth2/draft25/parameters.py'
p1574
g857
tp1575
I7
s(g477
g418
tp1576
I2
s(g308
g164
tp1577
I1
s(g178
g127
tp1578
I6
s(g117
g621
tp1579
I5
s(S'oauthlib/oauth2/rfc6749/request_validator.py'
p1580
g411
tp1581
I1
s(g395
g125
tp1582
I5
s(g708
g373
tp1583
I1
s(g127
g37
tp1584
I3
s(g333
g434
tp1585
I2
s(g347
g33
tp1586
I5
s(g200
g487
tp1587
I3
s(g154
g575
tp1588
I1
s(S'oauthlib/oauth2/rfc6749/clients/web_application.py'
p1589
g1022
tp1590
I5
s(g30
g215
tp1591
I7
s(g31
g114
tp1592
I3
s(g94
g928
tp1593
I1
s(g125
g114
tp1594
I6
s(g124
g104
tp1595
I1
s(g168
g1139
tp1596
I1
s(g160
g651
tp1597
I7
s(g75
g270
tp1598
I2
s(S'oauthlib/oauth2/draft25/__init__.py'
g129
tp1599
I2
s(g252
g97
tp1600
I3
s(g115
g110
tp1601
I1
s(g178
g42
tp1602
I1
s(g80
g434
tp1603
I1
s(g347
g22
tp1604
I1
s(g814
g650
tp1605
I4
s(g16
g34
tp1606
I1
s(g117
g603
tp1607
I3
s(g395
g275
tp1608
I1
s(g228
g231
tp1609
I1
s(g254
g127
tp1610
I5
s(g170
g434
tp1611
I4
s(g127
g170
tp1612
I6
s(g50
g110
tp1613
I1
s(g524
g284
tp1614
I7
s(g139
g76
tp1615
I4
s(g176
g11
tp1616
I1
s(g657
g7
tp1617
I1
s(g650
g257
tp1618
I3
s(g270
g275
tp1619
I1
s(g267
g286
tp1620
I1
s(g692
g25
tp1621
I1
s(g85
g238
tp1622
I1
s(g33
g90
tp1623
I1
s(g104
g43
tp1624
I4
s(g228
g349
tp1625
I1
s(g36
g194
tp1626
I1
s(g293
g175
tp1627
I3
s(g125
g434
tp1628
I2
s(g519
g190
tp1629
I3
s(g440
g13
tp1630
I6
s(g36
g519
tp1631
I1
s(g330
g275
tp1632
I1
s(g206
g458
tp1633
I1
s(g739
g56
tp1634
I6
s(g125
g34
tp1635
I1
s(S'oauthlib/oauth2/draft25/grant_types.py'
S'tests/oauth2/draft25/test_servers.py'
tp1636
I11
s(g415
g204
tp1637
I2
s(g895
g151
tp1638
I5
s(g73
g11
tp1639
I1
s(g90
g349
tp1640
I1
s(g575
g137
tp1641
I1
s(g18
g228
tp1642
I4
s(g42
g343
tp1643
I1
s(g87
g250
tp1644
I1
s(g124
g142
tp1645
I1
s(g619
g320
tp1646
I1
s(g13
g102
tp1647
I1
s(g303
g241
tp1648
I1
s(g575
g458
tp1649
I1
s(g231
g194
tp1650
I1
s(g392
g485
tp1651
I1
s(g252
g651
tp1652
I3
s(g430
g682
tp1653
I2
s(g131
g42
tp1654
I1
s(g18
g270
tp1655
I2
s(g131
g176
tp1656
I1
s(g352
g345
tp1657
I1
s(g249
g309
tp1658
I1
s(g375
g8
tp1659
I1
s(g18
g241
tp1660
I1
s(g764
g619
tp1661
I1
s(g440
g170
tp1662
I4
s(g162
g110
tp1663
I1
s(g228
g276
tp1664
I2
s(g102
g276
tp1665
I1
s(g88
g309
tp1666
I1
s(g64
g87
tp1667
I1
s(g173
g176
tp1668
I1
s(g58
g22
tp1669
I1
s(g13
g176
tp1670
I1
s(S'oauthlib/oauth2/rfc6749/grant_types/__init__.py'
S'tests/oauth2/rfc6749/endpoints/test_scope_handling.py'
tp1671
I1
s(g415
g418
tp1672
I2
s(g708
g449
tp1673
I1
s(g120
g92
tp1674
I1
s(g834
g206
tp1675
I1
s(g27
g1014
tp1676
I3
s(g440
g22
tp1677
I1
s(g85
g190
tp1678
I1
s(g217
g264
tp1679
I1
s(g124
g78
tp1680
I3
s(g189
g238
tp1681
I1
s(g254
g276
tp1682
I1
s(g62
g50
tp1683
I1
s(g540
g198
tp1684
I1
s(g231
g215
tp1685
I1
s(g31
g109
tp1686
I1
s(g603
g411
tp1687
I1
s(g73
g194
tp1688
I1
s(g333
g264
tp1689
I2
s(g127
g217
tp1690
I5
s(g170
g11
tp1691
I5
s(g76
g132
tp1692
I1
s(g156
g1356
tp1693
I2
s(g37
g34
tp1694
I1
s(g75
g139
tp1695
I4
s(g303
g173
tp1696
I3
s(g127
g132
tp1697
I1
s(g345
g630
tp1698
I1
s(g238
g43
tp1699
I1
s(g519
g34
tp1700
I1
s(g50
g11
tp1701
I1
s(g139
g62
tp1702
I3
s(g115
g34
tp1703
I5
s(g395
g215
tp1704
I1
s(g132
g16
tp1705
I1
s(g125
g11
tp1706
I2
s(g25
g385
tp1707
I2
s(g303
g190
tp1708
I1
s(g31
g33
tp1709
I5
s(g80
g175
tp1710
I1
s(g303
g31
tp1711
I4
s(g13
g33
tp1712
I5
s(g64
g458
tp1713
I1
s(g36
g231
tp1714
I1
s(g117
g60
tp1715
I11
s(g76
g275
tp1716
I1
s(g33
g238
tp1717
I6
s(g18
g31
tp1718
I4
s(g42
g190
tp1719
I1
s(g189
g115
tp1720
I1
s(g678
g477
tp1721
I2
s(g519
g276
tp1722
I1
s(g114
g43
tp1723
I3
s(g254
g19
tp1724
I1
s(g270
g170
tp1725
I1
s(g13
g246
tp1726
I1
s(g333
g19
tp1727
I2
s(g357
g68
tp1728
I2
s(g42
g11
tp1729
I2
s(g293
g102
tp1730
I1
s(g80
g139
tp1731
I1
s(g303
g125
tp1732
I3
s(g175
g194
tp1733
I1
s(g58
g110
tp1734
I1
s(g144
g284
tp1735
I2
s(g125
g85
tp1736
I8
s(g260
g365
tp1737
I1
s(g217
g19
tp1738
I1
s(g333
g349
tp1739
I1
s(g254
g34
tp1740
I1
s(g139
g85
tp1741
I4
s(g139
g78
tp1742
I1
s(g114
g246
tp1743
I1
s(g293
g497
tp1744
I5
s(g726
g198
tp1745
I1
s(g203
g682
tp1746
I2
s(g139
g176
tp1747
I2
s(g67
g208
tp1748
I2
s(g347
g127
tp1749
I10
s(g1156
g817
tp1750
I2
s(g85
g34
tp1751
I3
s(g114
g190
tp1752
I1
s(g18
g264
tp1753
I1
s(g109
g34
tp1754
I1
s(g99
g197
tp1755
I1
s(g131
g330
tp1756
I1
s(g18
g254
tp1757
I13
s(g48
g603
tp1758
I3
s(g991
g682
tp1759
I2
s(g21
g176
tp1760
I4
s(g31
g176
tp1761
I1
s(g127
g110
tp1762
I1
s(g170
g58
tp1763
I1
s(g270
g90
tp1764
I1
s(g58
g333
tp1765
I1
s(g21
g114
tp1766
I3
s(g375
g352
tp1767
I1
s(S'oauthlib/oauth2/rfc6749/grant_types/refresh_token.py'
p1768
g411
tp1769
I1
s(g131
g497
tp1770
I5
s(g293
g330
tp1771
I2
s(g30
g62
tp1772
I3
s(g237
g132
tp1773
I1
s(g434
g276
tp1774
I2
s(g395
g175
tp1775
I3
s(g99
g540
tp1776
I1
s(g194
g333
tp1777
I2
s(g76
g217
tp1778
I3
s(g361
S'tests/unittest/__init__.py'
tp1779
I1
s(g333
g276
tp1780
I2
s(g254
g124
tp1781
I1
s(g246
g90
tp1782
I10
s(S'oauthlib/oauth1/__init__.py'
p1783
g889
tp1784
I2
s(g437
S'tests/oauth2/rfc6749/grant_types/test_implicit.py'
p1785
tp1786
I1
s(g62
g109
tp1787
I1
s(g58
g330
tp1788
I2
s(g355
g384
tp1789
I1
s(g85
g10
tp1790
I5
s(g21
g85
tp1791
I4
s(g178
g349
tp1792
I1
s(g189
g241
tp1793
I1
s(g120
g373
tp1794
I1
s(S'tests/oauth2/rfc6749/clients/test_legacy_application.py'
g1404
tp1795
I1
s(g739
g97
tp1796
I5
s(g445
S'oauthlib/oauth1/rfc5849/endpoints/signature_only.py'
p1797
tp1798
I5
s(g33
g231
tp1799
I1
s(g293
g30
tp1800
I5
s(g58
g37
tp1801
I1
s(g308
g8
tp1802
I1
s(g22
g115
tp1803
I4
s(g13
g127
tp1804
I7
s(g58
g276
tp1805
I1
s(g173
g90
tp1806
I1
s(g384
g581
tp1807
I1
s(g124
g349
tp1808
I1
s(g395
g16
tp1809
I1
s(g928
g316
tp1810
I1
s(g62
g110
tp1811
I3
s(g115
g10
tp1812
I1
s(g80
g90
tp1813
I1
s(g36
g114
tp1814
I3
s(g42
g434
tp1815
I2
s(g189
g42
tp1816
I1
s(g139
g333
tp1817
I1
s(g36
g434
tp1818
I1
s(g180
g485
tp1819
I1
s(g7
g449
tp1820
I1
s(g270
g228
tp1821
I1
s(g657
g120
tp1822
I1
s(g293
g142
tp1823
I1
s(g249
g121
tp1824
I1
s(g708
g309
tp1825
I1
s(g170
g162
tp1826
I2
s(g347
g43
tp1827
I2
s(g739
g160
tp1828
I8
s(g34
g78
tp1829
I2
s(g167
g583
tp1830
I1
s(g67
g56
tp1831
I4
s(g546
S'tests/oauth2/rfc6749/test_parameters.py'
tp1832
I2
s(g215
g43
tp1833
I1
s(g972
g299
tp1834
I2
s(g139
g124
tp1835
I1
s(g131
g43
tp1836
I1
s(g661
g650
tp1837
I3
s(g80
g18
tp1838
I1
s(g418
g682
tp1839
I2
s(g175
g497
tp1840
I3
s(g139
g15
tp1841
I4
s(g154
g206
tp1842
I1
s(g80
g395
tp1843
I1
s(g256
g650
tp1844
I3
s(g11
g343
tp1845
I2
s(g303
g62
tp1846
I3
s(g16
g264
tp1847
I2
s(S'tests/oauth2/rfc6749/grant_types/test_implicit.py'
p1848
g485
tp1849
I1
s(g200
g1580
tp1850
I2
s(g31
g170
tp1851
I19
s(g280
g630
tp1852
I1
s(g991
g415
tp1853
I2
s(g127
g33
tp1854
I5
s(g75
g13
tp1855
I3
s(g173
g241
tp1856
I1
s(g115
g132
tp1857
I1
s(g467
g1320
tp1858
I1
s(g330
g78
tp1859
I1
s(S'oauthlib/oauth2/draft25/grant_types.py'
g52
tp1860
I2
s(g36
g228
tp1861
I4
s(g726
g467
tp1862
I1
s(g109
g115
tp1863
I2
s(g361
S'tests/test_common.py'
tp1864
I1
s(g58
g246
tp1865
I1
s(g88
g458
tp1866
I1
s(g75
g241
tp1867
I1
s(g666
g150
tp1868
I4
s(g73
g497
tp1869
I8
s(g430
g299
tp1870
I2
s(g440
g33
tp1871
I7
s(g400
g67
tp1872
I3
s(g102
g330
tp1873
I1
s(g395
g90
tp1874
I1
s(g85
g114
tp1875
I3
s(g270
g217
tp1876
I1
s(g308
g250
tp1877
I1
s(g175
g10
tp1878
I1
s(g115
g275
tp1879
I1
s(g375
g137
tp1880
I2
s(g303
g10
tp1881
I1
s(g75
g170
tp1882
I3
s(g114
g50
tp1883
I1
s(S'.travis_install.py'
p1884
S'oauthlib/oauth2/rfc6749/request_validator.py'
tp1885
I1
s(g817
g282
tp1886
I2
s(g170
g109
tp1887
I1
s(g241
g10
tp1888
I1
s(g194
g10
tp1889
I1
s(g154
g630
tp1890
I1
s(g254
g237
tp1891
I1
s(g237
g10
tp1892
I1
s(g303
g11
tp1893
I1
s(g30
g58
tp1894
I1
s(g173
g78
tp1895
I1
s(g173
g162
tp1896
I1
s(g52
S'tests/oauth2/draft25/test_grant_types.py'
tp1897
I2
s(g293
g519
tp1898
I1
s(g330
g16
tp1899
I1
s(g254
g246
tp1900
I1
s(g80
g15
tp1901
I1
s(g36
g16
tp1902
I1
s(g173
g276
tp1903
I1
s(g345
g575
tp1904
I1
s(g194
g343
tp1905
I1
s(g260
g731
tp1906
I1
s(g275
g11
tp1907
I1
s(g31
g50
tp1908
I1
s(g957
g1205
tp1909
I2
s(g497
g115
tp1910
I2
s(S'tests/oauth2/rfc6749/clients/test_backend_application.py'
p1911
g559
tp1912
I6
s(g30
g497
tp1913
I5
s(g485
g540
tp1914
I1
s(g619
g203
tp1915
I1
s(g175
g43
tp1916
I1
s(g237
g162
tp1917
I1
s(g395
g343
tp1918
I1
s(S'oauthlib/oauth2/draft25/__init__.py'
p1919
g5
tp1920
I8
s(g280
g7
tp1921
I1
s(g739
g257
tp1922
I4
s(g117
g1589
tp1923
I5
s(g160
g68
tp1924
I3
s(g254
g162
tp1925
I1
s(g189
g22
tp1926
I1
s(g21
g276
tp1927
I1
s(S'tests/oauth1/rfc5849/__init__.py'
p1928
g220
tp1929
I1
s(g440
g127
tp1930
I6
s(g189
g330
tp1931
I2
s(g62
g173
tp1932
I3
s(g404
S'oauthlib/oauth2/rfc6749/exceptions.py'
p1933
tp1934
I2
s(S'oauthlib/oauth2/draft25/__init__.py'
p1935
g858
tp1936
I5
s(g80
g131
tp1937
I1
s(g395
g73
tp1938
I5
s(g15
g215
tp1939
I1
s(g147
g83
tp1940
I4
s(g440
g162
tp1941
I1
s(g440
g124
tp1942
I1
s(g58
g42
tp1943
I1
s(g36
g142
tp1944
I1
s(g104
g15
tp1945
I6
s(g75
g246
tp1946
I1
s(g139
g102
tp1947
I1
s(g13
g194
tp1948
I1
s(g62
g104
tp1949
I5
s(g345
g88
tp1950
I1
s(g178
g50
tp1951
I1
s(g141
g190
tp1952
I1
s(g200
g603
tp1953
I6
s(S'oauthlib/oauth2/draft25/__init__.py'
p1954
g168
tp1955
I1
s(g36
g43
tp1956
I1
s(g115
g264
tp1957
I1
s(g127
g190
tp1958
I1
s(g254
g76
tp1959
I3
s(g164
g309
tp1960
I1
s(g18
g43
tp1961
I1
s(g345
g449
tp1962
I1
s(g347
g37
tp1963
I3
s(g400
g651
tp1964
I3
s(g104
g217
tp1965
I3
s(g440
g104
tp1966
I4
s(g357
g661
tp1967
I2
s(g75
g238
tp1968
I1
s(g73
g142
tp1969
I1
s(g19
g264
tp1970
I7
s(g156
g855
tp1971
I2
s(g692
g384
tp1972
I1
s(g519
g333
tp1973
I1
s(g48
g183
tp1974
I5
s(g303
g58
tp1975
I1
s(g124
g434
tp1976
I1
s(g127
g90
tp1977
I1
s(g48
g385
tp1978
I6
s(g603
g1768
tp1979
I1
s(g85
g275
tp1980
I1
s(g109
g16
tp1981
I1
s(g139
g190
tp1982
I1
s(g142
g22
tp1983
I1
s(g681
g417
tp1984
I2
s(g131
g142
tp1985
I1
s(g397
S'tests/oauth1/__init__.py'
p1986
tp1987
I1
s(g180
g589
tp1988
I1
s(g200
g118
tp1989
I3
s(S'tests/oauth1/rfc5849/test_signatures.py'
p1990
g220
tp1991
I1
s(g972
g319
tp1992
I2
s(g178
g141
tp1993
I6
s(g137
g250
tp1994
I1
s(g85
g237
tp1995
I1
s(g497
g162
tp1996
I1
s(g395
g238
tp1997
I1
s(g85
g330
tp1998
I1
s(g21
g264
tp1999
I1
s(g217
g50
tp2000
I1
s(g162
g42
tp2001
I1
s(g293
g15
tp2002
I3
s(g157
g284
tp2003
I7
s(g215
g10
tp2004
I1
s(g64
g7
tp2005
I1
s(g131
g343
tp2006
I1
s(g352
g65
tp2007
I1
s(g80
g217
tp2008
I1
s(g293
g343
tp2009
I1
s(g147
g82
tp2010
I15
s(g330
g19
tp2011
I1
s(g254
g104
tp2012
I3
s(g73
g125
tp2013
I6
s(g8
g373
tp2014
I1
s(g75
g19
tp2015
I1
s(g139
g73
tp2016
I5
s(g603
g118
tp2017
I3
s(g1240
g411
tp2018
I1
s(g125
g241
tp2019
I1
s(g80
g142
tp2020
I1
s(g204
g682
tp2021
I2
s(g75
g43
tp2022
I1
s(g237
g189
tp2023
I1
s(g24
g411
tp2024
I1
s(g13
g15
tp2025
I5
s(g270
g347
tp2026
I1
s(g708
g345
tp2027
I1
s(g87
g575
tp2028
I1
s(g228
g102
tp2029
I10
s(g175
g141
tp2030
I3
s(g764
g477
tp2031
I2
s(g18
g85
tp2032
I4
s(g82
g1356
tp2033
I4
s(g27
g1797
tp2034
I3
s(g21
g31
tp2035
I4
s(g200
g24
tp2036
I4
s(g231
g333
tp2037
I1
s(S'oauthlib/common.py'
g978
tp2038
I5
s(g252
g257
tp2039
I3
s(g30
g109
tp2040
I3
s(g118
g384
tp2041
I1
s(g142
g115
tp2042
I1
s(g249
g373
tp2043
I1
s(g80
g440
tp2044
I1
s(g238
g276
tp2045
I1
s(S'tests/oauth2/rfc6749/endpoints/test_credentials_preservation.py'
p2046
g485
tp2047
I1
s(S'oauthlib/oauth.py'
S'tests/test_signatures.py'
tp2048
I6
s(g30
g104
tp2049
I3
s(g10
g276
tp2050
I1
s(g170
g78
tp2051
I1
s(g241
g264
tp2052
I2
s(S'oauthlib/oauth1/rfc5849/__init__.py'
p2053
S'oauthlib/oauth2/draft25/grant_types.py'
tp2054
I1
s(g303
g497
tp2055
I3
s(g237
g264
tp2056
I1
s(g156
g666
tp2057
I7
s(g395
g190
tp2058
I1
s(g156
g926
tp2059
I2
s(g194
g434
tp2060
I2
s(g347
g110
tp2061
I1
s(g280
g87
tp2062
I1
s(g446
g713
tp2063
I2
s(g106
S'tests/oauth2/rfc6749/clients/test_service_application.py'
p2064
tp2065
I1
s(g68
g651
tp2066
I3
s(g293
g162
tp2067
I1
s(g30
g190
tp2068
I5
s(g231
g264
tp2069
I1
s(g76
g173
tp2070
I3
s(g27
S'oauthlib/oauth1/rfc5849/signature.py'
tp2071
I2
s(g114
g519
tp2072
I1
s(g124
g16
tp2073
I1
s(g170
g37
tp2074
I1
s(g175
g238
tp2075
I1
s(g58
g19
tp2076
I1
s(g114
g37
tp2077
I3
s(g298
g764
tp2078
I2
s(g131
g189
tp2079
I1
s(g132
g343
tp2080
I1
s(g21
g33
tp2081
I5
s(g75
g90
tp2082
I1
s(S'oauthlib/oauth2/rfc6749/clients/__init__.py'
p2083
g107
tp2084
I1
s(g67
g500
tp2085
I3
s(g308
g373
tp2086
I1
s(g13
g125
tp2087
I6
s(g521
g651
tp2088
I5
s(g104
g189
tp2089
I1
s(g814
g257
tp2090
I3
s(g141
g50
tp2091
I1
s(g347
g276
tp2092
I1
s(g183
g411
tp2093
I1
s(g62
g90
tp2094
I1
s(g254
g347
tp2095
I5
s(g141
g58
tp2096
I1
s(g1022
g384
tp2097
I1
s(g73
g440
tp2098
I7
s(g270
g349
tp2099
I1
s(g237
g58
tp2100
I1
s(g254
g75
tp2101
I4
s(g249
g458
tp2102
I1
s(g127
g434
tp2103
I2
s(g935
g370
tp2104
I2
s(g73
g173
tp2105
I5
s(g125
g10
tp2106
I3
s(g299
g682
tp2107
I2
s(g228
g110
tp2108
I6
s(g347
g162
tp2109
I2
s(g154
g309
tp2110
I1
s(g173
g215
tp2111
I1
s(g237
g434
tp2112
I1
s(g62
g275
tp2113
I3
s(g18
g497
tp2114
I5
s(g417
g203
tp2115
I2
s(g25
S'oauthlib/oauth2/rfc6749/grant_types/resource_owner_password_credentials.py'
p2116
tp2117
I2
s(g497
g173
tp2118
I5
s(g217
g238
tp2119
I2
s(g497
g62
tp2120
I3
s(g901
g212
tp2121
I2
s(g260
S'oauthlib/oauth1/rfc5849/endpoints/authorization.py'
p2122
tp2123
I1
s(g666
g895
tp2124
I4
s(g73
g115
tp2125
I2
s(g31
g190
tp2126
I1
s(g18
g78
tp2127
I1
s(g18
g62
tp2128
I3
s(S'oauthlib/oauth2/draft25/tokens.py'
p2129
g268
tp2130
I2
s(g114
g194
tp2131
I1
s(g64
g449
tp2132
I1
s(g110
g11
tp2133
I2
s(g30
g162
tp2134
I1
s(g10
g343
tp2135
I3
s(g657
g309
tp2136
I1
s(g104
g275
tp2137
I1
s(g120
g630
tp2138
I1
s(g102
g15
tp2139
I6
s(g21
g217
tp2140
I5
s(g603
g487
tp2141
I3
s(g546
g932
tp2142
I2
s(g24
g201
tp2143
I3
s(g156
g151
tp2144
I2
s(g173
g237
tp2145
I1
s(g303
g189
tp2146
I1
s(g22
g109
tp2147
I1
s(S'oauthlib/oauth2/draft25/errors.py'
S'tests/oauth2/draft25/test_server.py'
p2148
tp2149
I4
s(g176
g37
tp2150
I1
s(g991
g204
tp2151
I2
s(g231
g330
tp2152
I4
s(g175
g115
tp2153
I1
s(g75
g16
tp2154
I1
s(g170
g343
tp2155
I5
s(g739
g500
tp2156
I4
s(g178
g22
tp2157
I7
s(g117
g737
tp2158
I8
s(g21
g131
tp2159
I5
s(g189
g276
tp2160
I1
s(g497
g238
tp2161
I2
s(g249
g449
tp2162
I1
s(g104
g434
tp2163
I5
s(g15
g343
tp2164
I4
s(g217
g349
tp2165
I2
s(g124
g31
tp2166
I1
s(g124
g115
tp2167
I1
s(g270
g37
tp2168
I1
s(g765
g682
tp2169
I2
s(g347
g519
tp2170
I1
s(g139
g110
tp2171
I1
s(g75
g78
tp2172
I1
s(g25
g581
tp2173
I2
s(g124
g76
tp2174
I1
s(g275
g10
tp2175
I1
s(g175
g90
tp2176
I19
s(g176
g42
tp2177
I1
s(g238
g11
tp2178
I1
s(g765
g299
tp2179
I2
s(S'oauthlib/oauth2/draft25/tokens.py'
p2180
g224
tp2181
I1
s(g345
g697
tp2182
I1
s(g92
g373
tp2183
I1
s(g142
g241
tp2184
I1
s(g75
g175
tp2185
I1
s(g42
g276
tp2186
I2
s(g445
g40
tp2187
I4
s(g21
g19
tp2188
I1
s(g131
g519
tp2189
I1
s(g203
g320
tp2190
I2
s(g333
g34
tp2191
I3
s(g153
g345
tp2192
I1
s(g139
g125
tp2193
I5
s(g237
g11
tp2194
I1
s(g345
g137
tp2195
I1
s(g27
S'oauthlib/oauth1/rfc5849/request_validator.py'
tp2196
I2
s(g21
g303
tp2197
I6
s(g170
g176
tp2198
I1
s(g215
g19
tp2199
I1
s(g124
g519
tp2200
I1
s(g131
g440
tp2201
I5
s(g257
g97
tp2202
I4
s(g124
g15
tp2203
I1
s(g115
g190
tp2204
I1
s(g217
g10
tp2205
I1
s(g972
g619
tp2206
I1
s(g603
g1240
tp2207
I1
s(g238
g241
tp2208
I1
s(g104
g215
tp2209
I1
s(g270
g76
tp2210
I1
s(g173
g37
tp2211
I1
s(g1506
g268
tp2212
I4
s(g30
g125
tp2213
I5
s(g164
g88
tp2214
I1
s(g293
g270
tp2215
I2
s(g546
S'tests/oauth2/rfc6749/clients/test_web_application.py'
tp2216
I2
s(g36
g162
tp2217
I1
s(g131
g190
tp2218
I5
s(g270
g127
tp2219
I1
s(g115
g19
tp2220
I1
s(g50
g241
tp2221
I1
s(g80
g50
tp2222
I1
s(g36
g127
tp2223
I6
s(g124
g238
tp2224
I1
s(g73
g16
tp2225
I1
s(g320
g682
tp2226
I2
s(g33
g22
tp2227
I3
s(g375
g280
tp2228
I1
s(g315
g1345
tp2229
I1
s(g73
g215
tp2230
I1
s(g1022
g1768
tp2231
I4
s(g888
S'oauthlib/oauth1/rfc5849/endpoints/signature_only.py'
p2232
tp2233
I2
s(g200
g48
tp2234
I4
s(g124
g189
tp2235
I1
s(g630
g373
tp2236
I1
s(g254
g37
tp2237
I1
s(g21
g50
tp2238
I5
s(g90
g241
tp2239
I1
s(g308
g92
tp2240
I1
s(g176
g19
tp2241
I1
s(g241
g276
tp2242
I2
s(g345
g7
tp2243
I1
s(g1204
g958
tp2244
I3
s(g178
g34
tp2245
I1
s(g395
g142
tp2246
I3
s(g345
g65
tp2247
I1
s(g315
g1547
tp2248
I1
s(g80
g241
tp2249
I1
s(g375
g575
tp2250
I1
s(g237
g343
tp2251
I5
s(g489
g917
tp2252
I3
s(g131
g36
tp2253
I5
s(g189
g343
tp2254
I1
s(g139
g42
tp2255
I1
s(g36
g109
tp2256
I1
s(g176
g215
tp2257
I1
s(g275
g37
tp2258
I1
s(g170
g241
tp2259
I1
s(g319
g204
tp2260
I2
s(g18
g349
tp2261
I1
s(g212
g151
tp2262
I3
s(g189
g142
tp2263
I1
s(g75
g22
tp2264
I1
s(g25
g737
tp2265
I3
s(g114
g34
tp2266
I4
s(g15
g241
tp2267
I2
s(g82
g817
tp2268
I2
s(g1797
g713
tp2269
I3
s(g21
g275
tp2270
I1
s(g62
g343
tp2271
I3
s(g58
g10
tp2272
I1
s(g62
g170
tp2273
I5
s(g1022
g1580
tp2274
I5
s(g176
g22
tp2275
I1
s(g270
g497
tp2276
I1
s(g238
g264
tp2277
I1
s(g50
g109
tp2278
I1
s(g935
g477
tp2279
I2
s(g415
g299
tp2280
I2
s(g76
g11
tp2281
I3
s(g1022
g355
tp2282
I7
s(g104
g349
tp2283
I1
s(g115
g11
tp2284
I1
s(g440
g246
tp2285
I1
s(g31
g231
tp2286
I1
s(g15
g176
tp2287
I1
s(g384
g60
tp2288
I1
s(g139
g275
tp2289
I1
s(g39
S'oauthlib/oauth2/rfc6749/grant_types/client_credentials.py'
p2290
tp2291
I3
s(g92
g309
tp2292
I1
s(g109
g194
tp2293
I1
s(g125
g19
tp2294
I2
s(S'oauthlib/oauth2/rfc6749/clients/legacy_application.py'
p2295
g546
tp2296
I1
s(g231
g241
tp2297
I1
s(g18
g37
tp2298
I1
s(g467
g485
tp2299
I1
s(g206
g309
tp2300
I1
s(g21
g170
tp2301
I4
s(g347
g349
tp2302
I1
s(g21
g132
tp2303
I1
s(g276
g78
tp2304
I2
s(S'oauthlib/common.py'
S'tests/oauth1/rfc5849/endpoints/test_resource.py'
tp2305
I2
s(g33
g110
tp2306
I1
s(g110
g333
tp2307
I4
s(g132
g434
tp2308
I1
s(g141
g34
tp2309
I1
s(g104
g276
tp2310
I1
s(g18
g519
tp2311
I1
s(S'oauthlib/common.py'
p2312
g1785
tp2313
I1
s(g85
g343
tp2314
I8
s(g303
g109
tp2315
I1
s(g254
g33
tp2316
I5
s(g117
g581
tp2317
I7
s(g83
g150
tp2318
I4
s(g117
g1768
tp2319
I5
s(g121
g630
tp2320
I1
s(g241
g434
tp2321
I2
s(g18
g215
tp2322
I1
s(g293
g170
tp2323
I3
s(g254
g343
tp2324
I1
s(g109
g434
tp2325
I1
s(g275
g264
tp2326
I1
s(g519
g11
tp2327
I1
s(g298
g972
tp2328
I2
s(S'tests/oauth2/rfc6749/grant_types/test_authorization_code.py'
p2329
g327
tp2330
I10
s(g2122
g928
tp2331
I1
s(g62
g276
tp2332
I1
s(g131
g16
tp2333
I1
s(g87
g458
tp2334
I1
s(g22
g264
tp2335
I1
s(g21
g13
tp2336
I6
s(g347
g10
tp2337
I2
s(g33
g237
tp2338
I3
s(g228
g114
tp2339
I3
s(g132
g276
tp2340
I1
s(g228
g519
tp2341
I1
s(g62
g58
tp2342
I1
s(g1564
g397
tp2343
I1
s(g48
g201
tp2344
I8
s(g497
g22
tp2345
I1
s(g643
g357
tp2346
I2
s(g270
g19
tp2347
I1
s(g30
g37
tp2348
I1
s(g125
g276
tp2349
I1
s(g928
g1547
tp2350
I1
s(g30
g347
tp2351
I5
s(g180
g392
tp2352
I1
s(g22
g19
tp2353
I1
s(g850
g5
tp2354
I4
s(g375
g250
tp2355
I1
s(g330
g109
tp2356
I1
s(g293
g16
tp2357
I1
s(g18
g246
tp2358
I1
s(g215
g275
tp2359
I1
s(g75
g519
tp2360
I1
s(g102
g115
tp2361
I1
s(g48
g1022
tp2362
I6
s(g115
g333
tp2363
I1
s(g395
g76
tp2364
I3
s(g139
g330
tp2365
I3
s(g156
g1156
tp2366
I3
s(g141
g217
tp2367
I5
s(g345
g206
tp2368
I1
s(g58
g142
tp2369
I1
s(g256
g826
tp2370
I5
s(g58
g132
tp2371
I1
s(g395
g85
tp2372
I3
s(g497
g19
tp2373
I1
s(g16
g276
tp2374
I2
s(g147
g282
tp2375
I6
s(g127
g162
tp2376
I3
s(g104
g190
tp2377
I2
s(g330
g190
tp2378
I1
s(g36
g58
tp2379
I1
s(g497
g237
tp2380
I2
s(g43
g434
tp2381
I7
s(g80
g125
tp2382
I1
s(g30
g241
tp2383
I1
s(g18
g73
tp2384
I5
s(g1954
g583
tp2385
I1
s(g33
g10
tp2386
I1
s(g303
g343
tp2387
I1
s(g64
g309
tp2388
I1
s(g142
g110
tp2389
I1
s(g189
g50
tp2390
I3
s(g80
g303
tp2391
I1
s(g231
g50
tp2392
I5
s(g928
g947
tp2393
I1
s(g76
g170
tp2394
I13
s(g395
g246
tp2395
I1
s(g75
g125
tp2396
I3
s(g156
g895
tp2397
I2
s(g972
g682
tp2398
I2
s(g375
g630
tp2399
I1
s(S'setup.py'
g361
tp2400
I1
s(g159
g56
tp2401
I3
s(g260
g366
tp2402
I1
s(g246
g349
tp2403
I1
s(g180
g704
tp2404
I1
s(g141
g62
tp2405
I5
s(g241
g43
tp2406
I2
s(g36
g141
tp2407
I5
s(g15
g37
tp2408
I3
s(g139
g162
tp2409
I1
s(g260
g910
tp2410
I1
s(S'tests/oauth2/__init__.py'
p2411
g220
tp2412
I1
s(g62
g142
tp2413
I1
s(g132
g264
tp2414
I1
s(g99
g704
tp2415
I1
s(g519
g434
tp2416
I1
s(g178
g519
tp2417
I1
s(g121
g250
tp2418
I1
s(g19
g78
tp2419
I2
s(g139
g276
tp2420
I1
s(g125
g62
tp2421
I7
s(g514
g829
tp2422
I1
s(g124
g141
tp2423
I1
s(g452
g357
tp2424
I2
s(g440
g16
tp2425
I1
s(g156
g278
tp2426
I2
s(g121
g7
tp2427
I1
s(g114
g241
tp2428
I1
s(g440
g78
tp2429
I1
s(g127
g330
tp2430
I1
s(g73
g276
tp2431
I1
s(g125
g127
tp2432
I8
s(g681
g415
tp2433
I2
s(S'oauthlib/oauth2/__init__.py'
p2434
g220
tp2435
I1
s(g50
g78
tp2436
I1
s(g400
g257
tp2437
I3
s(g58
g215
tp2438
I1
s(g217
g333
tp2439
I1
s(g36
g90
tp2440
I1
s(g15
g276
tp2441
I7
s(g249
g164
tp2442
I1
s(g13
g19
tp2443
I1
s(g178
g162
tp2444
I1
s(g30
g178
tp2445
I5
s(g142
g132
tp2446
I1
s(g82
S'oauthlib/uri_validate.py'
p2447
tp2448
I4
s(g115
g78
tp2449
I1
s(g18
g90
tp2450
I1
s(g15
g58
tp2451
I1
s(g189
g162
tp2452
I1
s(g153
g164
tp2453
I1
s(g75
g73
tp2454
I3
s(g497
g347
tp2455
I6
s(g36
g264
tp2456
I1
s(g27
S'oauthlib/oauth2/rfc6749/endpoints/base.py'
tp2457
I3
s(g194
g34
tp2458
I1
s(g176
g190
tp2459
I1
s(g293
g62
tp2460
I3
s(g80
g16
tp2461
I1
s(g440
g58
tp2462
I1
s(g114
g16
tp2463
I1
s(g238
g115
tp2464
I7
s(g75
g343
tp2465
I1
s(g519
g22
tp2466
I1
s(g110
g37
tp2467
I2
s(g147
g901
tp2468
I7
s(g280
g92
tp2469
I1
s(g189
g90
tp2470
I1
s(g384
g1580
tp2471
I1
s(g189
g246
tp2472
I1
s(S'oauthlib/oauth2/rfc6749/endpoints/resource.py'
S'tests/oauth2/rfc6749/endpoints/test_claims_handling.py'
tp2473
I1
s(g125
g228
tp2474
I9
s(g347
g50
tp2475
I1
s(g189
g34
tp2476
I1
s(g124
g13
tp2477
I1
s(g170
g90
tp2478
I1
s(g148
g212
tp2479
I2
s(g102
g58
tp2480
I1
s(g231
g434
tp2481
I1
s(g189
g434
tp2482
I1
s(g270
g194
tp2483
I1
s(g18
g30
tp2484
I5
s(g270
g173
tp2485
I1
s(S'oauthlib/oauth1/__init__.py'
S'oauthlib/oauth1/rfc5849/errors.py'
tp2486
I3
s(g124
g246
tp2487
I3
s(g215
g330
tp2488
I1
s(g94
g1547
tp2489
I1
s(g75
g62
tp2490
I3
s(g814
g160
tp2491
I3
s(g73
g349
tp2492
I1
s(g36
g31
tp2493
I4
s(g308
g87
tp2494
I1
s(g22
g194
tp2495
I1
s(g395
g170
tp2496
I3
s(g162
g276
tp2497
I1
s(g330
g194
tp2498
I1
s(g36
g78
tp2499
I1
s(g250
g373
tp2500
I1
s(g175
g241
tp2501
I1
s(g1022
g385
tp2502
I4
s(g440
g125
tp2503
I6
s(g30
g519
tp2504
I7
s(g131
g102
tp2505
I1
s(g142
g34
tp2506
I1
s(g85
g276
tp2507
I1
s(g175
g110
tp2508
I1
s(g22
g42
tp2509
I1
s(g531
S'tests/oauth2/rfc6749/grant_types/test_openid_connect.py'
tp2510
I2
s(g141
g42
tp2511
I1
s(g36
g349
tp2512
I1
s(g651
g500
tp2513
I4
s(g33
g241
tp2514
I1
s(g643
g650
tp2515
I4
s(g231
g275
tp2516
I1
s(g293
g33
tp2517
I5
s(g139
g231
tp2518
I4
s(g293
g139
tp2519
I6
s(g154
g697
tp2520
I1
s(g102
g519
tp2521
I1
s(g15
g519
tp2522
I1
s(g256
g252
tp2523
I6
s(g90
g238
tp2524
I1
s(g62
g115
tp2525
I1
s(g104
g241
tp2526
I1
s(g142
g215
tp2527
I1
s(g43
g34
tp2528
I1
s(g495
S'tests/oauth2/draft25/test_utils.py'
p2529
tp2530
I5
s(g270
g237
tp2531
I1
s(g935
g765
tp2532
I2
s(g352
g309
tp2533
I1
s(g114
g22
tp2534
I1
s(g570
S'tests/oauth2/rfc6749/clients/test_web_application.py'
p2535
tp2536
I1
s(g48
g384
tp2537
I2
s(g901
g895
tp2538
I5
s(g127
g246
tp2539
I1
s(g110
g264
tp2540
I2
s(g228
g215
tp2541
I1
s(g102
g215
tp2542
I1
s(g31
g217
tp2543
I3
s(g228
g42
tp2544
I2
s(g357
g739
tp2545
I3
s(g293
g85
tp2546
I3
s(g1103
g397
tp2547
I1
s(g27
S'oauthlib/oauth1/rfc5849/endpoints/authorization.py'
tp2548
I2
s(g75
g132
tp2549
I1
s(g357
g650
tp2550
I2
s(g215
g109
tp2551
I1
s(g73
g275
tp2552
I1
s(g142
g78
tp2553
I1
s(g110
g19
tp2554
I2
s(g71
g1075
tp2555
I4
s(g270
g264
tp2556
I1
s(g159
g67
tp2557
I3
s(g7
g65
tp2558
I1
s(g141
g33
tp2559
I6
s(g217
g173
tp2560
I5
s(g215
g34
tp2561
I1
s(g991
g320
tp2562
I2
s(g104
g34
tp2563
I1
s(g270
g109
tp2564
I1
s(g18
g75
tp2565
I4
s(g238
g16
tp2566
I1
s(g75
g104
tp2567
I3
s(g231
g349
tp2568
I1
s(g270
g58
tp2569
I2
s(S'oauthlib/oauth2/draft25/grant_types.py'
S'oauthlib/oauth2/ext/django.py'
p2570
tp2571
I5
s(g270
g125
tp2572
I1
s(g1022
g2116
tp2573
I4
s(g252
g208
tp2574
I2
s(g88
g7
tp2575
I1
s(g30
g34
tp2576
I1
s(g834
g309
tp2577
I1
s(g76
g343
tp2578
I5
s(g175
g102
tp2579
I1
s(g178
g497
tp2580
I7
s(g440
g264
tp2581
I1
s(g293
g75
tp2582
I4
s(g440
g76
tp2583
I4
s(g246
g238
tp2584
I1
s(g125
g330
tp2585
I1
s(g708
g250
tp2586
I1
s(g62
g333
tp2587
I3
s(g153
g449
tp2588
I1
s(g2295
g1182
tp2589
I1
s(g76
g194
tp2590
I1
s(g10
g34
tp2591
I1
s(g120
g137
tp2592
I1
s(g583
S'tests/oauth2/draft25/test_server.py'
p2593
tp2594
I1
s(g62
g162
tp2595
I2
s(g90
g132
tp2596
I1
s(g75
g395
tp2597
I4
s(g697
g449
tp2598
I1
s(g62
g231
tp2599
I1
s(g270
g131
tp2600
I1
s(g21
g102
tp2601
I1
s(g173
g43
tp2602
I1
s(g173
g238
tp2603
I1
s(g175
g142
tp2604
I1
s(g330
g11
tp2605
I1
s(g254
g102
tp2606
I1
s(g110
g276
tp2607
I2
s(g21
g228
tp2608
I4
s(g50
g142
tp2609
I1
s(g104
g333
tp2610
I1
s(g434
g349
tp2611
I1
s(g231
g190
tp2612
I1
s(g139
g215
tp2613
I1
s(g215
g22
tp2614
I1
s(g88
g8
tp2615
I1
s(g102
g190
tp2616
I1
s(g176
g333
tp2617
I1
s(g519
g19
tp2618
I1
s(g201
g384
tp2619
I1
s(g64
g250
tp2620
I1
s(g102
g114
tp2621
I4
s(g352
g280
tp2622
I1
s(g1783
g2232
tp2623
I2
s(g124
g19
tp2624
I1
s(g80
g36
tp2625
I1
s(S'oauthlib/oauth2/rfc6749/request_validator.py'
p2626
g99
tp2627
I1
s(g395
g173
tp2628
I5
s(g303
g15
tp2629
I4
s(g200
g2116
tp2630
I1
s(g270
g330
tp2631
I2
s(g200
g737
tp2632
I2
s(g2535
g571
tp2633
I1
s(g293
g50
tp2634
I2
s(g21
g76
tp2635
I4
s(S'oauthlib/oauth1/rfc5849/__init__.py'
S'tests/oauth1/rfc5849/test_client.py'
tp2636
I13
s(g176
g434
tp2637
I1
s(g80
g75
tp2638
I1
s(g31
g276
tp2639
I4
s(g829
g947
tp2640
I1
s(g217
g58
tp2641
I1
s(g139
g264
tp2642
I1
s(g254
g85
tp2643
I3
s(g817
g2447
tp2644
I2
s(g18
g162
tp2645
I1
s(g36
g343
tp2646
I2
s(g110
g349
tp2647
I1
s(g935
g418
tp2648
I2
s(g237
g109
tp2649
I3
s(g31
g58
tp2650
I1
s(g246
g110
tp2651
I1
s(g19
g190
tp2652
I1
s(g33
g115
tp2653
I6
s(g39
g446
tp2654
I3
s(S'oauthlib/oauth1/rfc5849/endpoints/access_token.py'
p2655
g829
tp2656
I1
s(g176
g50
tp2657
I2
s(g73
g15
tp2658
I4
s(g418
g203
tp2659
I2
s(g603
g2116
tp2660
I1
s(g34
g349
tp2661
I2
s(g228
g85
tp2662
I27
s(g228
g78
tp2663
I1
s(g87
g206
tp2664
I1
s(g30
g189
tp2665
I1
s(g33
g333
tp2666
I1
s(g397
g783
tp2667
I1
s(g10
g78
tp2668
I1
s(g131
g170
tp2669
I3
s(g643
g56
tp2670
I3
s(g176
g194
tp2671
I1
s(g497
g58
tp2672
I1
s(g70
g1075
tp2673
I8
s(g175
g349
tp2674
I1
s(g991
g972
tp2675
I2
s(g24
g1022
tp2676
I3
s(g104
g237
tp2677
I1
s(g395
g241
tp2678
I1
s(g30
g110
tp2679
I1
s(g972
g477
tp2680
I2
s(g254
g21
tp2681
I11
s(g80
g170
tp2682
I1
s(g13
g189
tp2683
I1
s(g58
g176
tp2684
I4
s(g228
g43
tp2685
I9
s(g178
g58
tp2686
I1
s(g75
g215
tp2687
I1
s(g238
g333
tp2688
I1
s(g176
g78
tp2689
I1
s(S'oauthlib/oauth2/ext/django.py'
S'oauthlib/oauth2/ext/flask.py'
tp2690
I2
s(g708
g458
tp2691
I1
s(g120
g7
tp2692
I1
s(g75
g176
tp2693
I2
s(g826
g651
tp2694
I3
s(g395
g347
tp2695
I5
s(g249
g8
tp2696
I1
s(g215
g78
tp2697
I1
s(g21
g16
tp2698
I1
s(g125
g42
tp2699
I1
s(g2129
g267
tp2700
I2
s(g131
g13
tp2701
I5
s(g1589
g411
tp2702
I1
s(g156
g2447
tp2703
I2
s(g67
g650
tp2704
I3
s(g935
g688
tp2705
I2
s(g109
g275
tp2706
I1
s(g303
g330
tp2707
I1
s(g85
g16
tp2708
I1
s(g64
g8
tp2709
I1
s(g64
g308
tp2710
I1
s(g104
g330
tp2711
I1
s(g141
g170
tp2712
I4
s(g375
g120
tp2713
I1
s(g440
g330
tp2714
I1
s(g254
g349
tp2715
I1
s(g200
g581
tp2716
I1
s(g178
g115
tp2717
I3
s(g85
g58
tp2718
I1
s(g178
g31
tp2719
I4
s(g834
g88
tp2720
I1
s(g36
g124
tp2721
I1
s(g293
g131
tp2722
I5
s(g62
g241
tp2723
I1
s(g254
g178
tp2724
I5
s(g228
g104
tp2725
I20
s(g347
g125
tp2726
I9
s(g31
g519
tp2727
I1
s(g8
g309
tp2728
I1
s(g13
g190
tp2729
I1
s(g76
g31
tp2730
I11
s(g18
g58
tp2731
I5
s(g102
g349
tp2732
I1
s(g175
g434
tp2733
I1
s(g228
g333
tp2734
I3
s(g13
g114
tp2735
I3
s(g497
g132
tp2736
I1
s(g200
g1240
tp2737
I1
s(S'tests/oauth2/rfc6749/clients/test_backend_application.py'
p2738
g571
tp2739
I1
s(g440
g34
tp2740
I3
s(g62
g330
tp2741
I1
s(g477
g319
tp2742
I2
s(g131
g104
tp2743
I3
s(g178
g37
tp2744
I1
s(g726
g485
tp2745
I1
s(g37
g434
tp2746
I2
s(g139
g440
tp2747
I5
s(g869
S'tests/oauth2/rfc6749/test_parameters.py'
p2748
tp2749
I4
s(g991
g477
tp2750
I2
s(g347
g104
tp2751
I6
s(g30
g276
tp2752
I1
s(g27
g2290
tp2753
I3
s(g73
g228
tp2754
I4
s(g487
g25
tp2755
I1
s(g270
g10
tp2756
I1
s(g33
g16
tp2757
I1
s(g180
S'tests/oauth2/rfc6749/endpoints/test_resource_owner_association.py'
p2758
tp2759
I1
s(g178
g43
tp2760
I1
s(g139
g238
tp2761
I1
s(g228
g343
tp2762
I7
s(g189
g231
tp2763
I6
s(g895
g282
tp2764
I4
s(g157
g895
tp2765
I4
s(g206
g373
tp2766
I1
s(g519
g42
tp2767
I1
s(S'oauthlib/oauth2/__init__.py'
p2768
g917
tp2769
I2
s(g1093
g829
tp2770
I1
s(g2180
g225
tp2771
I1
s(g48
g355
tp2772
I6
s(g73
g34
tp2773
I2
s(g1043
S'tests/oauth2/rfc6749/clients/test_mobile_application.py'
p2774
tp2775
I2
s(g497
g231
tp2776
I1
s(g147
g1356
tp2777
I4
s(g935
g415
tp2778
I2
s(g27
S'oauthlib/oauth2/rfc6749/parameters.py'
tp2779
I2
s(g50
g43
tp2780
I1
s(g80
g176
tp2781
I1
s(g36
g330
tp2782
I1
s(S'tests/oauth2/rfc6749/endpoints/test_openid_connect_params_handling.py'
p2783
S'tests/oauth2/rfc6749/endpoints/test_prompt_handling.py'
tp2784
I2
s(g519
g78
tp2785
I1
s(g180
g1848
tp2786
I1
s(g21
g246
tp2787
I1
s(S'oauthlib/common.py'
S'oauthlib/oauth1/rfc5849/errors.py'
tp2788
I1
s(g131
g76
tp2789
I3
s(g125
g102
tp2790
I7
s(g141
g434
tp2791
I1
s(g75
g37
tp2792
I1
s(g293
g173
tp2793
I5
s(S'oauthlib/oauth2/__init__.py'
S'tests/oauth2/rfc6749/endpoints/test_revocation_endpoint.py'
p2794
tp2795
I1
s(g260
g1093
tp2796
I1
s(g270
g62
tp2797
I2
s(g31
g246
tp2798
I1
s(g76
g349
tp2799
I1
s(g104
g264
tp2800
I4
s(g18
g330
tp2801
I3
s(g739
g826
tp2802
I4
s(g141
g132
tp2803
I1
s(g125
g176
tp2804
I1
s(g241
g343
tp2805
I1
s(g173
g19
tp2806
I1
s(g141
g349
tp2807
I1
s(g417
g682
tp2808
I2
s(g231
g110
tp2809
I1
s(g418
g299
tp2810
I2
s(g217
g162
tp2811
I1
s(g73
g90
tp2812
I1
s(g303
g237
tp2813
I1
s(g303
g114
tp2814
I1
s(g415
g682
tp2815
I2
s(g114
g176
tp2816
I1
s(g102
g434
tp2817
I3
s(g170
g110
tp2818
I1
s(S'examples/skeleton_oauth2_web_application_server.py'
S'oauthlib/oauth2/ext/django.py'
tp2819
I1
s(g697
g373
tp2820
I1
s(g42
g34
tp2821
I1
s(g178
g237
tp2822
I1
s(g678
g320
tp2823
I2
s(g303
g275
tp2824
I1
s(g82
S'oauthlib/oauth2/rfc6749/clients/mobile_application.py'
p2825
tp2826
I4
s(g13
g231
tp2827
I1
s(g212
g1356
tp2828
I2
s(g731
g366
tp2829
I1
s(g37
g11
tp2830
I2
s(g178
g11
tp2831
I1
s(g71
g1074
tp2832
I5
s(g1919
g4
tp2833
I7
s(g303
g276
tp2834
I1
s(g18
g102
tp2835
I1
s(g212
g867
tp2836
I2
s(S'oauthlib/oauth2/draft25/exceptions.py'
g129
tp2837
I2
s(g80
g33
tp2838
I1
s(g217
g176
tp2839
I1
s(g293
g176
tp2840
I3
s(g147
g157
tp2841
I11
s(g347
g231
tp2842
I1
s(g650
g56
tp2843
I3
s(g739
g661
tp2844
I3
s(g180
g2046
tp2845
I1
s(g231
g78
tp2846
I1
s(g343
g349
tp2847
I2
s(g50
g162
tp2848
I1
s(g104
g162
tp2849
I2
s(g30
g142
tp2850
I1
s(g114
g349
tp2851
I2
s(g299
g320
tp2852
I2
s(g739
g252
tp2853
I3
s(g102
g43
tp2854
I5
s(g345
g121
tp2855
I1
s(g15
g43
tp2856
I4
s(g90
g343
tp2857
I1
s(g24
g1240
tp2858
I1
s(g147
g1156
tp2859
I7
s(g36
g104
tp2860
I4
s(g1574
g858
tp2861
I7
s(g395
g102
tp2862
I1
s(g80
g85
tp2863
I1
s(g139
g90
tp2864
I1
s(g135
S'tests/oauth2/draft25/test_servers.py'
tp2865
I4
s(g519
g110
tp2866
I1
s(g76
g330
tp2867
I1
s(g124
g162
tp2868
I1
s(g678
g682
tp2869
I2
s(g170
g132
tp2870
I1
s(S'oauthlib/parameters.py'
p2871
S'tests/test_parameters.py'
p2872
tp2873
I3
s(g178
g10
tp2874
I1
s(g82
S'oauthlib/oauth2/rfc6749/clients/web_application.py'
p2875
tp2876
I4
s(g18
g440
tp2877
I5
s(g115
g16
tp2878
I1
s(g141
g15
tp2879
I6
s(g43
g276
tp2880
I2
s(g437
S'tests/oauth2/rfc6749/grant_types/test_client_credentials.py'
p2881
tp2882
I1
s(g241
g275
tp2883
I1
s(g117
g487
tp2884
I5
s(g21
g175
tp2885
I3
s(g231
g132
tp2886
I1
s(g238
g42
tp2887
I1
s(g21
g241
tp2888
I1
s(g48
g487
tp2889
I5
s(g13
g237
tp2890
I1
s(g678
g415
tp2891
I2
s(g18
g127
tp2892
I6
s(g67
g97
tp2893
I4
s(g586
g46
tp2894
I16
s(g114
g78
tp2895
I2
s(g176
g246
tp2896
I1
s(g50
g434
tp2897
I1
s(g68
g650
tp2898
I3
s(g437
S'tests/oauth2/rfc6749/grant_types/test_openid_connect.py'
tp2899
I2
s(g102
g241
tp2900
I1
s(g201
g25
tp2901
I1
s(g666
g284
tp2902
I7
s(g260
g1345
tp2903
I1
s(g7
g458
tp2904
I1
s(g497
g241
tp2905
I1
s(g170
g50
tp2906
I1
s(g217
g275
tp2907
I1
s(S'oauthlib/oauth1/rfc5849/__init__.py'
g361
tp2908
I2
s(g21
g141
tp2909
I6
s(g139
g34
tp2910
I1
s(g137
g65
tp2911
I1
s(g270
g36
tp2912
I1
s(g80
g124
tp2913
I1
s(S'oauthlib/oauth.py'
S'oauthlib/signature.py'
tp2914
I11
s(g139
g434
tp2915
I1
s(g303
g104
tp2916
I4
s(g178
g434
tp2917
I1
s(g30
g434
tp2918
I1
s(g254
g519
tp2919
I1
s(g73
g238
tp2920
I2
s(g114
g42
tp2921
I1
s(g270
g141
tp2922
I1
s(g18
g10
tp2923
I1
s(g238
g78
tp2924
I1
s(g90
g434
tp2925
I1
s(g131
g217
tp2926
I5
s(g15
g264
tp2927
I5
s(g319
g299
tp2928
I2
s(g139
g228
tp2929
I4
s(g217
g109
tp2930
I3
s(g13
g215
tp2931
I1
s(g347
g246
tp2932
I1
s(g1113
g99
tp2933
I1
s(g30
g22
tp2934
I1
s(S'oauthlib/oauth2/draft25/__init__.py'
p2935
S'tests/oauth2/draft25/test_server.py'
p2936
tp2937
I9
s(g159
g739
tp2938
I6
s(g33
g189
tp2939
I1
s(g237
g43
tp2940
I1
s(g90
g43
tp2941
I1
s(g173
g194
tp2942
I1
s(g246
g22
tp2943
I1
s(g521
g739
tp2944
I5
s(g521
g650
tp2945
I3
s(g347
g190
tp2946
I1
s(g76
g237
tp2947
I1
s(g546
g1182
tp2948
I2
s(g173
g519
tp2949
I1
s(g125
g16
tp2950
I1
s(g254
g241
tp2951
I1
s(g80
g497
tp2952
I1
s(g546
S'setup.py'
p2953
tp2954
I2
s(g200
g385
tp2955
I1
s(g452
g56
tp2956
I3
s(g62
g31
tp2957
I7
s(g270
g11
tp2958
I1
s(g173
g16
tp2959
I1
s(g127
g109
tp2960
I1
s(g31
g434
tp2961
I4
s(g85
g264
tp2962
I4
s(g446
g702
tp2963
I2
s(g87
g65
tp2964
I1
s(g395
g440
tp2965
I5
s(g124
g194
tp2966
I1
s(g139
g497
tp2967
I5
s(g13
g264
tp2968
I1
s(g603
g25
tp2969
I1
s(g141
g246
tp2970
I1
s(g33
g264
tp2971
I1
s(g826
g97
tp2972
I4
s(g228
g241
tp2973
I1
s(g708
g834
tp2974
I1
s(g156
S'oauthlib/oauth2/rfc6749/endpoints/pre_configured.py'
p2975
tp2976
I2
s(g127
g275
tp2977
I1
s(g31
g132
tp2978
I1
s(g114
g333
tp2979
I1
s(g303
g42
tp2980
I1
s(g87
g373
tp2981
I1
s(g237
g16
tp2982
I1
s(g21
g139
tp2983
I13
s(S'oauthlib/oauth2/rfc6749/clients/backend_application.py'
p2984
g546
tp2985
I1
s(g62
g519
tp2986
I1
s(g120
g309
tp2987
I1
s(g254
g16
tp2988
I1
s(g497
g90
tp2989
I1
s(g139
g175
tp2990
I3
s(g62
g42
tp2991
I1
s(g75
g34
tp2992
I1
s(g58
g109
tp2993
I1
s(g688
g203
tp2994
I2
s(g254
g141
tp2995
I5
s(g303
g36
tp2996
I3
s(g73
g22
tp2997
I1
s(g303
g127
tp2998
I4
s(g170
g142
tp2999
I1
s(g33
g215
tp3000
I1
s(g22
g43
tp3001
I1
s(S'tests/oauth1/rfc5849/test_parameters.py'
g361
tp3002
I1
s(g228
g434
tp3003
I4
s(g85
g31
tp3004
I14
s(g19
g11
tp3005
I7
s(g21
g90
tp3006
I1
s(g303
g162
tp3007
I1
s(g73
g141
tp3008
I5
s(g697
g458
tp3009
I1
s(g114
g215
tp3010
I1
s(g167
g1195
tp3011
I3
s(g73
g124
tp3012
I1
s(g643
g739
tp3013
I3
s(g139
g189
tp3014
I3
s(g1121
g485
tp3015
I1
s(g178
g189
tp3016
I1
s(g131
g31
tp3017
I3
s(g73
g58
tp3018
I1
s(g217
g190
tp3019
I1
s(g365
g928
tp3020
I1
s(g102
g237
tp3021
I1
s(g80
g19
tp3022
I1
s(g90
g11
tp3023
I1
s(g497
g142
tp3024
I1
s(g812
g198
tp3025
I1
s(S'tests/oauth1/rfc5849/test_utils.py'
g361
tp3026
I1
s(g220
g566
tp3027
I1
s(g293
g303
tp3028
I3
s(g85
g173
tp3029
I3
s(g487
g24
tp3030
I3
s(g75
g15
tp3031
I3
s(g22
g132
tp3032
I1
s(g497
g11
tp3033
I1
s(g76
g19
tp3034
I3
s(g99
g589
tp3035
I1
s(g148
g284
tp3036
I2
s(g347
g102
tp3037
I6
s(g125
g78
tp3038
I1
s(g497
g217
tp3039
I5
s(g121
g206
tp3040
I1
s(g384
g1240
tp3041
I1
s(g73
g333
tp3042
I1
s(g178
g264
tp3043
I1
s(g115
g343
tp3044
I1
s(g73
g13
tp3045
I6
s(g124
g42
tp3046
I1
s(g176
g264
tp3047
I1
s(g39
g1797
tp3048
I4
s(g124
g10
tp3049
I1
s(g37
g190
tp3050
I1
s(g175
g33
tp3051
I3
s(g231
g43
tp3052
I1
s(g131
g194
tp3053
I1
s(g36
g238
tp3054
I2
s(g237
g215
tp3055
I5
s(g16
g349
tp3056
I1
s(g18
g34
tp3057
I1
s(g114
g330
tp3058
I1
s(g80
g110
tp3059
I1
s(g347
g275
tp3060
I1
s(g127
g176
tp3061
I1
s(g173
g190
tp3062
I1
s(g21
g73
tp3063
I5
s(g497
g141
tp3064
I5
s(g1547
g366
tp3065
I1
s(g303
g34
tp3066
I1
s(g375
g64
tp3067
I1
s(g141
g102
tp3068
I2
s(g231
g246
tp3069
I1
s(g125
g104
tp3070
I5
s(g120
g834
tp3071
I1
s(g76
g16
tp3072
I1
s(g127
g102
tp3073
I5
s(g175
g330
tp3074
I1
s(g13
g132
tp3075
I1
s(g162
g78
tp3076
I1
s(g170
g16
tp3077
I1
s(g175
g85
tp3078
I1
s(g395
g33
tp3079
I5
s(g176
g142
tp3080
I1
s(g333
g78
tp3081
I2
s(g440
g90
tp3082
I1
s(g36
g125
tp3083
I6
s(g117
g25
tp3084
I2
s(g477
g299
tp3085
I2
s(g31
g43
tp3086
I4
s(g37
g19
tp3087
I2
s(S'oauthlib/oauth1/rfc5849/endpoints/request_token.py'
p3088
S'tests/oauth1/rfc5849/endpoints/test_request_token.py'
p3089
tp3090
I7
s(g75
g264
tp3091
I1
s(g170
g217
tp3092
I3
s(g228
g189
tp3093
I1
s(g440
g62
tp3094
I3
s(g415
g203
tp3095
I2
s(g124
g237
tp3096
I3
s(g330
g162
tp3097
I1
s(g270
g190
tp3098
I1
s(g88
g373
tp3099
I1
s(g102
g22
tp3100
I1
s(g217
g276
tp3101
I1
s(g76
g231
tp3102
I1
s(g85
g15
tp3103
I8
s(g308
g121
tp3104
I1
s(g164
g697
tp3105
I1
s(g19
g276
tp3106
I2
s(g73
g176
tp3107
I1
s(g131
g85
tp3108
I3
s(g21
g189
tp3109
I5
s(g141
g78
tp3110
I1
s(g349
g190
tp3111
I1
s(g650
g500
tp3112
I3
s(g142
g19
tp3113
I1
s(g142
g16
tp3114
I1
s(g681
g764
tp3115
I2
s(g375
g373
tp3116
I1
s(g27
S'oauthlib/oauth2/rfc6749/endpoints/revocation.py'
tp3117
I3
s(g2046
g467
tp3118
I1
s(g127
g62
tp3119
I4
s(g21
g238
tp3120
I1
s(g643
g55
tp3121
I5
s(g64
g121
tp3122
I1
s(g189
g10
tp3123
I1
s(g395
g58
tp3124
I3
s(g477
g682
tp3125
I2
s(g30
g76
tp3126
I3
s(g293
g124
tp3127
I1
s(g497
g110
tp3128
I1
s(g200
g384
tp3129
I2
s(g434
g264
tp3130
I7
s(S'tests/__init__.py'
p3131
g1117
tp3132
I2
s(g212
g2447
tp3133
I2
s(g395
g132
tp3134
I1
s(g330
g264
tp3135
I1
s(g34
g276
tp3136
I1
s(g15
g349
tp3137
I1
s(g440
g15
tp3138
I4
s(g31
g349
tp3139
I1
s(g50
g519
tp3140
I1
s(g228
g142
tp3141
I1
s(g2984
g1182
tp3142
I1
s(g275
g434
tp3143
I1
s(g48
g1580
tp3144
I4
s(g175
g19
tp3145
I1
s(S'oauthlib/common.py'
p3146
S'tests/oauth2/rfc6749/clients/test_service_application.py'
tp3147
I2
s(g125
g170
tp3148
I5
s(g75
g440
tp3149
I3
s(g280
g88
tp3150
I1
s(g189
g78
tp3151
I1
s(g142
g162
tp3152
I1
s(g94
g947
tp3153
I1
s(g178
g125
tp3154
I6
s(g131
g237
tp3155
I5
s(g36
g347
tp3156
I6
s(g124
g333
tp3157
I1
s(g241
g37
tp3158
I2
s(g142
g11
tp3159
I1
s(g175
g440
tp3160
I3
s(g115
g349
tp3161
I1
s(g194
g78
tp3162
I2
s(S'oauthlib/common.py'
S'setup.py'
tp3163
I8
s(g131
g395
tp3164
I5
s(g87
g8
tp3165
I1
s(g175
g78
tp3166
I1
s(g18
g194
tp3167
I1
s(g1492
g225
tp3168
I1
s(g13
g343
tp3169
I4
s(g76
g85
tp3170
I16
s(g142
g42
tp3171
I1
s(g127
g31
tp3172
I6
s(g13
g16
tp3173
I1
s(g173
g189
tp3174
I1
s(g75
g330
tp3175
I2
s(g76
g115
tp3176
I1
s(g125
g215
tp3177
I1
s(g254
g215
tp3178
I1
s(g575
g449
tp3179
I1
s(g120
g8
tp3180
I1
s(g110
g434
tp3181
I2
s(g30
g13
tp3182
I5
s(g170
g115
tp3183
I1
s(g30
g246
tp3184
I16
s(g395
g141
tp3185
I5
s(g156
g2875
tp3186
I2
s(g162
g132
tp3187
I1
s(g114
g343
tp3188
I9
s(g189
g37
tp3189
I1
s(g636
g397
tp3190
I1
s(g141
g127
tp3191
I6
s(g176
g330
tp3192
I2
s(g58
g349
tp3193
I1
s(g18
g115
tp3194
I1
s(g814
g357
tp3195
I2
s(g76
g33
tp3196
I3
s(g109
g333
tp3197
I1
s(g497
g189
tp3198
I1
s(g395
g114
tp3199
I3
s(g2768
S'oauthlib/oauth2/draft25/grant_types.py'
p3200
tp3201
I2
s(g237
g42
tp3202
I1
s(g73
g104
tp3203
I4
s(g270
g231
tp3204
I2
s(g293
g43
tp3205
I1
s(g127
g50
tp3206
I1
s(g11
g276
tp3207
I2
s(g82
g151
tp3208
I5
s(g50
g238
tp3209
I1
s(g264
g78
tp3210
I2
s(g30
g78
tp3211
I3
s(g487
g1022
tp3212
I5
s(g189
g519
tp3213
I1
s(g231
g162
tp3214
I1
s(g228
g76
tp3215
I17
s(g76
g50
tp3216
I1
s(g18
g333
tp3217
I1
s(g95
g366
tp3218
I1
s(g75
g194
tp3219
I1
s(S'oauthlib/oauth2/draft25/exceptions.py'
p3220
g2936
tp3221
I3
s(g153
g8
tp3222
I1
s(g440
g31
tp3223
I4
s(g139
g30
tp3224
I5
s(g25
g411
tp3225
I1
s(g395
g50
tp3226
I3
s(g237
g78
tp3227
I3
s(g80
g231
tp3228
I1
s(g1919
g1572
tp3229
I17
s(S'oauthlib/oauth1/rfc5849/__init__.py'
p3230
g397
tp3231
I1
s(g21
g440
tp3232
I5
s(g124
g33
tp3233
I1
s(g144
g212
tp3234
I2
s(g162
g16
tp3235
I1
s(g50
g215
tp3236
I1
s(g131
g78
tp3237
I1
s(g237
g241
tp3238
I1
s(g237
g349
tp3239
I1
s(g73
g50
tp3240
I1
s(g18
g124
tp3241
I1
s(g164
g92
tp3242
I1
s(g400
g56
tp3243
I3
s(g141
g43
tp3244
I2
s(S'oauthlib/oauth2/rfc6749/grant_types/resource_owner_password_credentials.py'
p3245
g958
tp3246
I2
s(g254
g395
tp3247
I9
s(g73
g76
tp3248
I4
s(g83
g895
tp3249
I4
s(g231
g19
tp3250
I1
s(g2626
g467
tp3251
I1
s(g175
g16
tp3252
I1
s(g85
g22
tp3253
I1
s(g497
g13
tp3254
I6
s(g395
g217
tp3255
I5
s(g21
g42
tp3256
I1
s(g477
g765
tp3257
I2
s(g30
g349
tp3258
I1
s(g228
g50
tp3259
I1
s(g834
g7
tp3260
I1
s(g88
g575
tp3261
I1
s(g347
g228
tp3262
I8
s(g254
g231
tp3263
I5
s(g31
g78
tp3264
I1
s(g131
g58
tp3265
I1
s(g764
g682
tp3266
I2
s(g254
g43
tp3267
I1
s(g75
g333
tp3268
I1
s(g21
g11
tp3269
I1
s(g13
g115
tp3270
I1
s(g7
g373
tp3271
I1
s(g395
g276
tp3272
I1
s(g303
g110
tp3273
I1
s(g189
g110
tp3274
I1
s(g127
g228
tp3275
I8
s(g73
g162
tp3276
I1
s(g58
g43
tp3277
I1
s(g30
g333
tp3278
I1
s(g80
g173
tp3279
I1
s(g15
g22
tp3280
I1
s(g238
g34
tp3281
I5
s(g284
g2447
tp3282
I2
s(g252
g56
tp3283
I3
s(g375
g834
tp3284
I1
s(g131
g178
tp3285
I5
s(g139
g131
tp3286
I5
s(g575
g65
tp3287
I1
s(g440
g215
tp3288
I1
s(g178
g275
tp3289
I2
s(g156
g150
tp3290
I2
s(g467
g540
tp3291
I1
s(g27
S'oauthlib/oauth1/rfc5849/endpoints/access_token.py'
tp3292
I3
s(g237
g22
tp3293
I1
s(g395
g228
tp3294
I3
s(g159
g208
tp3295
I2
s(g440
g176
tp3296
I1
s(g256
g651
tp3297
I3
s(g153
g87
tp3298
I1
s(g75
g124
tp3299
I1
s(g254
g36
tp3300
I5
s(g217
g434
tp3301
I1
s(g1156
g150
tp3302
I5
s(g237
g176
tp3303
I1
s(g154
g7
tp3304
I1
s(g30
g124
tp3305
I3
s(g175
g34
tp3306
I1
s(g303
g333
tp3307
I1
s(g21
g237
tp3308
I1
s(g50
g42
tp3309
I1
s(g589
g198
tp3310
I1
s(g494
g2529
tp3311
I7
s(g156
g524
tp3312
I7
s(g254
g13
tp3313
I5
s(g22
g78
tp3314
I1
s(g85
g215
tp3315
I1
s(g30
g15
tp3316
I3
s(g125
g132
tp3317
I1
s(g127
g10
tp3318
I2
s(g829
g731
tp3319
I1
s(g62
g43
tp3320
I2
s(g430
g417
tp3321
I2
s(g352
g8
tp3322
I1
s(g118
g25
tp3323
I2
s(g603
g1022
tp3324
I3
s(g260
g316
tp3325
I1
s(g125
g217
tp3326
I5
s(g228
g170
tp3327
I23
s(g575
g8
tp3328
I1
s(g27
g40
tp3329
I2
s(g1848
g198
tp3330
I1
s(g764
g320
tp3331
I2
s(g85
g78
tp3332
I1
s(g139
g50
tp3333
I6
s(g15
g132
tp3334
I1
s(g280
g373
tp3335
I1
s(g85
g176
tp3336
I1
s(g24
g2116
tp3337
I1
s(g293
g104
tp3338
I3
s(g153
g120
tp3339
I1
s(g437
S'tests/oauth2/rfc6749/grant_types/test_authorization_code.py'
tp3340
I1
s(g2083
g2064
tp3341
I1
s(g395
g231
tp3342
I4
s(g254
g170
tp3343
I3
s(g30
g173
tp3344
I5
s(g1261
g1179
tp3345
I1
s(g50
g34
tp3346
I1
s(g603
g737
tp3347
I1
s(g206
g250
tp3348
I1
s(g132
g78
tp3349
I1
s(g124
g62
tp3350
I1
s(g440
g241
tp3351
I1
s(g237
g37
tp3352
I1
s(g345
g164
tp3353
I1
s(g132
g37
tp3354
I1
s(g215
g162
tp3355
I1
s(S'oauthlib/oauth1/rfc5849/parameters.py'
g361
tp3356
I1
s(g102
g90
tp3357
I1
s(g241
g333
tp3358
I2
s(g293
g217
tp3359
I5
s(g254
g139
tp3360
I10
s(g395
g189
tp3361
I4
s(g55
g208
tp3362
I2
s(g43
g343
tp3363
I2
s(g270
g132
tp3364
I1
s(g519
g90
tp3365
I1
s(g131
g238
tp3366
I1
s(g114
g264
tp3367
I3
s(g117
g2116
tp3368
I7
s(g303
g395
tp3369
I6
s(g497
g42
tp3370
I1
s(g39
g1428
tp3371
I3
s(g231
g519
tp3372
I1
s(g194
g190
tp3373
I1
s(g217
g189
tp3374
I1
s(g102
g275
tp3375
I1
s(g246
g34
tp3376
I1
s(g15
g275
tp3377
I3
s(g42
g78
tp3378
I2
s(g901
g817
tp3379
I2
s(g127
g349
tp3380
I1
s(S'oauthlib/oauth2/rfc6749/grant_types/client_credentials.py'
p3381
g1205
tp3382
I2
s(g162
g275
tp3383
I1
s(g176
g10
tp3384
I1
s(g175
g190
tp3385
I7
s(g688
g204
tp3386
I2
s(g194
g16
tp3387
I2
s(g417
g765
tp3388
I2
s(S'oauthlib/oauth2/__init__.py'
p3389
g2936
tp3390
I4
s(g347
g62
tp3391
I4
s(g75
g141
tp3392
I3
s(g3389
g3220
tp3393
I4
s(g303
g347
tp3394
I4
s(g175
g15
tp3395
I1
s(g708
g164
tp3396
I1
s(g246
g19
tp3397
I1
s(g175
g347
tp3398
I3
s(g104
g22
tp3399
I1
s(g215
g132
tp3400
I1
s(g437
S'tests/oauth2/rfc6749/grant_types/test_resource_owner_password.py'
tp3401
I1
s(g75
g497
tp3402
I3
s(g400
g650
tp3403
I9
s(g1535
g546
tp3404
I1
s(g375
g345
tp3405
I1
s(g619
g204
tp3406
I1
s(g1797
g702
tp3407
I3
s(g357
g56
tp3408
I3
s(g117
g48
tp3409
I6
s(g73
g519
tp3410
I1
s(g357
g826
tp3411
I2
s(g200
g1589
tp3412
I3
s(g1121
g99
tp3413
I1
s(g395
g30
tp3414
I6
s(g137
g630
tp3415
I1
s(g298
g415
tp3416
I2
s(g521
g68
tp3417
I5
s(g347
g109
tp3418
I1
s(S'tests/oauth2/draft25/test_parameters.py'
g361
tp3419
I2
s(g76
g10
tp3420
I2
s(g125
g349
tp3421
I1
s(g102
g50
tp3422
I1
s(g55
g160
tp3423
I9
s(g73
g42
tp3424
I1
s(g27
S'oauthlib/oauth2/rfc6749/grant_types/resource_owner_password_credentials.py'
p3425
tp3426
I3
s(g121
g8
tp3427
I1
s(g347
g19
tp3428
I2
s(g139
g36
tp3429
I5
s(g104
g58
tp3430
I1
s(g397
g1990
tp3431
I1
s(g246
g16
tp3432
I1
s(g570
g2738
tp3433
I1
s(g109
g276
tp3434
I1
s(g1113
g467
tp3435
I1
s(S'oauthlib/oauth2/rfc6749/utils.py'
p3436
g1044
tp3437
I1
s(g189
g132
tp3438
I1
s(g137
g7
tp3439
I1
s(g206
g7
tp3440
I1
s(g131
g110
tp3441
I1
s(g440
g114
tp3442
I3
s(g434
g343
tp3443
I2
s(g352
g121
tp3444
I1
s(g519
g16
tp3445
I1
s(g85
g33
tp3446
I3
s(g400
g208
tp3447
I2
s(g24
g1580
tp3448
I2
s(g156
g2825
tp3449
I2
s(g293
g231
tp3450
I3
s(g630
g7
tp3451
I1
s(g102
g162
tp3452
I3
s(g316
g366
tp3453
I1
s(g3200
g286
tp3454
I2
s(g75
g31
tp3455
I3
s(g131
g215
tp3456
I11
s(g24
g737
tp3457
I1
s(g467
g198
tp3458
I1
s(g2871
S'tests/test_signatures.py'
p3459
tp3460
I3
s(g603
g385
tp3461
I1
s(g114
g109
tp3462
I2
s(g18
g395
tp3463
I12
s(g175
g173
tp3464
I3
s(g246
g241
tp3465
I1
s(g124
g22
tp3466
I1
s(g80
g293
tp3467
I1
s(g178
g215
tp3468
I1
s(g661
g208
tp3469
I2
s(g75
g110
tp3470
I1
s(g497
g15
tp3471
I4
s(g375
g92
tp3472
I1
s(g131
g90
tp3473
I7
s(g340
S'oauthlib/oauth2/rfc6749/request_validator.py'
tp3474
I2
s(g164
g250
tp3475
I1
s(g102
g264
tp3476
I3
s(g120
g206
tp3477
I1
s(g76
g434
tp3478
I3
s(g42
g275
tp3479
I1
s(g141
g276
tp3480
I1
s(g102
g109
tp3481
I1
s(g109
g19
tp3482
I1
s(g170
g190
tp3483
I2
s(g31
g16
tp3484
I1
s(g284
g867
tp3485
I3
s(g90
g16
tp3486
I1
s(g22
g37
tp3487
I1
s(g114
g162
tp3488
I2
s(g935
g203
tp3489
I2
s(g657
g375
tp3490
I1
s(g22
g276
tp3491
I1
s(g139
g104
tp3492
I4
s(g1195
g583
tp3493
I1
s(g254
g217
tp3494
I5
s(g127
g58
tp3495
I1
s(g52
S'tests/oauth2/draft25/test_server.py'
tp3496
I3
s(g333
g16
tp3497
I2
s(g144
g817
tp3498
I2
s(g814
g56
tp3499
I3
s(g657
g250
tp3500
I1
s(g1589
g384
tp3501
I1
s(g13
g238
tp3502
I1
s(g50
g333
tp3503
I1
s(g395
g42
tp3504
I1
s(g347
g333
tp3505
I1
s(g36
g132
tp3506
I1
s(g434
g78
tp3507
I2
s(g1022
g60
tp3508
I5
s(g651
g97
tp3509
I4
s(g643
g208
tp3510
I2
s(g30
g238
tp3511
I1
s(g114
g10
tp3512
I3
s(g2655
g928
tp3513
I1
s(g76
g114
tp3514
I2
s(g991
g417
tp3515
I2
s(g293
g189
tp3516
I2
s(g270
g246
tp3517
I1
s(g31
g237
tp3518
I1
s(g13
g10
tp3519
I1
s(g270
g42
tp3520
I1
s(g2053
S'tests/oauth2/draft25/test_grant_types.py'
tp3521
I1
s(g189
g176
tp3522
I4
s(g15
g237
tp3523
I1
s(g395
g11
tp3524
I1
s(g27
S'oauthlib/oauth1/rfc5849/endpoints/base.py'
tp3525
I2
s(g18
g110
tp3526
I1
s(g117
g475
tp3527
I9
s(g275
g19
tp3528
I1
s(g935
g319
tp3529
I2
s(g141
g330
tp3530
I1
s(g928
g1345
tp3531
I1
s(g19
g349
tp3532
I1
s(g238
g22
tp3533
I2
s(g162
g11
tp3534
I2
s(g170
g237
tp3535
I1
s(g298
g477
tp3536
I2
s(g82
g867
tp3537
I2
s(g189
g43
tp3538
I1
s(g117
g183
tp3539
I5
s(g497
g31
tp3540
I4
s(g293
g76
tp3541
I3
s(g704
g485
tp3542
I1
s(g173
g142
tp3543
I1
s(g497
g33
tp3544
I6
s(g125
g519
tp3545
I1
s(g228
g16
tp3546
I1
s(g308
g280
tp3547
I1
s(g848
g268
tp3548
I2
s(g293
g73
tp3549
I5
s(g173
g343
tp3550
I1
s(g384
g411
tp3551
I2
s(g48
g411
tp3552
I2
s(g630
g458
tp3553
I1
s(g643
g160
tp3554
I3
s(g241
g78
tp3555
I2
s(g829
g95
tp3556
I1
s(g76
g142
tp3557
I1
s(g440
g231
tp3558
I1
s(g148
g817
tp3559
I2
s(g15
g109
tp3560
I1
s(g621
g384
tp3561
I1
s(g430
g415
tp3562
I2
s(g440
g142
tp3563
I1
s(g280
g449
tp3564
I1
s(g33
g114
tp3565
I6
s(g345
g373
tp3566
I1
s(g330
g246
tp3567
I1
s(S'oauthlib/oauth2/draft25/errors.py'
p3568
g168
tp3569
I1
s(g31
g10
tp3570
I3
s(g153
g7
tp3571
I1
s(g18
g22
tp3572
I1
s(g141
g519
tp3573
I1
s(g5
g1572
tp3574
I7
s(g347
g13
tp3575
I7
s(g175
g237
tp3576
I5
s(g31
g42
tp3577
I1
s(g22
g34
tp3578
I1
s(g141
g115
tp3579
I1
s(g109
g37
tp3580
I1
s(g104
g90
tp3581
I1
s(g127
g519
tp3582
I1
s(g440
g109
tp3583
I1
s(g256
g739
tp3584
I6
s(S'oauthlib/oauth1/rfc5849/parameters.py'
p3585
g46
tp3586
I12
s(g697
g7
tp3587
I1
s(g104
g173
tp3588
I3
s(g238
g37
tp3589
I1
s(g22
g343
tp3590
I1
s(g375
g164
tp3591
I1
s(g395
g497
tp3592
I5
s(g125
g90
tp3593
I1
s(g489
g848
tp3594
I4
s(g189
g333
tp3595
I1
s(g395
g109
tp3596
I1
s(g206
g8
tp3597
I1
s(g139
g395
tp3598
I9
s(g467
g1848
tp3599
I1
s(g681
g204
tp3600
I2
s(g39
g1316
tp3601
I3
s(g170
g33
tp3602
I5
s(g82
g895
tp3603
I5
s(g375
g121
tp3604
I1
s(g87
g92
tp3605
I1
s(g175
g170
tp3606
I1
s(g215
g90
tp3607
I6
s(g293
g434
tp3608
I1
s(g178
g15
tp3609
I4
s(g104
g115
tp3610
I1
s(g303
g170
tp3611
I4
s(g13
g110
tp3612
I1
s(g347
g115
tp3613
I1
s(g58
g519
tp3614
I1
s(g104
g246
tp3615
I1
s(g75
g11
tp3616
I1
s(g104
g109
tp3617
I1
s(g417
g299
tp3618
I2
s(g217
g37
tp3619
I1
s(g2046
g99
tp3620
I1
s(g619
g682
tp3621
I1
s(g249
g345
tp3622
I1
s(g30
g176
tp3623
I1
s(g141
g37
tp3624
I1
s(g157
g817
tp3625
I2
s(g228
g90
tp3626
I1
s(S'oauthlib/oauth1/__init__.py'
g361
tp3627
I1
s(g333
g37
tp3628
I2
s(g94
g910
tp3629
I1
s(g178
g114
tp3630
I3
s(g175
g132
tp3631
I1
s(g237
g330
tp3632
I1
s(g935
g678
tp3633
I2
s(g76
g102
tp3634
I6
s(g650
g252
tp3635
I3
s(g397
g1928
tp3636
I1
s(g231
g10
tp3637
I1
s(g384
g2116
tp3638
I1
s(g850
g1572
tp3639
I9
s(g68
g257
tp3640
I3
s(g127
g241
tp3641
I1
s(g104
g19
tp3642
I4
s(g170
g330
tp3643
I1
s(g357
g500
tp3644
I2
s(g1589
g25
tp3645
I1
s(g18
g15
tp3646
I4
s(g13
g34
tp3647
I1
s(g124
g173
tp3648
I1
s(g228
g115
tp3649
I1
s(g22
g190
tp3650
I1
s(g228
g31
tp3651
I19
s(g621
g25
tp3652
I1
s(g814
g55
tp3653
I5
s(g27
S'oauthlib/oauth1/rfc5849/endpoints/request_token.py'
tp3654
I3
s(g139
g303
tp3655
I6
s(g64
g88
tp3656
I1
s(g254
g176
tp3657
I4
s(g33
g194
tp3658
I1
s(g178
g132
tp3659
I1
s(g162
g194
tp3660
I1
s(g120
g87
tp3661
I1
s(g139
g13
tp3662
I6
s(g178
g228
tp3663
I4
s(g308
g65
tp3664
I1
s(g168
g2593
tp3665
I1
s(g352
g120
tp3666
I1
s(g62
g19
tp3667
I2
s(g73
g110
tp3668
I1
s(g237
g246
tp3669
I8
s(g3436
g2774
tp3670
I1
s(g661
g56
tp3671
I3
s(g657
g65
tp3672
I1
s(g764
g418
tp3673
I2
s(g826
g208
tp3674
I2
s(g27
g446
tp3675
I2
s(g33
g42
tp3676
I1
s(g21
g30
tp3677
I5
s(g127
g343
tp3678
I5
s(g22
g241
tp3679
I1
s(g347
g241
tp3680
I1
s(g141
g16
tp3681
I1
s(g692
g1022
tp3682
I5
s(g497
g275
tp3683
I1
s(g603
g183
tp3684
I3
s(g303
g519
tp3685
I1
s(g104
g238
tp3686
I1
s(g183
g1022
tp3687
I5
s(g18
g42
tp3688
I1
s(g73
g189
tp3689
I1
s(g67
g661
tp3690
I3
s(g293
g11
tp3691
I1
s(g127
g142
tp3692
I1
s(g110
g10
tp3693
I1
s(g270
g110
tp3694
I1
s(g55
g68
tp3695
I5
s(g31
g330
tp3696
I1
s(g131
g241
tp3697
I1
s(g189
g215
tp3698
I1
s(g142
g275
tp3699
I1
s(g18
g109
tp3700
I1
s(g215
g11
tp3701
I1
s(g477
g320
tp3702
I2
s(g75
g434
tp3703
I1
s(g178
g90
tp3704
I1
s(g352
g458
tp3705
I1
s(g156
g148
tp3706
I3
s(g139
g22
tp3707
I1
s(g315
g514
tp3708
I1
s(g62
g85
tp3709
I7
s(g162
g434
tp3710
I2
s(g293
g190
tp3711
I1
s(g260
g1547
tp3712
I1
s(g88
g65
tp3713
I1
s(g347
g16
tp3714
I1
s(g94
g1345
tp3715
I1
s(g127
g19
tp3716
I2
s(g175
g76
tp3717
I1
s(g73
g102
tp3718
I1
s(g303
g43
tp3719
I1
s(g33
g246
tp3720
I1
s(g1121
g467
tp3721
I1
s(g110
g34
tp3722
I3
s(g13
g330
tp3723
I1
s(g80
g78
tp3724
I1
s(g21
g173
tp3725
I5
s(g110
g343
tp3726
I1
s(g308
g575
tp3727
I1
s(g102
g37
tp3728
I4
s(g141
g10
tp3729
I2
s(g260
g514
tp3730
I1
s(g400
g160
tp3731
I4
s(g254
g238
tp3732
I1
s(g2935
g3220
tp3733
I6
s(g194
g11
tp3734
I2
s(g276
g190
tp3735
I1
s(g30
g275
tp3736
I1
s(g519
g343
tp3737
I1
s(g139
g270
tp3738
I2
s(g121
g575
tp3739
I1
s(g434
g190
tp3740
I1
s(g125
g110
tp3741
I1
s(g176
g16
tp3742
I1
s(g293
g333
tp3743
I1
s(g154
g92
tp3744
I1
s(g76
g519
tp3745
I1
s(g417
g415
tp3746
I2
s(g73
g43
tp3747
I1
s(g178
g231
tp3748
I1
s(g254
g110
tp3749
I1
s(g309
g373
tp3750
I1
s(g681
g203
tp3751
I3
s(g519
g330
tp3752
I1
s(g36
g22
tp3753
I1
s(g276
g349
tp3754
I1
s(g217
g519
tp3755
I1
s(g630
g250
tp3756
I1
s(g440
g275
tp3757
I1
s(g303
g231
tp3758
I1
s(g18
g343
tp3759
I1
s(g197
g485
tp3760
I1
s(g400
g357
tp3761
I2
s(g347
g217
tp3762
I5
s(g27
g663
tp3763
I3
s(g55
g500
tp3764
I3
s(g8
g250
tp3765
I1
s(g13
g276
tp3766
I1
s(g345
g250
tp3767
I1
s(g73
g434
tp3768
I1
s(g75
g58
tp3769
I2
s(g254
g275
tp3770
I1
s(g303
g124
tp3771
I1
s(g347
g132
tp3772
I1
s(g48
g1240
tp3773
I6
s(g62
g189
tp3774
I1
s(g293
g110
tp3775
I1
s(g764
g203
tp3776
I2
s(g2984
g932
tp3777
I1
s(g826
g257
tp3778
I3
s(g75
g189
tp3779
I2
s(g681
g477
tp3780
I2
s(g131
g109
tp3781
I1
s(g2312
g2881
tp3782
I1
s(g972
g418
tp3783
I2
s(g217
g241
tp3784
I1
s(g131
g125
tp3785
I5
s(g80
g178
tp3786
I1
s(g430
g764
tp3787
I2
s(g3568
g583
tp3788
I1
s(g303
g30
tp3789
I4
s(S'oauthlib/oauth2/draft25/grant_types.py'
g2148
tp3790
I7
s(S'oauthlib/oauth2_draft25/utils.py'
p3791
S'tests/oauth2_draft25/test_utils.py'
p3792
tp3793
I4
s(g21
g347
tp3794
I6
s(g58
g50
tp3795
I2
s(g330
g349
tp3796
I1
s(g392
g99
tp3797
I1
s(g417
g319
tp3798
I2
s(g176
g110
tp3799
I1
s(g1919
g850
tp3800
I11
s(g82
g211
tp3801
I5
s(g293
g194
tp3802
I1
s(g173
g275
tp3803
I1
s(g87
g137
tp3804
I1
s(g75
g231
tp3805
I2
s(g104
g37
tp3806
I1
s(g127
g189
tp3807
I1
s(g88
g449
tp3808
I1
s(g440
g42
tp3809
I1
s(g697
g309
tp3810
I1
s(g519
g194
tp3811
I1
s(g27
S'oauthlib/oauth2/rfc6749/grant_types/base.py'
p3812
tp3813
I3
s(g90
g110
tp3814
I1
s(S'oauthlib/oauth2/rfc6749/parameters.py'
p3815
g869
tp3816
I5
s(g80
g30
tp3817
I1
s(g110
g190
tp3818
I1
s(g127
g78
tp3819
I1
s(g603
g384
tp3820
I1
s(g1144
g771
tp3821
I1
s(g241
g194
tp3822
I2
s(g249
g834
tp3823
I1
s(g173
g132
tp3824
I1
s(g293
g78
tp3825
I1
s(g643
g661
tp3826
I4
s(g156
g867
tp3827
I2
s(g345
g309
tp3828
I1
s(g765
g203
tp3829
I2
s(g834
g575
tp3830
I1
s(g141
g90
tp3831
I1
s(g357
g67
tp3832
I3
s(g48
g1589
tp3833
I5
s(g117
g384
tp3834
I1
s(g1535
g932
tp3835
I1
s(g30
g50
tp3836
I1
s(S'oauthlib/oauth2/rfc6749/errors.py'
g437
tp3837
I1
s(g162
g19
tp3838
I2
s(g254
g173
tp3839
I5
s(g661
g651
tp3840
I3
s(g102
g19
tp3841
I3
s(g85
g162
tp3842
I3
s(g347
g15
tp3843
I7
s(g92
g449
tp3844
I1
s(g125
g37
tp3845
I2
s(g330
g42
tp3846
I1
s(g36
g440
tp3847
I7
s(g237
g34
tp3848
I3
s(g13
g173
tp3849
I5
s(g147
g2447
tp3850
I4
s(g194
g42
tp3851
I2
s(g826
g56
tp3852
I3
s(g497
g264
tp3853
I1
s(g58
g264
tp3854
I1
s(g102
g333
tp3855
I1
s(g319
g682
tp3856
I2
s(g33
g11
tp3857
I1
s(g137
g458
tp3858
I1
s(g82
g2975
tp3859
I4
s(g131
g50
tp3860
I1
s(S'oauthlib/common.py'
S'tests/oauth2/draft25/test_servers.py'
tp3861
I1
s(g162
g333
tp3862
I1
s(g21
g110
tp3863
I1
s(g440
g132
tp3864
I1
s(g21
g36
tp3865
I5
s(g15
g333
tp3866
I2
s(g75
g228
tp3867
I3
s(g154
g88
tp3868
I1
s(g18
g231
tp3869
I6
s(g120
g65
tp3870
I1
s(g303
g217
tp3871
I3
s(g254
g440
tp3872
I5
s(g175
g125
tp3873
I3
s(g73
g190
tp3874
I1
s(g910
g366
tp3875
I1
s(g25
g1580
tp3876
I4
s(g688
g417
tp3877
I2
s(g352
g164
tp3878
I1
s(g256
g97
tp3879
I4
s(g3815
g559
tp3880
I5
s(g347
g31
tp3881
I6
s(g127
g264
tp3882
I2
s(g45
g3585
tp3883
I14
s(g141
g264
tp3884
I1
s(g200
g1768
tp3885
I1
s(g27
S'oauthlib/oauth2/rfc6749/endpoints/authorization.py'
tp3886
I3
s(g497
g85
tp3887
I4
s(g139
g178
tp3888
I5
s(g50
g16
tp3889
I1
s(g132
g275
tp3890
I1
s(g18
g276
tp3891
I1
s(g125
g43
tp3892
I2
s(g58
g194
tp3893
I1
s(g159
g826
tp3894
I10
s(g497
g228
tp3895
I4
s(g27
S'oauthlib/uri_validate.py'
tp3896
I2
s(g102
g42
tp3897
I1
s(g176
g90
tp3898
I1
s(g452
g651
tp3899
I3
s(g21
g34
tp3900
I1
s(g1409
g1933
tp3901
I2
s(g75
g217
tp3902
I3
s(g30
g90
tp3903
I9
s(g2758
g485
tp3904
I1
s(g176
g238
tp3905
I1
s(S'tests/parameters.py'
S'tests/test_parameters.py'
tp3906
I1
s(g347
g194
tp3907
I1
s(g124
g34
tp3908
I1
s(g180
g100
tp3909
I1
s(g127
g215
tp3910
I1
s(g62
g76
tp3911
I5
s(g85
g11
tp3912
I4
s(g114
g11
tp3913
I3
s(g147
g151
tp3914
I6
s(g1156
g212
tp3915
I2
s(g347
g264
tp3916
I2
s(g2116
g411
tp3917
I1
s(S'oauthlib/oauth2/rfc6749/grant_types/authorization_code.py'
p3918
g958
tp3919
I2
s(g452
g160
tp3920
I5
s(g58
g34
tp3921
I1
s(g713
g40
tp3922
I3
s(g575
g7
tp3923
I1
s(g254
g293
tp3924
I6
s(g603
g60
tp3925
I1
s(g246
g275
tp3926
I1
s(g15
g42
tp3927
I2
s(g127
g43
tp3928
I2
s(g27
S'oauthlib/oauth2/rfc6749/utils.py'
tp3929
I2
s(g270
g13
tp3930
I1
s(g175
g50
tp3931
I1
s(g22
g16
tp3932
I1
s(g80
g347
tp3933
I1
s(g175
g11
tp3934
I1
s(g270
g114
tp3935
I1
s(g170
g42
tp3936
I1
s(g64
g154
tp3937
I1
s(g293
g19
tp3938
I1
s(g603
g621
tp3939
I3
s(g270
g343
tp3940
I1
s(g33
g217
tp3941
I12
s(g395
g115
tp3942
I1
s(g76
g42
tp3943
I1
s(g935
g619
tp3944
I1
s(g519
g109
tp3945
I1
s(g121
g309
tp3946
I1
s(g228
g19
tp3947
I4
s(g36
g497
tp3948
I8
s(g189
g58
tp3949
I5
s(g834
g8
tp3950
I1
s(g275
g343
tp3951
I1
s(g241
g162
tp3952
I1
s(S'oauthlib/oauth2/rfc6749/endpoints/__init__.py'
p3953
S'oauthlib/oauth2/rfc6749/errors.py'
tp3954
I1
s(g303
g73
tp3955
I3
s(S'tests/oauth1/rfc5849/test_parameters.py'
p3956
g220
tp3957
I1
s(g270
g73
tp3958
I1
s(g261
g928
tp3959
I1
s(g175
g42
tp3960
I1
s(g415
g319
tp3961
I2
s(g347
g176
tp3962
I1
s(g156
g901
tp3963
I3
s(g681
g299
tp3964
I2
s(g124
g58
tp3965
I1
s(g21
g162
tp3966
I1
s(g178
g78
tp3967
I1
s(g330
g22
tp3968
I1
s(g18
g217
tp3969
I5
s(g434
g19
tp3970
I7
s(g293
g21
tp3971
I6
s(g99
g1848
tp3972
I1
s(g708
g154
tp3973
I1
s(g178
g276
tp3974
I1
s(g37
g276
tp3975
I2
s(g124
g276
tp3976
I1
s(g30
g141
tp3977
I5
s(g24
g355
tp3978
I3
s(g834
g92
tp3979
I1
s(g167
g1139
tp3980
I2
s(g697
g8
tp3981
I1
s(g142
g264
tp3982
I1
s(g3585
g586
tp3983
I14
s(g104
g170
tp3984
I20
s(g519
g215
tp3985
I1
s(g18
g21
tp3986
I18
s(g418
g204
tp3987
I2
s(g708
g120
tp3988
I1
s(g384
g1768
tp3989
I1
s(g708
g280
tp3990
I1
s(g175
g519
tp3991
I1
s(g31
g19
tp3992
I4
s(g117
g385
tp3993
I7
s(g50
g275
tp3994
I1
s(g102
g343
tp3995
I7
s(g147
g156
tp3996
I5
s(g280
g575
tp3997
I1
s(g384
g25
tp3998
I1
s(g814
g67
tp3999
I3
s(g141
g11
tp4000
I1
s(g497
g246
tp4001
I1
s(g246
g132
tp4002
I1
s(g50
g115
tp4003
I1
s(g559
g2748
tp4004
I4
s(g254
g228
tp4005
I3
s(g739
g68
tp4006
I3
s(g139
g194
tp4007
I1
s(g114
g434
tp4008
I3
s(g238
g110
tp4009
I1
s(g36
g237
tp4010
I2
s(g178
g217
tp4011
I7
s(g231
g109
tp4012
I1
s(g117
g1580
tp4013
I7
s(g1911
g869
tp4014
I6
s(g643
g257
tp4015
I3
s(g260
g2655
tp4016
I1
s(g467
g197
tp4017
I1
s(g176
g349
tp4018
I1
s(g90
g19
tp4019
I1
s(g1506
g267
tp4020
I2
s(g178
g170
tp4021
I4
s(g231
g37
tp4022
I1
s(g176
g276
tp4023
I1
s(g178
g19
tp4024
I1
s(g1033
S'tests/oauth2/rfc6749/grant_types/test_refresh_token.py'
tp4025
I3
s(g104
g33
tp4026
I4
s(g170
g10
tp4027
I3
s(g8
g65
tp4028
I1
s(g80
g132
tp4029
I1
s(g30
g132
tp4030
I1
s(g62
g132
tp4031
I1
s(g834
g630
tp4032
I1
s(g131
g333
tp4033
I1
s(g947
g366
tp4034
I1
s(g39
g3425
tp4035
I3
s(g62
g190
tp4036
I1
s(g1022
g737
tp4037
I1
s(g237
g194
tp4038
I1
s(g175
g104
tp4039
I1
s(g228
g37
tp4040
I1
s(g180
g812
tp4041
I1
s(g834
g250
tp4042
I1
s(g82
g758
tp4043
I4
s(g156
g211
tp4044
I3
s(g237
g519
tp4045
I1
s(g27
S'oauthlib/oauth2/rfc6749/clients/base.py'
tp4046
I2
s(g688
g972
tp4047
I2
s(g48
g1768
tp4048
I6
s(g36
g170
tp4049
I4
s(g315
g731
tp4050
I1
s(g164
g8
tp4051
I1
s(g1121
g198
tp4052
I1
s(g73
g264
tp4053
I1
s(g361
S'tests/oauth2/draft25/test_utils.py'
tp4054
I2
s(g497
g16
tp4055
I1
s(g80
g114
tp4056
I1
s(g802
g928
tp4057
I1
s(g514
g928
tp4058
I1
s(g303
g434
tp4059
I1
s(g80
g343
tp4060
I1
s(g521
g67
tp4061
I5
s(g102
g78
tp4062
I1
s(g82
g150
tp4063
I5
s(g361
S'tests/oauth2/draft25/test_tokens.py'
tp4064
I2
s(g237
g90
tp4065
I5
s(g110
g16
tp4066
I2
s(g189
g16
tp4067
I1
s(g643
g97
tp4068
I3
s(g76
g109
tp4069
I1
s(g31
g333
tp4070
I1
s(g110
g275
tp4071
I1
s(g293
g127
tp4072
I5
s(g521
g661
tp4073
I4
s(g124
g217
tp4074
I3
s(g440
g110
tp4075
I1
s(g260
g95
tp4076
I1
s(g162
g37
tp4077
I2
s(S'oauthlib/oauth2/rfc6749/grant_types/refresh_token.py'
g958
tp4078
I2
s(g67
g826
tp4079
I3
s(g76
g104
tp4080
I13
s(g21
g109
tp4081
I1
s(g228
g194
tp4082
I1
s(g497
g114
tp4083
I3
s(g13
g22
tp4084
I1
s(g36
g13
tp4085
I6
s(g688
g477
tp4086
I2
s(g293
g440
tp4087
I5
s(g228
g217
tp4088
I3
s(g440
g190
tp4089
I1
s(g75
g33
tp4090
I3
s(g246
g343
tp4091
I3
s(g114
g189
tp4092
I1
s(g303
g270
tp4093
I1
s(g18
g237
tp4094
I1
s(g170
g349
tp4095
I1
s(g159
g97
tp4096
I4
s(g117
g1022
tp4097
I6
s(g284
g282
tp4098
I3
s(g142
g90
tp4099
I1
s(g87
g697
tp4100
I1
s(g76
g162
tp4101
I2
s(g333
g43
tp4102
I2
s(g270
g162
tp4103
I1
s(g114
g231
tp4104
I1
s(g87
g449
tp4105
I1
s(g175
g189
tp4106
I1
s(g73
g78
tp4107
I1
s(g73
g85
tp4108
I4
s(g397
g1347
tp4109
I1
s(g141
g343
tp4110
I1
s(g254
g15
tp4111
I3
s(g217
g43
tp4112
I1
s(g153
g373
tp4113
I1
s(g141
g114
tp4114
I3
s(g104
g142
tp4115
I1
s(g2295
g932
tp4116
I1
s(g142
g276
tp4117
I1
s(g330
g238
tp4118
I1
s(g764
g319
tp4119
I2
s(g109
g190
tp4120
I1
s(g1113
g485
tp4121
I1
s(g370
g204
tp4122
I2
s(g228
g237
tp4123
I1
s(g42
g264
tp4124
I2
s(g115
g37
tp4125
I1
s(g175
g231
tp4126
I1
s(g395
g36
tp4127
I5
s(g121
g87
tp4128
I1
s(g829
g316
tp4129
I1
s(g18
g125
tp4130
I5
s(g75
g275
tp4131
I1
s(g217
g246
tp4132
I3
s(g237
g50
tp4133
I1
s(g154
g137
tp4134
I1
s(g308
g834
tp4135
I1
s(g21
g330
tp4136
I3
s(g104
g102
tp4137
I4
s(g3568
g1139
tp4138
I3
s(g76
g241
tp4139
I1
s(g58
g78
tp4140
I1
s(g347
g114
tp4141
I6
s(g67
g160
tp4142
I6
s(g125
g162
tp4143
I3
s(g343
g78
tp4144
I4
s(g75
g30
tp4145
I3
s(g27
g39
tp4146
I3
s(g125
g33
tp4147
I5
s(g2122
g829
tp4148
I1
s(g27
g445
tp4149
I3
s(g175
g73
tp4150
I3
s(g114
g237
tp4151
I3
s(g31
g11
tp4152
I6
s(g125
g190
tp4153
I1
s(g124
g330
tp4154
I1
s(g73
g62
tp4155
I3
s(g1589
g24
tp4156
I3
s(g102
g170
tp4157
I4
s(g141
g189
tp4158
I1
s(S'oauthlib/utils.py'
S'tests/test_signatures.py'
tp4159
I4
s(g395
g34
tp4160
I1
s(g330
g115
tp4161
I1
s(g15
g434
tp4162
I3
s(g440
g238
tp4163
I3
s(g13
g78
tp4164
I1
s(g144
g150
tp4165
I4
s(g246
g37
tp4166
I1
s(g31
g215
tp4167
I1
s(g142
g333
tp4168
I1
s(g477
g204
tp4169
I2
s(g217
g142
tp4170
I1
s(g99
g198
tp4171
I1
s(g217
g237
tp4172
I3
s(g97
g500
tp4173
I4
s(g73
g231
tp4174
I1
s(g125
g109
tp4175
I1
s(g189
g275
tp4176
I1
s(g175
g22
tp4177
I1
s(g104
g31
tp4178
I16
s(g397
S'tests/test_signatures.py'
p4179
tp4180
I1
s(g15
g194
tp4181
I2
s(g1205
g958
tp4182
I4
s(g131
g37
tp4183
I1
s(g178
g104
tp4184
I4
s(g347
g434
tp4185
I2
s(g15
g189
tp4186
I1
s(g64
g280
tp4187
I1
s(g330
g276
tp4188
I1
s(g36
g215
tp4189
I1
s(g80
g246
tp4190
I1
s(g22
g275
tp4191
I2
s(g708
g121
tp4192
I1
s(g73
g10
tp4193
I1
s(g238
g190
tp4194
I1
s(g11
g78
tp4195
I2
s(g395
g10
tp4196
I1
s(g303
g349
tp4197
I1
s(g153
g250
tp4198
I1
s(g160
g661
tp4199
I3
s(g139
g246
tp4200
I1
s(g75
g127
tp4201
I3
s(g139
g349
tp4202
I1
s(g21
g58
tp4203
I5
s(g154
g8
tp4204
I1
s(g2768
g267
tp4205
I1
s(g173
g22
tp4206
I1
s(g160
g208
tp4207
I2
s(g159
g651
tp4208
I3
s(g440
g19
tp4209
I1
s(g75
g162
tp4210
I1
s(g21
g497
tp4211
I5
s(g3381
g958
tp4212
I2
s(g1022
g25
tp4213
I1
s(g131
g141
tp4214
I5
s(g603
g201
tp4215
I3
s(g175
g217
tp4216
I3
s(g681
g320
tp4217
I2
s(g559
g869
tp4218
I6
s(g2768
g268
tp4219
I2
s(g395
g162
tp4220
I1
s(g293
g31
tp4221
I3
s(g153
g458
tp4222
I1
s(g124
g90
tp4223
I1
s(g30
g217
tp4224
I7
s(g972
g765
tp4225
I2
s(g131
g73
tp4226
I5
s(g928
g95
tp4227
I1
s(g395
g127
tp4228
I5
s(g78
g190
tp4229
I1
s(g1093
g928
tp4230
I1
s(g31
g34
tp4231
I1
s(g82
g282
tp4232
I4
s(g1933
g405
tp4233
I2
s(g102
g173
tp4234
I1
s(g11
g34
tp4235
I1
s(g141
g228
tp4236
I5
s(g286
g917
tp4237
I2
s(g330
g241
tp4238
I1
s(g524
g212
tp4239
I2
s(g13
g333
tp4240
I1
s(g27
S'oauthlib/oauth2/rfc6749/clients/backend_application.py'
tp4241
I2
s(g254
g330
tp4242
I2
s(g347
g238
tp4243
I1
s(g280
g137
tp4244
I1
s(g2312
g438
tp4245
I1
s(g82
g901
tp4246
I6
s(g440
g115
tp4247
I3
s(g1178
g1508
tp4248
I1
s(g131
g114
tp4249
I3
s(g125
g231
tp4250
I1
s(g36
g15
tp4251
I4
s(g650
g97
tp4252
I3
s(g1935
g857
tp4253
I11
s(g82
g212
tp4254
I2
s(g39
g3812
tp4255
I3
s(g85
g189
tp4256
I1
s(g284
g1356
tp4257
I3
s(g175
g124
tp4258
I1
s(g293
g347
tp4259
I5
s(g303
g440
tp4260
I3
s(g92
g458
tp4261
I1
s(g178
g110
tp4262
I1
s(g175
g37
tp4263
I1
s(g189
g264
tp4264
I1
s(g27
g702
tp4265
I3
s(g357
g208
tp4266
I2
s(g603
g355
tp4267
I3
s(g176
g109
tp4268
I1
s(g131
g62
tp4269
I3
s(g141
g31
tp4270
I4
s(g50
g37
tp4271
I1
s(g194
g37
tp4272
I2
s(g303
g142
tp4273
I3
s(g200
g25
tp4274
I1
s(g18
g131
tp4275
I5
s(g137
g373
tp4276
I1
s(g330
g343
tp4277
I1
s(g80
g264
tp4278
I1
s(g395
g124
tp4279
I1
s(g131
g19
tp4280
I1
s(g3918
g1205
tp4281
I2
s(g3245
g1205
tp4282
I2
s(g238
g194
tp4283
I1
s(g16
g43
tp4284
I2
s(g270
g176
tp4285
I2
s(g7
g250
tp4286
I1
s(g153
g121
tp4287
I1
s(g773
g571
tp4288
I1
s(g303
g115
tp4289
I1
s(g162
g264
tp4290
I2
s(g75
g347
tp4291
I3
s(g440
g43
tp4292
I1
s(g497
g37
tp4293
I1
s(g3953
g2794
tp4294
I1
s(g162
g190
tp4295
I1
s(g497
g333
tp4296
I1
s(g85
g90
tp4297
I1
s(g238
g132
tp4298
I1
s(g104
g231
tp4299
I1
s(g397
g3956
tp4300
I1
s(g692
g411
tp4301
I1
s(g2758
g467
tp4302
I1
s(g217
g110
tp4303
I1
s(g347
g215
tp4304
I1
s(g175
g127
tp4305
I3
s(g293
g178
tp4306
I5
s(g142
g343
tp4307
I1
s(g275
g78
tp4308
I1
s(g254
g109
tp4309
I1
s(g519
g37
tp4310
I1
s(g131
g246
tp4311
I6
s(g357
g160
tp4312
I5
s(g120
g88
tp4313
I1
s(g125
g58
tp4314
I1
s(g124
g231
tp4315
I1
s(g935
g991
tp4316
I2
s(g1156
g284
tp4317
I2
s(g303
g175
tp4318
I1
s(S'oauthlib/oauth1/__init__.py'
p4319
g397
tp4320
I1
s(g13
g109
tp4321
I1
s(g73
g330
tp4322
I1
s(g430
g972
tp4323
I2
s(g62
g176
tp4324
I1
s(S'oauthlib/oauth2/draft25/tokens.py'
p4325
g583
tp4326
I1
s(g678
g204
tp4327
I2
s(g173
g42
tp4328
I1
s(g31
g189
tp4329
I1
s(g131
g33
tp4330
I5
s(g16
g434
tp4331
I2
s(g88
g630
tp4332
I1
s(g114
g132
tp4333
I1
s(g678
g764
tp4334
I2
s(g238
g434
tp4335
I1
s(g430
g320
tp4336
I2
s(g352
g373
tp4337
I1
s(g109
g343
tp4338
I3
s(g33
g50
tp4339
I1
s(g131
g276
tp4340
I1
s(g657
g154
tp4341
I2
s(g141
g215
tp4342
I1
s(g109
g349
tp4343
I1
s(g2655
g366
tp4344
I1
s(g80
g58
tp4345
I1
s(g280
g697
tp4346
I1
s(g375
g87
tp4347
I1
s(g347
g237
tp4348
I1
s(g80
g76
tp4349
I1
s(g27
S'oauthlib/oauth2/rfc6749/clients/mobile_application.py'
tp4350
I2
s(g102
g176
tp4351
I1
s(g1986
g220
tp4352
I1
s(g80
g276
tp4353
I1
s(g76
g58
tp4354
I1
s(g237
g190
tp4355
I4
s(g217
g22
tp4356
I1
s(g13
g142
tp4357
I1
s(g24
g475
tp4358
I4
s(g347
g90
tp4359
I1
s(g352
g449
tp4360
I1
s(g102
g217
tp4361
I1
s(g395
g194
tp4362
I1
s(g241
g132
tp4363
I1
s(g254
g142
tp4364
I1
s(g15
g11
tp4365
I3
s(g24
g1768
tp4366
I1
s(g519
g264
tp4367
I1
s(g619
g415
tp4368
I1
s(g270
g85
tp4369
I1
s(g619
g477
tp4370
I1
s(g18
g36
tp4371
I5
s(g173
g349
tp4372
I1
s(g15
g50
tp4373
I1
s(g64
g345
tp4374
I1
s(g497
g125
tp4375
I6
s(g1363
g958
tp4376
I2
s(g2953
g1182
tp4377
I2
s(g109
g10
tp4378
I1
s(g156
g817
tp4379
I4
s(g141
g237
tp4380
I1
s(g131
g124
tp4381
I1
s(g117
g1240
tp4382
I6
s(g36
g76
tp4383
I4
s(g176
g275
tp4384
I1
s(g36
g115
tp4385
I2
s(g48
g2116
tp4386
I6
s(g170
g22
tp4387
I1
s(g31
g238
tp4388
I1
s(g178
g347
tp4389
I6
s(g127
g237
tp4390
I1
s(g137
g449
tp4391
I1
s(g211
g284
tp4392
I2
s(g156
g144
tp4393
I5
s(g189
g109
tp4394
I1
s(g175
g246
tp4395
I7
s(g50
g22
tp4396
I1
s(g13
g141
tp4397
I6
s(g2953
g932
tp4398
I2
s(g678
g417
tp4399
I2
s(g1569
g220
tp4400
I1
s(g198
g1320
tp4401
I2
s(g92
g8
tp4402
I1
s(g109
g162
tp4403
I1
s(g215
g16
tp4404
I1
s(g4319
g220
tp4405
I1
s(g347
g42
tp4406
I1
s(g303
g215
tp4407
I1
s(g164
g137
tp4408
I1
s(g497
g127
tp4409
I6
s(g395
g237
tp4410
I1
s(g37
g78
tp4411
I2
s(g395
g330
tp4412
I3
s(g397
g2411
tp4413
I1
s(g37
g343
tp4414
I4
s(g440
g10
tp4415
I1
s(g293
g114
tp4416
I3
s(g85
g142
tp4417
I1
s(g124
g215
tp4418
I1
s(g16
g11
tp4419
I2
s(g370
g682
tp4420
I2
s(g178
g173
tp4421
I5
s(g127
g11
tp4422
I2
s(g497
g10
tp4423
I1
s(g157
g212
tp4424
I2
s(g175
g58
tp4425
I1
s(g30
g170
tp4426
I3
s(g352
g250
tp4427
I1
s(g170
g333
tp4428
I1
s(g3146
S'oauthlib/oauth2/rfc6749/clients/service_application.py'
tp4429
I2
s(g36
g50
tp4430
I1
s(g147
g666
tp4431
I9
s(g18
g347
tp4432
I6
s(g121
g697
tp4433
I1
s(g73
g237
tp4434
I2
s(g58
g434
tp4435
I1
s(g524
g895
tp4436
I2
s(S'oauthlib/oauth2/rfc6749/grant_types/openid_connect.py'
g2783
tp4437
I1
s(g31
g115
tp4438
I1
s(g3131
g1118
tp4439
I2
s(g115
g434
tp4440
I1
s(g33
g173
tp4441
I5
s(g127
g42
tp4442
I1
s(g73
g33
tp4443
I6
s(g124
g114
tp4444
I1
s(g33
g343
tp4445
I2
s(g90
g333
tp4446
I1
s(g681
g972
tp4447
I2
s(g124
g343
tp4448
I3
s(g178
g440
tp4449
I6
s(g131
g347
tp4450
I5
s(g141
g275
tp4451
I11
s(g170
g275
tp4452
I1
s(g102
g110
tp4453
I1
s(g50
g19
tp4454
I1
s(g16
g275
tp4455
I1
s(g43
g78
tp4456
I2
s(g3389
g2935
tp4457
I9
s(g519
g349
tp4458
I1
s(g18
g33
tp4459
I5
s(g254
g497
tp4460
I5
s(g178
g241
tp4461
I1
s(g228
g275
tp4462
I1
s(g75
g237
tp4463
I1
s(g125
g246
tp4464
I1
s(g13
g58
tp4465
I1
s(g765
g320
tp4466
I2
s(g132
g11
tp4467
I1
s(g270
g238
tp4468
I1
s(g189
g19
tp4469
I1
s(g467
g100
tp4470
I1
s(g200
g1022
tp4471
I3
s(g42
g132
tp4472
I1
s(g254
g78
tp4473
I1
s(g124
g127
tp4474
I1
s(S'oauthlib/oauth2_draft25/__init__.py'
p4475
S'tests/oauth2_draft25/__init__.py'
p4476
tp4477
I3
s(g293
g228
tp4478
I3
s(g31
g194
tp4479
I1
s(g131
g115
tp4480
I1
s(g160
g252
tp4481
I3
s(g257
g56
tp4482
I4
s(g21
g434
tp4483
I1
s(g194
g110
tp4484
I2
s(g888
S'oauthlib/oauth1/rfc5849/request_validator.py'
tp4485
I3
s(g370
g972
tp4486
I2
s(g228
g22
tp4487
I1
s(g246
g11
tp4488
I1
s(g3146
S'tests/oauth2/rfc6749/test_utils.py'
tp4489
I2
s(g13
g217
tp4490
I5
s(g2758
g198
tp4491
I1
s(g147
g211
tp4492
I4
s(g170
g194
tp4493
I1
s(g812
g485
tp4494
I1
s(g58
g275
tp4495
I1
s(g246
g162
tp4496
I1
s(g261
g366
tp4497
I1
s(g630
g309
tp4498
I1
s(g88
g92
tp4499
I1
s(g62
g11
tp4500
I4
s(g497
g170
tp4501
I4
s(g370
g320
tp4502
I2
s(g124
g190
tp4503
I1
s(g21
g270
tp4504
I2
s(g141
g85
tp4505
I6
s(g104
g11
tp4506
I4
s(g194
g275
tp4507
I1
s(g125
g142
tp4508
I1
s(g293
g115
tp4509
I1
s(g90
g194
tp4510
I1
s(g73
g241
tp4511
I1
s(g15
g190
tp4512
I1
s(g104
g50
tp4513
I1
s(g124
g102
tp4514
I1
s(g440
g217
tp4515
I5
s(g75
g115
tp4516
I1
s(g765
g204
tp4517
I2
s(g175
g275
tp4518
I1
s(g215
g115
tp4519
I1
s(g137
g92
tp4520
I1
s(g2626
g180
tp4521
I1
s(g708
g8
tp4522
I1
s(g475
g411
tp4523
I1
s(g117
g355
tp4524
I8
s(g521
g56
tp4525
I4
s(g31
g241
tp4526
I1
s(g15
g110
tp4527
I2
s(g180
g198
tp4528
I1
s(g33
g519
tp4529
I1
s(g178
g246
tp4530
I1
s(g90
g78
tp4531
I1
s(g82
g1156
tp4532
I6
s(g115
g276
tp4533
I1
s(g220
g4179
tp4534
I1
s(g308
g449
tp4535
I1
s(g347
g330
tp4536
I1
s(g293
g90
tp4537
I1
s(g521
g160
tp4538
I4
s(g75
g173
tp4539
I3
s(g228
g264
tp4540
I6
s(g270
g78
tp4541
I1
s(g33
g349
tp4542
I2
s(g298
g682
tp4543
I2
s(g270
g276
tp4544
I1
s(g650
g208
tp4545
I2
s(g150
g2447
tp4546
I4
s(g935
g298
tp4547
I2
s(g90
g275
tp4548
I1
s(g303
g194
tp4549
I1
s(g2329
g328
tp4550
I10
s(g814
g97
tp4551
I3
s(g24
g384
tp4552
I1
s(g62
g34
tp4553
I4
s(g19
g343
tp4554
I2
s(g21
g124
tp4555
I1
s(g16
g190
tp4556
I1
s(g121
g137
tp4557
I1
s(g217
g343
tp4558
I4
s(g85
g170
tp4559
I16
s(g231
g34
tp4560
I1
s(g440
g349
tp4561
I1
s(g37
g349
tp4562
I1
s(g68
g208
tp4563
I2
s(g80
g194
tp4564
I1
s(g102
g34
tp4565
I1
s(g13
g170
tp4566
I7
s(g25
g1240
tp4567
I3
s(g895
g2447
tp4568
I4
s(g180
g197
tp4569
I1
s(g270
g241
tp4570
I1
s(g254
g114
tp4571
I3
s(g643
g651
tp4572
I3
s(g2626
g198
tp4573
I1
s(g36
g110
tp4574
I1
s(g370
g764
tp4575
I2
s(g475
g1022
tp4576
I5
s(g142
g519
tp4577
I1
s(g156
g212
tp4578
I2
s(g167
g3568
tp4579
I1
s(g139
g115
tp4580
I1
s(g603
g24
tp4581
I3
s(g1783
g888
tp4582
I3
s(g254
g73
tp4583
I5
s(g13
g349
tp4584
I1
s(g212
g282
tp4585
I2
s(g2046
g198
tp4586
I1
s(g417
g619
tp4587
I1
s(g231
g276
tp4588
I1
s(g80
g31
tp4589
I1
s(g370
g299
tp4590
I2
s(g80
g115
tp4591
I1
s(g90
g10
tp4592
I1
s(g76
g264
tp4593
I3
s(g58
g231
tp4594
I5
s(g217
g90
tp4595
I1
s(g80
g238
tp4596
I1
s(g110
g43
tp4597
I4
s(g147
g524
tp4598
I9
s(g176
g231
tp4599
I4
s(g170
g264
tp4600
I4
s(g180
g467
tp4601
I1
s(g162
g43
tp4602
I2
s(g42
g10
tp4603
I1
s(g139
g173
tp4604
I5
s(g170
g231
tp4605
I1
s(g76
g34
tp4606
I1
s(g603
g1580
tp4607
I1
s(g30
g343
tp4608
I3
s(g2053
S'oauthlib/oauth2/draft25/errors.py'
tp4609
I1
s(g270
g34
tp4610
I1
s(g303
g22
tp4611
I1
s(g18
g13
tp4612
I6
s(g437
S'tests/oauth2/rfc6749/grant_types/test_refresh_token.py'
tp4613
I1
s(g73
g19
tp4614
I1
s(g90
g34
tp4615
I1
s(g603
g1589
tp4616
I3
s(g15
g246
tp4617
I1
s(g114
g110
tp4618
I1
s(g217
g194
tp4619
I1
s(g270
g33
tp4620
I1
s(g142
g190
tp4621
I1
s(g30
g194
tp4622
I1
s(g48
g60
tp4623
I6
s(g238
g162
tp4624
I1
s(g170
g215
tp4625
I1
s(g30
g440
tp4626
I5
s(g333
g275
tp4627
I1
s(g153
g280
tp4628
I1
s(g125
g50
tp4629
I1
s(g254
g90
tp4630
I1
s(g303
g246
tp4631
I1
s(g231
g11
tp4632
I1
s(g189
g11
tp4633
I1
s(g1022
g581
tp4634
I4
s(g132
g19
tp4635
I1
s(g452
g739
tp4636
I4
s(g570
g464
tp4637
I1
s(g104
g110
tp4638
I1
s(g18
g170
tp4639
I4
s(g440
g519
tp4640
I1
s(g415
g765
tp4641
I2
s(g139
g109
tp4642
I1
s(g375
g154
tp4643
I1
s(g991
g299
tp4644
I2
s(g2434
g397
tp4645
I1
s(g217
g231
tp4646
I1
s(g256
g56
tp4647
I3
s(g440
g194
tp4648
I1
s(g85
g109
tp4649
I1
s(g241
g11
tp4650
I2
s(g303
g178
tp4651
I3
s(g33
g58
tp4652
I1
s(g276
g343
tp4653
I1
s(g34
g190
tp4654
I1
s(g62
g16
tp4655
I1
s(S'oauthlib/oauth1/rfc5849/utils.py'
g361
tp4656
I1
s(g254
g194
tp4657
I1
s(g935
g681
tp4658
I2
s(g159
g257
tp4659
I3
s(g75
g10
tp4660
I1
s(g643
g67
tp4661
I3
s(g497
g215
tp4662
I1
s(g121
g92
tp4663
I1
s(g125
g238
tp4664
I1
s(S'oauthlib/common.py'
S'tests/oauth2/rfc6749/endpoints/test_revocation_endpoint.py'
tp4665
I2
s(g164
g87
tp4666
I1
s(g58
g115
tp4667
I1
s(g521
g252
tp4668
I5
s(g175
g264
tp4669
I1
s(g120
g449
tp4670
I1
s(g1215
g958
tp4671
I3
s(g621
g24
tp4672
I3
s(g270
g175
tp4673
I1
s(g120
g697
tp4674
I1
s(g150
g1356
tp4675
I5
s(g678
g203
tp4676
I2
s(g73
g109
tp4677
I1
s(g178
g36
tp4678
I7
s(g159
g357
tp4679
I2
s(g256
g67
tp4680
I3
s(g33
g330
tp4681
I1
s(g519
g275
tp4682
I1
s(g25
g1768
tp4683
I2
s(g237
g142
tp4684
I1
s(g124
g50
tp4685
I1
s(g80
g189
tp4686
I1
s(g497
g519
tp4687
I1
s(g76
g189
tp4688
I1
s(g148
g895
tp4689
I5
s(g131
g15
tp4690
I3
s(g4325
g168
tp4691
I1
s(g73
g343
tp4692
I2
s(g127
g115
tp4693
I1
s(g497
g194
tp4694
I1
s(g254
g190
tp4695
I1
s(g293
g141
tp4696
I5
s(g352
g137
tp4697
I1
s(g104
g114
tp4698
I3
s(g802
g829
tp4699
I1
s(g487
g384
tp4700
I1
s(S'oauthlib/oauth1/__init__.py'
S'tests/oauth1/rfc5849/test_client.py'
tp4701
I1
s(g2872
g3459
tp4702
I3
s(g3230
g220
tp4703
I1
s(g76
g110
tp4704
I1
s(g215
g241
tp4705
I1
s(g570
g465
tp4706
I1
s(g2122
g366
tp4707
I1
s(g62
g246
tp4708
I1
s(g1409
g405
tp4709
I2
s(g497
g104
tp4710
I4
s(g2758
g99
tp4711
I1
s(g303
g33
tp4712
I3
s(g76
g15
tp4713
I6
s(g13
g275
tp4714
I1
s(g308
g630
tp4715
I1
s(S'oauthlib/__init__.py'
S'oauthlib/oauth.py'
tp4716
I1
s(g139
g142
tp4717
I1
s(g120
g345
tp4718
I1
s(g298
g204
tp4719
I2
s(g333
g190
tp4720
I1
s(g270
g215
tp4721
I1
s(g124
g109
tp4722
I4
s(g164
g630
tp4723
I1
s(g30
g11
tp4724
I1
s(g15
g78
tp4725
I3
s(g50
g330
tp4726
I4
s(g440
g343
tp4727
I2
s(g13
g42
tp4728
I1
s(g21
g142
tp4729
I1
s(g175
g109
tp4730
I1
s(g455
g220
tp4731
I1
s(g109
g241
tp4732
I1
s(g395
g434
tp4733
I1
s(g254
g175
tp4734
I3
s(g215
g434
tp4735
I1
s(g62
g217
tp4736
I4
s(g31
g264
tp4737
I8
s(g347
g141
tp4738
I6
s(g246
g276
tp4739
I1
s(g345
g834
tp4740
I1
s(g85
g194
tp4741
I1
s(g124
g170
tp4742
I1
s.