ccollections
defaultdict
p1
(c__builtin__
int
p2
tRp3
(S'aioredis/commands/server.py'
p4
S'tests/pool_test.py'
p5
tp6
I3
s(S'aioredis/__init__.py'
p7
S'tests/pubsub_listener_test.py'
p8
tp9
I1
s(S'examples/commands.py'
p10
S'examples/scan.py'
p11
tp12
I4
s(S'examples/py34/pool_pubsub.py'
p13
S'examples/python_3.5_pool.py'
p14
tp15
I2
s(S'tests/list_commands_test.py'
p16
S'tests/reconnect_test.py'
p17
tp18
I3
s(S'tests/connection_commands_test.py'
p19
S'tests/connection_test.py'
p20
tp21
I13
s(S'aioredis/commands/__init__.py'
p22
S'examples/pool_pubsub.py'
p23
tp24
I1
s(g4
S'tests/hash_commands_test.py'
p25
tp26
I2
s(S'examples/iscan.py'
p27
S'examples/python_3.5_iscan.py'
p28
tp29
I2
s(S'aioredis/log.py'
p30
S'aioredis/sentinel/parser.py'
p31
tp32
I1
s(S'aioredis/commands/sentinel.py'
p33
S'tests/sentinel_pubsub_commands_test.py'
p34
tp35
I1
s(S'examples/pool.py'
p36
S'tests/set_commands_test.py'
p37
tp38
I1
s(S'aioredis/commands/hyperloglog.py'
p39
S'tests/hyperloglog_commands_test.py'
p40
tp41
I5
s(S'aioredis/commands/list.py'
p42
S'aioredis/commands/server.py'
p43
tp44
I5
s(S'examples/py34/pipeline.py'
p45
S'examples/py34/pubsub2.py'
p46
tp47
I2
s(S'aioredis/__init__.py'
p48
S'aioredis/sentinel/__init__.py'
p49
tp50
I1
s(S'aioredis/pool.py'
p51
S'tests/sentinel2_test.py'
p52
tp53
I1
s(S'examples/pool2.py'
p54
S'examples/py34/connection.py'
p55
tp56
I2
s(S'tests/py35_generic_commands_test.py'
p57
S'tests/py35_hash_commands_test.py'
p58
tp59
I1
s(S'tests/connection_test.py'
p60
S'tests/reconnect_test.py'
p61
tp62
I5
s(S'aioredis/__init__.py'
p63
S'examples/pool_pubsub.py'
tp64
I3
s(S'tests/py35_pool_test.py'
p65
S'tests/py35_pubsub_commands_test.py'
p66
tp67
I2
s(S'aioredis/sentinel.py'
p68
S'tests/sentinel_pubsub_commands_test.py'
tp69
I1
s(S'aioredis/errors.py'
p70
S'examples/transaction.py'
p71
tp72
I1
s(S'aioredis/util.py'
p73
S'tests/pubsub_commands_test.py'
p74
tp75
I8
s(S'aioredis/log.py'
p76
S'tests/string_commands_test.py'
p77
tp78
I1
s(S'tests/channel_test.py'
p79
S'tests/connection_test.py'
tp80
I1
s(S'aioredis/commands/hash.py'
p81
S'tests/multi_exec_test.py'
p82
tp83
I2
s(S'examples/pool.py'
p84
g28
tp85
I2
s(S'aioredis/commands/cluster.py'
p86
g5
tp87
I1
s(S'tests/generic_commands_test.py'
p88
S'tests/scripting_commands_test.py'
p89
tp90
I3
s(g89
S'tests/server_commands_test.py'
p91
tp92
I2
s(g14
g11
tp93
I2
s(S'aioredis/commands/hash.py'
p94
S'tests/py35_pool_test.py'
p95
tp96
I2
s(S'tests/connection_test.py'
S'tests/sorted_set_commands_test.py'
p97
tp98
I2
s(S'aioredis/commands/geo.py'
p99
S'aioredis/connection.py'
p100
tp101
I1
s(S'aioredis/commands/hash.py'
p102
S'examples/transaction2.py'
p103
tp104
I2
s(g43
S'aioredis/commands/transaction.py'
p105
tp106
I6
s(S'examples/pubsub.py'
p107
g11
tp108
I4
s(S'aioredis/commands/server.py'
p109
S'tests/sentinel_test.py'
p110
tp111
I1
s(g86
S'aioredis/commands/hyperloglog.py'
p112
tp113
I2
s(g16
S'tests/pubsub_commands_test.py'
p114
tp115
I2
s(S'tests/py35_pool_test.py'
p116
S'tests/py35_sorted_set_commands_test.py'
p117
tp118
I1
s(S'examples/py34/pubsub.py'
p119
S'examples/py34/scan.py'
p120
tp121
I2
s(g107
g55
tp122
I2
s(S'tests/pool_test.py'
p123
g114
tp124
I2
s(S'examples/pipeline.py'
p125
g13
tp126
I2
s(S'aioredis/commands/server.py'
p127
S'tests/py35_pubsub_commands_test.py'
p128
tp129
I1
s(S'aioredis/commands/generic.py'
p130
S'aioredis/commands/scripting.py'
p131
tp132
I6
s(S'aioredis/commands/scripting.py'
p133
S'examples/pool2.py'
p134
tp135
I1
s(S'examples/python_3.5_iscan.py'
p136
S'examples/python_3.5_pool.py'
p137
tp138
I6
s(S'aioredis/commands/generic.py'
p139
g11
tp140
I2
s(S'tests/hyperloglog_commands_test.py'
p141
S'tests/sorted_set_commands_test.py'
p142
tp143
I2
s(S'runtests.py'
p144
S'tests/connection_test.py'
p145
tp146
I2
s(S'aioredis/util.py'
S'tests/pool_test.py'
p147
tp148
I2
s(S'aioredis/pool.py'
p149
g25
tp150
I1
s(S'aioredis/protocol.py'
p151
S'runtests.py'
tp152
I1
s(S'examples/pipeline.py'
p153
S'tests/pubsub_commands_test.py'
p154
tp155
I1
s(S'aioredis/sentinel/sentinel_old.py'
p156
S'tests/conftest.py'
p157
tp158
I2
s(S'tests/pubsub_commands_test.py'
p159
g57
tp160
I1
s(g10
g14
tp161
I2
s(g102
S'aioredis/commands/transaction.py'
p162
tp163
I8
s(g23
S'tests/ssl_test.py'
p164
tp165
I1
s(g112
S'tests/server_commands_test.py'
p166
tp167
I1
s(S'tests/_testutil.py'
p168
g58
tp169
I1
s(S'aioredis/errors.py'
p170
S'examples/pubsub.py'
p171
tp172
I1
s(S'aioredis/commands/set.py'
p173
S'tests/hash_commands_test.py'
tp174
I5
s(S'aioredis/commands/sentinel.py'
p175
S'aioredis/sentinel/__init__.py'
p176
tp177
I1
s(g84
S'examples/py34/transaction2.py'
p178
tp179
I2
s(S'aioredis/__init__.py'
p180
S'aioredis/connection.py'
p181
tp182
I15
s(g99
S'aioredis/commands/set.py'
p183
tp184
I1
s(S'aioredis/sentinel.py'
p185
S'tests/sentinel_test.py'
p186
tp187
I4
s(S'aioredis/pool.py'
S'tests/conftest.py'
p188
tp189
I6
s(S'aioredis/connection.py'
p190
g8
tp191
I1
s(S'aioredis/commands/server.py'
p192
S'tests/server_commands_test.py'
p193
tp194
I8
s(S'tests/encode_command_test.py'
p195
S'tests/hash_commands_test.py'
p196
tp197
I1
s(g4
S'examples/py34/pool_pubsub.py'
p198
tp199
I1
s(S'tests/pool_test.py'
p200
S'tests/sentinel_commands_test.py'
p201
tp202
I1
s(g36
S'tests/generic_commands_test.py'
p203
tp204
I1
s(S'tests/_testutil.py'
p205
S'tests/pool_test.py'
tp206
I3
s(S'examples/connection.py'
p207
g120
tp208
I2
s(S'aioredis/commands/hash.py'
p209
S'aioredis/commands/string.py'
p210
tp211
I8
s(S'aioredis/commands/sorted_set.py'
p212
S'tests/encode_command_test.py'
p213
tp214
I1
s(g133
g198
tp215
I1
s(g134
S'tests/conftest.py'
p216
tp217
I1
s(S'aioredis/__init__.py'
p218
g94
tp219
I3
s(S'tests/connection_commands_test.py'
p220
g17
tp221
I4
s(g207
g55
tp222
I2
s(S'tests/pool_test.py'
p223
g186
tp224
I1
s(g42
S'tests/transaction_commands_test.py'
p225
tp226
I1
s(S'examples/py34/pool.py'
p227
g203
tp228
I1
s(g218
S'aioredis/commands/generic.py'
p229
tp230
I2
s(S'aioredis/commands/generic.py'
p231
S'tests/py35_pool_test.py'
tp232
I2
s(g139
g28
tp233
I2
s(S'tests/__init__.py'
p234
g116
tp235
I1
s(S'tests/scripting_commands_test.py'
p236
S'tests/sorted_set_commands_test.py'
p237
tp238
I1
s(g88
g17
tp239
I4
s(g86
S'tests/connection_commands_test.py'
p240
tp241
I1
s(S'examples/py34/pool.py'
p242
S'examples/transaction.py'
p243
tp244
I4
s(S'aioredis/commands/string.py'
p245
g95
tp246
I1
s(S'examples/py34/pool.py'
p247
S'examples/py34/pool_pubsub.py'
p248
tp249
I4
s(g16
g66
tp250
I2
s(g27
g14
tp251
I2
s(g207
g242
tp252
I4
s(g209
g131
tp253
I5
s(g112
g198
tp254
I1
s(S'aioredis/commands/pubsub.py'
p255
S'aioredis/commands/transaction.py'
p256
tp257
I2
s(g157
g186
tp258
I3
s(S'tests/coerced_keys_dict_test.py'
p259
S'tests/connection_commands_test.py'
p260
tp261
I1
s(g23
g203
tp262
I1
s(g130
S'tests/connection_commands_test.py'
p263
tp264
I3
s(S'examples/py34/commands.py'
p265
g120
tp266
I2
s(g195
S'tests/hyperloglog_commands_test.py'
p267
tp268
I1
s(g10
g242
tp269
I4
s(g84
g14
tp270
I4
s(S'examples/pipeline.py'
p271
S'examples/transaction2.py'
p272
tp273
I4
s(g28
g11
tp274
I2
s(g119
g11
tp275
I2
s(g220
g16
tp276
I3
s(S'aioredis/commands/__init__.py'
p277
S'tests/_testutil.py'
p278
tp279
I4
s(S'aioredis/connection.py'
g147
tp280
I13
s(g23
g166
tp281
I1
s(g125
g11
tp282
I2
s(S'aioredis/commands/sorted_set.py'
p283
g23
tp284
I1
s(g149
g198
tp285
I1
s(g76
g198
tp286
I1
s(g196
g117
tp287
I1
s(g149
g77
tp288
I2
s(S'aioredis/sentinel/pool.py'
p289
S'setup.py'
p290
tp291
I2
s(g94
g164
tp292
I2
s(g123
g89
tp293
I3
s(g210
S'aioredis/util.py'
p294
tp295
I3
s(S'tests/multi_exec_test.py'
p296
S'tests/reconnect_test.py'
p297
tp298
I3
s(S'aioredis/commands/list.py'
p299
g227
tp300
I1
s(S'aioredis/util.py'
p301
S'tests/list_commands_test.py'
p302
tp303
I2
s(g17
S'tests/string_commands_test.py'
p304
tp305
I3
s(g195
g237
tp306
I1
s(g256
g95
tp307
I1
s(g120
g178
tp308
I2
s(g168
S'tests/ssl_test.py'
p309
tp310
I1
s(g220
g123
tp311
I10
s(g86
g94
tp312
I3
s(S'aioredis/__init__.py'
p313
S'aioredis/commands/sentinel.py'
p314
tp315
I1
s(S'aioredis/util.py'
p316
S'examples/python_3.5_pool.py'
p317
tp318
I1
s(g16
S'tests/task_cancellation_test.py'
p319
tp320
I2
s(g4
g76
tp321
I2
s(S'aioredis/connection.py'
p322
g213
tp323
I1
s(g27
S'examples/pool_pubsub.py'
p324
tp325
I2
s(g207
g11
tp326
I4
s(g195
S'tests/multi_exec_test.py'
p327
tp328
I1
s(S'tests/py35_set_commands_test.py'
p329
g236
tp330
I1
s(g84
g54
tp331
I4
s(g46
g103
tp332
I2
s(g195
g58
tp333
I1
s(g89
g319
tp334
I2
s(g123
S'tests/transaction_commands_test.py'
p335
tp336
I3
s(S'aioredis/commands/transaction.py'
p337
S'tests/sentinel_failover_test.py'
p338
tp339
I1
s(g27
g54
tp340
I2
s(g31
g156
tp341
I2
s(g183
S'tests/reconnect_test.py'
p342
tp343
I1
s(g31
g223
tp344
I1
s(g234
S'tests/reconnect_test.py'
p345
tp346
I1
s(g259
g57
tp347
I1
s(S'tests/connection_test.py'
p348
g57
tp349
I1
s(g10
g46
tp350
I2
s(g100
g134
tp351
I1
s(S'aioredis/util.py'
p352
S'tests/hash_commands_test.py'
p353
tp354
I6
s(S'aioredis/commands/__init__.py'
p355
S'aioredis/commands/pubsub.py'
tp356
I4
s(S'examples/py34/transaction.py'
p357
g14
tp358
I2
s(g131
S'tests/string_commands_test.py'
p359
tp360
I2
s(g102
g265
tp361
I2
s(S'aioredis/sentinel/pool.py'
p362
g156
tp363
I2
s(g242
g103
tp364
I2
s(g117
g345
tp365
I1
s(g195
g309
tp366
I1
s(g46
g243
tp367
I2
s(g237
g309
tp368
I1
s(g112
g25
tp369
I1
s(S'aioredis/commands/keys.py'
p370
S'tests/encode_command_test.py'
p371
tp372
I1
s(S'examples/pubsub.py'
p373
S'tests/connection_test.py'
p374
tp375
I2
s(g123
g17
tp376
I4
s(S'tests/hash_commands_test.py'
p377
S'tests/set_commands_test.py'
p378
tp379
I9
s(S'examples/transaction2.py'
p380
g154
tp381
I1
s(g23
g77
tp382
I1
s(g30
g185
tp383
I1
s(S'aioredis/commands/sorted_set.py'
p384
g302
tp385
I2
s(S'aioredis/connection.py'
S'docs/conf.py'
p386
tp387
I1
s(S'aioredis/sentinel/sentinel_old.py'
p388
S'tests/pubsub_receiver_test.py'
p389
tp390
I1
s(g229
g342
tp391
I1
s(g168
g128
tp392
I1
s(g229
g164
tp393
I1
s(S'aioredis/commands/set.py'
p394
g210
tp395
I9
s(g162
g46
tp396
I2
s(S'aioredis/connection.py'
S'tests/hyperloglog_commands_test.py'
p397
tp398
I1
s(g73
S'tests/connection_test.py'
p399
tp400
I10
s(g22
g164
tp401
I1
s(g159
S'tests/set_commands_test.py'
p402
tp403
I1
s(g394
g212
tp404
I7
s(g76
g95
tp405
I1
s(S'tests/ssl_test.py'
p406
g319
tp407
I2
s(S'aioredis/__init__.py'
S'aioredis/pubsub.py'
p408
tp409
I2
s(S'aioredis/__init__.py'
p410
S'tests/transaction_commands_test.py'
p411
tp412
I4
s(S'aioredis/commands/hash.py'
p413
g352
tp414
I8
s(S'aioredis/util.py'
g79
tp415
I2
s(S'aioredis/commands/hyperloglog.py'
p416
S'tests/connection_test.py'
p417
tp418
I3
s(g128
g117
tp419
I1
s(g84
g45
tp420
I2
s(g48
g290
tp421
I3
s(g255
g240
tp422
I1
s(g125
g55
tp423
I2
s(g99
g4
tp424
I1
s(S'aioredis/sentinel/commands.py'
p425
g156
tp426
I2
s(g255
g216
tp427
I1
s(g119
g243
tp428
I2
s(S'aioredis/pool.py'
p429
g290
tp430
I1
s(S'aioredis/errors.py'
p431
g201
tp432
I1
s(g131
g212
tp433
I5
s(S'aioredis/commands/__init__.py'
p434
g384
tp435
I5
s(g23
g37
tp436
I1
s(g99
g203
tp437
I1
s(g130
g212
tp438
I9
s(g357
g178
tp439
I2
s(S'aioredis/commands/sorted_set.py'
p440
S'tests/sorted_set_commands_test.py'
p441
tp442
I27
s(g76
S'tests/connection_test.py'
p443
tp444
I1
s(g125
g54
tp445
I2
s(g265
g55
tp446
I2
s(S'aioredis/connection.py'
p447
g425
tp448
I2
s(S'tests/generic_commands_test.py'
p449
g58
tp450
I1
s(g431
S'aioredis/log.py'
p451
tp452
I1
s(S'tests/hash_commands_test.py'
p453
g89
tp454
I2
s(g195
g402
tp455
I1
s(g195
g345
tp456
I1
s(g209
g213
tp457
I2
s(g84
g46
tp458
I2
s(g114
g66
tp459
I2
s(S'aioredis/commands/generic.py'
p460
S'tests/scripting_commands_test.py'
p461
tp462
I2
s(S'aioredis/commands/generic.py'
p463
S'tests/connection_test.py'
p464
tp465
I6
s(g94
g255
tp466
I3
s(S'aioredis/commands/server.py'
p467
g417
tp468
I5
s(S'aioredis/__init__.py'
S'examples/python_3.5_pool.py'
p469
tp470
I1
s(g168
g259
tp471
I1
s(g76
g37
tp472
I1
s(S'tests/generic_commands_test.py'
p473
g378
tp474
I10
s(S'tests/_testutil.py'
p475
g378
tp476
I3
s(g159
g58
tp477
I1
s(g195
S'tests/task_cancellation_test.py'
p478
tp479
I1
s(g43
g225
tp480
I2
s(S'aioredis/commands/sorted_set.py'
S'aioredis/util.py'
tp481
I9
s(g453
g66
tp482
I2
s(S'aioredis/commands/__init__.py'
p483
g362
tp484
I2
s(S'aioredis/connection.py'
S'tests/_testutil.py'
p485
tp486
I2
s(g198
g95
tp487
I1
s(g114
g406
tp488
I2
s(S'tests/pool_test.py'
p489
g58
tp490
I1
s(g134
g77
tp491
I1
s(g299
g342
tp492
I1
s(g327
g117
tp493
I1
s(g348
g327
tp494
I1
s(g37
g164
tp495
I2
s(g10
g27
tp496
I2
s(g58
g117
tp497
I1
s(S'aioredis/pubsub.py'
S'tests/py35_pubsub_receiver_test.py'
p498
tp499
I1
s(S'aioredis/__init__.py'
S'docs/conf.py'
p500
tp501
I18
s(S'aioredis/commands/hyperloglog.py'
p502
g294
tp503
I3
s(g76
g240
tp504
I2
s(g30
g52
tp505
I1
s(S'aioredis/__init__.py'
p506
S'tests/geo_commands_test.py'
p507
tp508
I2
s(S'aioredis/pubsub.py'
S'tests/pool_test.py'
p509
tp510
I1
s(g42
g322
tp511
I4
s(S'aioredis/commands/transaction.py'
S'tests/reconnect_test.py'
tp512
I4
s(g425
g52
tp513
I1
s(g198
g164
tp514
I1
s(S'aioredis/commands/transaction.py'
g397
tp515
I1
s(S'aioredis/commands/hash.py'
p516
g267
tp517
I1
s(g27
g13
tp518
I2
s(g102
g178
tp519
I2
s(g162
g13
tp520
I3
s(g84
g120
tp521
I2
s(g162
g243
tp522
I5
s(S'aioredis/commands/generic.py'
S'tests/sorted_set_commands_test.py'
p523
tp524
I2
s(g57
S'tests/string_commands_test.py'
p525
tp526
I1
s(g4
g164
tp527
I2
s(g88
g114
tp528
I2
s(S'examples/pubsub2.py'
p529
g136
tp530
I4
s(g267
g128
tp531
I1
s(S'tests/conftest.py'
p532
S'tests/sentinel_commands_test.py'
p533
tp534
I3
s(g94
g37
tp535
I5
s(g156
g186
tp536
I2
s(g314
S'aioredis/errors.py'
p537
tp538
I1
s(S'aioredis/pool.py'
S'tests/connection_test.py'
tp539
I5
s(S'aioredis/connection.py'
S'aioredis/pubsub.py'
p540
tp541
I3
s(g57
g128
tp542
I1
s(g200
g338
tp543
I1
s(S'tests/reconnect_test.py'
S'tests/server_commands_test.py'
p544
tp545
I4
s(g313
S'aioredis/sentinel.py'
p546
tp547
I1
s(g76
g164
tp548
I1
s(g377
g141
tp549
I3
s(g10
g13
tp550
I2
s(S'aioredis/commands/list.py'
p551
S'tests/list_commands_test.py'
p552
tp553
I11
s(S'tests/connection_test.py'
p554
g16
tp555
I6
s(S'tests/conftest.py'
p556
g453
tp557
I3
s(g362
g157
tp558
I4
s(g131
g43
tp559
I5
s(g86
g164
tp560
I1
s(S'aioredis/commands/server.py'
p561
S'aioredis/sentinel/commands.py'
p562
tp563
I1
s(S'aioredis/util.py'
p564
g373
tp565
I2
s(g556
g16
tp566
I2
s(S'tests/connection_test.py'
S'tests/pubsub_listener_test.py'
p567
tp568
I1
s(S'tests/connection_commands_test.py'
p569
S'tests/pubsub_receiver_test.py'
p570
tp571
I1
s(S'aioredis/commands/list.py'
p572
g461
tp573
I2
s(g123
g304
tp574
I4
s(S'aioredis/commands/sorted_set.py'
p575
S'tests/set_commands_test.py'
tp576
I5
s(g127
g329
tp577
I1
s(g324
g107
tp578
I2
s(g66
g406
tp579
I2
s(S'aioredis/abc.py'
p580
g509
tp581
I1
s(g127
g237
tp582
I1
s(g134
g25
tp583
I1
s(S'examples/pubsub2.py'
p584
g11
tp585
I2
s(g162
g55
tp586
I2
s(g259
g267
tp587
I1
s(g54
g243
tp588
I2
s(g234
S'tests/list_commands_test.py'
p589
tp590
I1
s(S'aioredis/commands/set.py'
g523
tp591
I2
s(g54
g357
tp592
I2
s(S'aioredis/commands/__init__.py'
p593
g338
tp594
I1
s(g260
g327
tp595
I1
s(S'examples/pool_pubsub.py'
p596
S'tests/conftest.py'
p597
tp598
I2
s(g107
g265
tp599
I2
s(g99
g77
tp600
I1
s(S'tests/conftest.py'
p601
g58
tp602
I1
s(g324
g46
tp603
I2
s(S'aioredis/connection.py'
p604
g144
tp605
I3
s(g463
S'aioredis/connection.py'
p606
tp607
I9
s(g502
g210
tp608
I8
s(g27
g125
tp609
I2
s(S'aioredis/pool.py'
p610
g596
tp611
I2
s(g606
S'tests/generic_commands_test.py'
p612
tp613
I3
s(g516
g259
tp614
I1
s(g183
g95
tp615
I1
s(g84
g357
tp616
I2
s(S'aioredis/commands/transaction.py'
p617
g156
tp618
I1
s(g324
g178
tp619
I2
s(g475
g142
tp620
I2
s(g22
g25
tp621
I3
s(g324
g265
tp622
I2
s(g227
g5
tp623
I1
s(g141
S'tests/string_commands_test.py'
p624
tp625
I3
s(S'aioredis/commands/generic.py'
p626
S'aioredis/pool.py'
p627
tp628
I3
s(g516
g329
tp629
I1
s(g86
g183
tp630
I2
s(g255
g164
tp631
I1
s(g434
S'aioredis/commands/hash.py'
p632
tp633
I9
s(g561
g290
tp634
I1
s(g94
g5
tp635
I2
s(g86
g299
tp636
I2
s(g86
g99
tp637
I1
s(g218
g25
tp638
I1
s(g112
g342
tp639
I1
s(g447
g156
tp640
I1
s(g210
g213
tp641
I1
s(g100
g23
tp642
I1
s(g99
g342
tp643
I1
s(g554
g304
tp644
I6
s(g139
g10
tp645
I2
s(g149
g203
tp646
I2
s(g467
g302
tp647
I3
s(g127
g478
tp648
I1
s(g43
g359
tp649
I3
s(g617
g186
tp650
I1
s(S'tests/_testutil.py'
p651
S'tests/transaction_commands_test.py'
p652
tp653
I3
s(g88
g335
tp654
I2
s(g31
g186
tp655
I2
s(S'tests/connection_commands_test.py'
p656
S'tests/string_commands_test.py'
tp657
I7
s(g290
S'tests/connection_commands_test.py'
p658
tp659
I1
s(g227
g166
tp660
I1
s(S'aioredis/__init__.py'
p661
S'tests/conftest.py'
p662
tp663
I4
s(g183
g149
tp664
I2
s(g259
g236
tp665
I1
s(S'aioredis/__init__.py'
p666
S'tests/connection_commands_test.py'
p667
tp668
I4
s(g4
g37
tp669
I2
s(g290
S'tests/conftest.py'
tp670
I2
s(g183
g198
tp671
I1
s(g283
g25
tp672
I3
s(g99
g112
tp673
I1
s(g42
g359
tp674
I3
s(g131
g213
tp675
I1
s(g84
g584
tp676
I2
s(g355
S'aioredis/util.py'
tp677
I5
s(g102
g125
tp678
I2
s(g245
g166
tp679
I1
s(g299
g134
tp680
I1
s(g117
g525
tp681
I1
s(g117
g237
tp682
I1
s(g55
g46
tp683
I2
s(g294
g263
tp684
I1
s(g483
g425
tp685
I2
s(g162
g28
tp686
I2
s(g556
g406
tp687
I3
s(g13
g120
tp688
I2
s(S'aioredis/commands/scripting.py'
p689
g302
tp690
I2
s(S'aioredis/connection.py'
p691
g461
tp692
I3
s(g162
g14
tp693
I2
s(g149
g134
tp694
I1
s(g13
g103
tp695
I2
s(g532
g570
tp696
I2
s(S'aioredis/sentinel/parser.py'
p697
S'setup.py'
p698
tp699
I1
s(g506
S'aioredis/commands/__init__.py'
p700
tp701
I13
s(g348
g58
tp702
I1
s(g139
g45
tp703
I2
s(g278
g371
tp704
I2
s(g259
g478
tp705
I1
s(g666
S'aioredis/errors.py'
p706
tp707
I13
s(g220
g335
tp708
I3
s(g259
g525
tp709
I1
s(g604
g145
tp710
I38
s(g102
g27
tp711
I2
s(g324
g55
tp712
I2
s(g406
g335
tp713
I2
s(g112
g216
tp714
I1
s(g36
g77
tp715
I1
s(g234
g449
tp716
I1
s(g112
g5
tp717
I1
s(g125
g243
tp718
I2
s(g99
g94
tp719
I1
s(g516
g117
tp720
I1
s(g245
g149
tp721
I3
s(g133
g95
tp722
I1
s(g99
g443
tp723
I1
s(g617
g30
tp724
I3
s(g431
g338
tp725
I1
s(g45
g119
tp726
I2
s(g120
g243
tp727
I2
s(g229
g76
tp728
I1
s(g601
g57
tp729
I1
s(g267
g116
tp730
I1
s(g706
S'tests/connection_test.py'
tp731
I4
s(g175
g425
tp732
I1
s(g220
g66
tp733
I2
s(g207
g107
tp734
I4
s(g706
g667
tp735
I3
s(g88
g123
tp736
I6
s(g100
g95
tp737
I1
s(S'tests/conftest.py'
g567
tp738
I1
s(g27
g107
tp739
I2
s(g58
g478
tp740
I1
s(g267
g58
tp741
I1
s(g265
g119
tp742
I2
s(g265
g103
tp743
I2
s(g36
g166
tp744
I1
s(g86
g229
tp745
I2
s(g42
g210
tp746
I7
s(g46
g178
tp747
I2
s(g245
g164
tp748
I1
s(g57
g345
tp749
I1
s(g384
g417
tp750
I4
s(g65
g335
tp751
I2
s(S'aioredis/commands/string.py'
p752
S'tests/string_commands_test.py'
tp753
I14
s(g54
g45
tp754
I2
s(g84
g11
tp755
I4
s(g283
g5
tp756
I2
s(S'aioredis/commands/pubsub.py'
p757
g74
tp758
I2
s(g86
g283
tp759
I2
s(g242
g178
tp760
I2
s(g283
g164
tp761
I1
s(g271
g529
tp762
I4
s(S'aioredis/sentinel/pool.py'
p763
g570
tp764
I2
s(g283
g76
tp765
I1
s(g84
g119
tp766
I2
s(g209
g263
tp767
I3
s(g185
g157
tp768
I1
s(g329
g525
tp769
I1
s(g185
g223
tp770
I1
s(g27
g11
tp771
I2
s(g116
g329
tp772
I1
s(g473
g624
tp773
I11
s(g584
g45
tp774
I2
s(g91
g406
tp775
I3
s(S'aioredis/commands/server.py'
p776
S'tests/generic_commands_test.py'
tp777
I4
s(g114
g335
tp778
I2
s(S'tests/sentinel_failover_test.py'
p779
S'tests/sentinel_test.py'
p780
tp781
I1
s(S'examples/pipeline.py'
p782
S'tests/pubsub_listener_test.py'
p783
tp784
I1
s(g112
g255
tp785
I2
s(g483
g157
tp786
I3
s(g107
g178
tp787
I2
s(g554
g335
tp788
I2
s(g86
g4
tp789
I3
s(g584
g46
tp790
I2
s(g45
g14
tp791
I2
s(g168
g116
tp792
I1
s(S'aioredis/commands/string.py'
p793
g461
tp794
I2
s(g133
g342
tp795
I1
s(g139
g162
tp796
I10
s(g162
g125
tp797
I2
s(S'aioredis/connection.py'
p798
S'examples/transaction.py'
p799
tp800
I3
s(g71
g485
tp801
I1
s(g299
g76
tp802
I1
s(g453
g91
tp803
I3
s(g299
g164
tp804
I1
s(g22
g36
tp805
I1
s(g86
g342
tp806
I1
s(g84
g243
tp807
I5
s(S'aioredis/connection.py'
p808
S'tests/sorted_set_commands_test.py'
p809
tp810
I2
s(g593
g290
tp811
I1
s(g537
S'tests/sentinel_test.py'
p812
tp813
I1
s(g212
g225
tp814
I2
s(g475
g473
tp815
I5
s(g125
g107
tp816
I2
s(g66
g89
tp817
I2
s(g265
g28
tp818
I2
s(S'examples/scan.py'
S'examples/sentinel.py'
p819
tp820
I2
s(S'aioredis/connection.py'
p821
S'aioredis/pool.py'
p822
tp823
I20
s(g267
g159
tp824
I1
s(g100
g198
tp825
I1
s(g378
g142
tp826
I7
s(g120
g28
tp827
I2
s(g290
g200
tp828
I1
s(g601
g267
tp829
I1
s(g220
g319
tp830
I2
s(S'examples/pubsub.py'
g819
tp831
I2
s(g168
g236
tp832
I2
s(g195
g329
tp833
I1
s(g212
g210
tp834
I8
s(g162
g107
tp835
I2
s(g283
g342
tp836
I1
s(g234
g159
tp837
I1
s(g234
g267
tp838
I1
s(g449
g327
tp839
I1
s(S'aioredis/commands/transaction.py'
p840
S'aioredis/pool.py'
p841
tp842
I7
s(g601
g237
tp843
I1
s(g22
g227
tp844
I1
s(g43
g213
tp845
I2
s(g107
g13
tp846
I2
s(g489
g57
tp847
I1
s(g120
g14
tp848
I2
s(g112
g23
tp849
I1
s(g207
g324
tp850
I2
s(g234
S'tests/transaction_commands_test.py'
p851
tp852
I1
s(g324
g28
tp853
I2
s(g91
g319
tp854
I2
s(g45
g120
tp855
I2
s(S'aioredis/util.py'
p856
S'tests/protocol_test.py'
p857
tp858
I1
s(g57
g237
tp859
I1
s(g265
g11
tp860
I2
s(g133
g5
tp861
I1
s(g100
g36
tp862
I1
s(g49
g201
tp863
I1
s(g370
S'tests/connection_commands_test.py'
tp864
I1
s(g134
g95
tp865
I1
s(g114
g304
tp866
I2
s(g689
g417
tp867
I3
s(g313
g812
tp868
I1
s(g178
g11
tp869
I2
s(g58
g851
tp870
I1
s(g27
g84
tp871
I2
s(g483
g175
tp872
I2
s(g207
g13
tp873
I2
s(S'aioredis/commands/__init__.py'
S'tests/reconnect_test.py'
p874
tp875
I8
s(g434
g467
tp876
I8
s(g55
g243
tp877
I2
s(g63
S'examples/pool.py'
tp878
I3
s(g475
g377
tp879
I5
s(g86
g203
tp880
I1
s(g114
g89
tp881
I2
s(g65
g17
tp882
I3
s(g10
g120
tp883
I2
s(g255
g77
tp884
I1
s(g102
g28
tp885
I2
s(g453
g16
tp886
I3
s(g449
g117
tp887
I1
s(g86
g76
tp888
I1
s(g370
g278
tp889
I1
s(g45
g11
tp890
I2
s(S'aioredis/commands/__init__.py'
p891
S'aioredis/commands/set.py'
p892
tp893
I7
s(g213
g359
tp894
I2
s(g16
g65
tp895
I2
s(g139
g242
tp896
I3
s(g425
g31
tp897
I2
s(S'aioredis/__init__.py'
p898
S'aioredis/protocol.py'
p899
tp900
I2
s(g27
g119
tp901
I2
s(g757
g399
tp902
I6
s(g52
g186
tp903
I1
s(g223
g52
tp904
I1
s(g410
S'aioredis/commands/transaction.py'
p905
tp906
I6
s(g139
g13
tp907
I3
s(g259
g237
tp908
I1
s(g139
g243
tp909
I2
s(g453
g335
tp910
I3
s(g290
g338
tp911
I1
s(g213
g225
tp912
I2
s(g4
g227
tp913
I1
s(g255
g133
tp914
I2
s(g763
g569
tp915
I2
s(g180
g374
tp916
I8
s(g255
g149
tp917
I3
s(g76
g36
tp918
I1
s(g198
g203
tp919
I1
s(g584
g243
tp920
I2
s(S'tests/generic_commands_test.py'
g567
tp921
I1
s(g107
g584
tp922
I2
s(S'aioredis/errors.py'
p923
S'tests/multi_exec_test.py'
p924
tp925
I2
s(g54
g178
tp926
I2
s(g570
g779
tp927
I1
s(g589
g117
tp928
I1
s(g55
g28
tp929
I2
s(g255
g25
tp930
I1
s(g265
g13
tp931
I2
s(g260
g58
tp932
I1
s(g51
g425
tp933
I2
s(S'examples/pool.py'
p934
S'tests/pool_test.py'
p935
tp936
I2
s(g170
S'tests/pubsub_commands_test.py'
p937
tp938
I1
s(g57
S'tests/server_commands_test.py'
p939
tp940
I1
s(g234
g128
tp941
I1
s(g125
g242
tp942
I2
s(S'tests/connection_test.py'
p943
g371
tp944
I2
s(g17
g406
tp945
I3
s(g237
g478
tp946
I1
s(g86
g227
tp947
I1
s(g402
g478
tp948
I1
s(g86
g255
tp949
I2
s(g86
g245
tp950
I2
s(g283
g198
tp951
I1
s(g207
g125
tp952
I2
s(g218
g245
tp953
I2
s(g99
g166
tp954
I2
s(S'tests/__init__.py'
p955
S'tests/connection_test.py'
tp956
I2
s(g584
g119
tp957
I2
s(g130
g213
tp958
I2
s(g131
g105
tp959
I5
s(g162
g120
tp960
I2
s(g43
g394
tp961
I5
s(g65
g91
tp962
I3
s(g134
g164
tp963
I1
s(g183
g5
tp964
I1
s(g48
g201
tp965
I1
s(g243
g103
tp966
I2
s(S'aioredis/commands/set.py'
p967
g302
tp968
I3
s(g13
g119
tp969
I2
s(S'aioredis/log.py'
p970
g822
tp971
I6
s(g99
g299
tp972
I1
s(g290
g201
tp973
I1
s(g324
g14
tp974
I4
s(g299
g255
tp975
I2
s(g234
g309
tp976
I1
s(g898
g857
tp977
I1
s(g267
g236
tp978
I1
s(g304
g335
tp979
I6
s(g149
g164
tp980
I2
s(g394
g105
tp981
I6
s(g45
g243
tp982
I2
s(g27
g243
tp983
I2
s(g162
g178
tp984
I2
s(g84
g55
tp985
I2
s(g162
g265
tp986
I2
s(g584
g265
tp987
I2
s(g584
g178
tp988
I2
s(g127
g57
tp989
I1
s(g112
g134
tp990
I1
s(g348
g267
tp991
I1
s(g5
g37
tp992
I2
s(g116
g237
tp993
I1
s(g27
g584
tp994
I2
s(g31
g362
tp995
I2
s(g51
g186
tp996
I1
s(g131
g210
tp997
I6
s(S'examples/commands.py'
g819
tp998
I2
s(S'aioredis/util.py'
p999
S'tests/geo_commands_test.py'
tp1000
I1
s(g162
g324
tp1001
I3
s(S'aioredis/pool.py'
p1002
S'tests/list_commands_test.py'
p1003
tp1004
I1
s(S'tests/_testutil.py'
g656
tp1005
I4
s(g234
g259
tp1006
I1
s(g7
g580
tp1007
I1
s(g529
g272
tp1008
I4
s(g218
g76
tp1009
I2
s(g242
g357
tp1010
I2
s(g255
g198
tp1011
I1
s(g46
g14
tp1012
I2
s(S'examples/connection.py'
g819
tp1013
I2
s(g134
g240
tp1014
I1
s(g198
g443
tp1015
I1
s(g554
g65
tp1016
I3
s(S'tests/pubsub_listener_test.py'
p1017
S'tests/string_commands_test.py'
tp1018
I2
s(g263
g213
tp1019
I3
s(g13
g357
tp1020
I2
s(g86
g36
tp1021
I1
s(g57
g117
tp1022
I1
s(g144
S'tests/protocol_test.py'
p1023
tp1024
I3
s(S'aioredis/commands/transaction.py'
p1025
g302
tp1026
I2
s(g120
g357
tp1027
I2
s(g533
g780
tp1028
I1
s(g76
g23
tp1029
I1
s(g114
g91
tp1030
I2
s(g327
g478
tp1031
I1
s(g102
g120
tp1032
I2
s(g245
g134
tp1033
I1
s(S'aioredis/sentinel/commands.py'
p1034
g569
tp1035
I2
s(g49
g338
tp1036
I1
s(g410
g924
tp1037
I2
s(g304
g319
tp1038
I2
s(g88
g66
tp1039
I2
s(g22
g203
tp1040
I2
s(g11
g243
tp1041
I4
s(g86
g256
tp1042
I2
s(g4
g23
tp1043
I1
s(g324
g103
tp1044
I2
s(g516
g234
tp1045
I1
s(S'aioredis/commands/transaction.py'
p1046
g652
tp1047
I13
s(g324
g119
tp1048
I2
s(g65
g319
tp1049
I2
s(g107
g243
tp1050
I4
s(g99
g76
tp1051
I1
s(S'aioredis/errors.py'
p1052
g934
tp1053
I1
s(g10
g55
tp1054
I2
s(g54
g14
tp1055
I2
s(g105
g213
tp1056
I1
s(S'aioredis/commands/__init__.py'
p1057
S'tests/list_commands_test.py'
tp1058
I5
s(g99
g95
tp1059
I1
s(g133
g76
tp1060
I1
s(g55
g13
tp1061
I2
s(S'aioredis/commands/__init__.py'
p1062
S'aioredis/pool.py'
tp1063
I18
s(g14
g243
tp1064
I2
s(g133
g164
tp1065
I1
s(g265
g46
tp1066
I2
s(g17
g335
tp1067
I2
s(g10
g54
tp1068
I2
s(g88
g65
tp1069
I3
s(g139
g584
tp1070
I2
s(g259
g117
tp1071
I1
s(g299
g5
tp1072
I1
s(g127
g234
tp1073
I1
s(g123
g65
tp1074
I4
s(S'aioredis/commands/keys.py'
S'aioredis/connection.py'
tp1075
I1
s(g54
g324
tp1076
I4
s(g260
g329
tp1077
I1
s(g656
S'tests/hash_commands_test.py'
tp1078
I4
s(g10
g324
tp1079
I2
s(g425
g362
tp1080
I4
s(g316
g153
tp1081
I1
s(g260
g57
tp1082
I1
s(g107
g45
tp1083
I2
s(g899
g857
tp1084
I2
s(g36
g95
tp1085
I1
s(g698
S'tests/sentinel_test.py'
tp1086
I1
s(g76
g25
tp1087
I1
s(g429
g338
tp1088
I1
s(g84
g103
tp1089
I2
s(S'aioredis/commands/hash.py'
p1090
g937
tp1091
I2
s(S'aioredis/connection.py'
p1092
g290
tp1093
I1
s(S'aioredis/commands/pubsub.py'
g170
tp1094
I2
s(g502
g394
tp1095
I8
s(g176
g156
tp1096
I2
s(g905
g923
tp1097
I4
s(S'aioredis/pubsub.py'
S'tests/pubsub_listener_test.py'
tp1098
I5
s(g48
g338
tp1099
I1
s(g175
g157
tp1100
I1
s(g139
g207
tp1101
I2
s(S'aioredis/commands/transaction.py'
p1102
g20
tp1103
I6
s(S'aioredis/commands/__init__.py'
p1104
S'aioredis/commands/scripting.py'
p1105
tp1106
I6
s(g255
g134
tp1107
I1
s(g255
g76
tp1108
I1
s(g327
g489
tp1109
I1
s(g556
g65
tp1110
I3
s(g218
g198
tp1111
I1
s(g139
g120
tp1112
I2
s(g99
g227
tp1113
I1
s(g99
g245
tp1114
I1
s(g198
g342
tp1115
I1
s(g283
g95
tp1116
I1
s(g178
g103
tp1117
I2
s(g394
g213
tp1118
I1
s(g181
g373
tp1119
I2
s(g324
g242
tp1120
I3
s(g763
g779
tp1121
I2
s(g58
g402
tp1122
I1
s(g434
g416
tp1123
I7
s(g431
g289
tp1124
I1
s(g242
g120
tp1125
I2
s(S'aioredis/__init__.py'
g937
tp1126
I1
s(g1046
g651
tp1127
I3
s(g569
g780
tp1128
I1
s(S'aioredis/commands/string.py'
p1129
g809
tp1130
I3
s(g131
g294
tp1131
I3
s(g570
g780
tp1132
I2
s(g357
g11
tp1133
I2
s(g133
g203
tp1134
I1
s(g425
g157
tp1135
I4
s(g102
g46
tp1136
I2
s(g51
g31
tp1137
I1
s(g324
g13
tp1138
I3
s(g533
g779
tp1139
I4
s(S'aioredis/abc.py'
p1140
S'aioredis/pubsub.py'
p1141
tp1142
I2
s(g4
g149
tp1143
I3
s(g99
g198
tp1144
I1
s(g168
g159
tp1145
I1
s(g117
g478
tp1146
I1
s(g554
g319
tp1147
I2
s(S'aioredis/commands/server.py'
p1148
g171
tp1149
I1
s(g337
g201
tp1150
I1
s(g562
g290
tp1151
I2
s(g17
g89
tp1152
I3
s(g451
g290
tp1153
I1
s(g967
g417
tp1154
I4
s(S'tests/server_commands_test.py'
p1155
S'tests/string_commands_test.py'
tp1156
I6
s(g99
g23
tp1157
I1
s(g255
g245
tp1158
I2
s(g55
g14
tp1159
I2
s(g483
g156
tp1160
I1
s(g22
g95
tp1161
I1
s(g28
g243
tp1162
I2
s(g16
g304
tp1163
I3
s(g431
g49
tp1164
I1
s(g76
g203
tp1165
I1
s(g185
g362
tp1166
I1
s(S'aioredis/commands/sentinel.py'
g109
tp1167
I1
s(g180
g564
tp1168
I5
s(g66
g91
tp1169
I2
s(S'aioredis/connection.py'
S'aioredis/util.py'
p1170
tp1171
I25
s(g348
g117
tp1172
I1
s(g554
g66
tp1173
I2
s(g112
g149
tp1174
I2
s(g242
g119
tp1175
I2
s(g198
g5
tp1176
I1
s(g234
g939
tp1177
I1
s(g109
S'aioredis/sentinel.py'
tp1178
I1
s(g183
g134
tp1179
I1
s(g99
g36
tp1180
I1
s(g102
g357
tp1181
I2
s(g112
g36
tp1182
I1
s(g86
g443
tp1183
I1
s(g601
g329
tp1184
I1
s(g299
g166
tp1185
I1
s(S'tests/sorted_set_commands_test.py'
S'tests/transaction_commands_test.py'
tp1186
I2
s(g256
g203
tp1187
I2
s(g255
g4
tp1188
I3
s(g54
g13
tp1189
I3
s(g99
g216
tp1190
I1
s(g271
g136
tp1191
I4
s(g49
g290
tp1192
I2
s(g502
g131
tp1193
I6
s(S'tests/list_commands_test.py'
S'tests/set_commands_test.py'
tp1194
I2
s(g99
g133
tp1195
I1
s(g601
g327
tp1196
I1
s(g329
g345
tp1197
I1
s(g453
g65
tp1198
I3
s(g102
g10
tp1199
I2
s(g139
g357
tp1200
I2
s(g899
g856
tp1201
I1
s(g195
g589
tp1202
I1
s(g198
g240
tp1203
I1
s(g234
g489
tp1204
I1
s(g107
g103
tp1205
I2
s(g327
g159
tp1206
I2
s(g99
g25
tp1207
I1
s(g255
g5
tp1208
I1
s(g168
g345
tp1209
I2
s(g100
g164
tp1210
I1
s(g394
g225
tp1211
I1
s(g57
g402
tp1212
I1
s(g30
g156
tp1213
I1
s(g188
S'tests/pool_test.py'
tp1214
I10
s(g267
g57
tp1215
I1
s(g210
g263
tp1216
I2
s(g54
g265
tp1217
I2
s(g327
g309
tp1218
I1
s(g227
g216
tp1219
I1
s(S'aioredis/commands/string.py'
S'tests/_testutil.py'
p1220
tp1221
I1
s(g58
g128
tp1222
I1
s(g125
g45
tp1223
I2
s(g131
g322
tp1224
I5
s(g159
g117
tp1225
I1
s(g76
g166
tp1226
I1
s(S'aioredis/commands/sorted_set.py'
S'aioredis/commands/transaction.py'
tp1227
I6
s(g394
g294
tp1228
I5
s(g127
g58
tp1229
I1
s(g42
g213
tp1230
I1
s(g133
g37
tp1231
I1
s(g123
g319
tp1232
I2
s(g125
g119
tp1233
I2
s(g183
g23
tp1234
I1
s(g23
g443
tp1235
I1
s(g207
g84
tp1236
I5
s(g209
g225
tp1237
I3
s(g227
g25
tp1238
I1
s(g265
g45
tp1239
I2
s(g283
g149
tp1240
I2
s(g23
g342
tp1241
I1
s(g242
g14
tp1242
I2
s(S'aioredis/pubsub.py'
S'aioredis/util.py'
tp1243
I5
s(S'aioredis/commands/sorted_set.py'
S'docs/conf.py'
p1244
tp1245
I1
s(g469
g935
tp1246
I1
s(g556
g304
tp1247
I5
s(g60
S'tests/hash_commands_test.py'
p1248
tp1249
I6
s(g168
g589
tp1250
I2
s(g65
g304
tp1251
I3
s(g86
g166
tp1252
I1
s(g259
g196
tp1253
I1
s(g76
g134
tp1254
I1
s(g267
g939
tp1255
I1
s(g114
g319
tp1256
I2
s(g218
g299
tp1257
I2
s(g183
g164
tp1258
I1
s(g43
g322
tp1259
I6
s(g584
g120
tp1260
I2
s(g133
g23
tp1261
I1
s(g130
g210
tp1262
I9
s(g94
g203
tp1263
I6
s(g55
g119
tp1264
I2
s(g36
g164
tp1265
I1
s(g259
g58
tp1266
I1
s(g114
g17
tp1267
I2
s(g451
g201
tp1268
I1
s(g88
g319
tp1269
I2
s(g54
g119
tp1270
I2
s(g45
g357
tp1271
I2
s(g139
g119
tp1272
I2
s(g245
g5
tp1273
I1
s(g94
g149
tp1274
I2
s(g265
g243
tp1275
I2
s(g218
g37
tp1276
I1
s(g483
g185
tp1277
I2
s(g100
g37
tp1278
I1
s(g207
g265
tp1279
I2
s(g467
g461
tp1280
I3
s(g195
g117
tp1281
I1
s(g299
g95
tp1282
I1
s(g71
S'tests/transaction_commands_test.py'
p1283
tp1284
I2
s(g175
g156
tp1285
I1
s(g99
g134
tp1286
I1
s(S'tests/pool_test.py'
g97
tp1287
I2
s(g198
g166
tp1288
I1
s(g88
g406
tp1289
I3
s(g176
g157
tp1290
I3
s(g95
g37
tp1291
I2
s(g265
g14
tp1292
I2
s(g176
g223
tp1293
I2
s(g63
S'examples/pool2.py'
tp1294
I2
s(g10
g243
tp1295
I4
s(g196
g58
tp1296
I1
s(g175
g447
tp1297
I2
s(g27
g45
tp1298
I2
s(g1248
g61
tp1299
I4
s(g891
S'tests/set_commands_test.py'
p1300
tp1301
I3
s(g220
g65
tp1302
I3
s(g196
g57
tp1303
I1
s(g561
g431
tp1304
I2
s(g207
g45
tp1305
I2
s(g185
g156
tp1306
I1
s(g175
g30
tp1307
I1
s(g327
g402
tp1308
I1
s(g362
g52
tp1309
I1
s(g86
g23
tp1310
I1
s(g159
g237
tp1311
I1
s(g42
g105
tp1312
I5
s(g42
g263
tp1313
I2
s(g324
g120
tp1314
I2
s(g271
g137
tp1315
I4
s(S'aioredis/_testutil.py'
p1316
g955
tp1317
I1
s(S'aioredis/commands/__init__.py'
g1283
tp1318
I1
s(g256
g164
tp1319
I1
s(g617
g425
tp1320
I2
s(g45
g178
tp1321
I2
s(g892
g1300
tp1322
I7
s(g416
g461
tp1323
I2
s(g556
g335
tp1324
I2
s(g175
g185
tp1325
I3
s(S'aioredis/commands/generic.py'
p1326
S'tests/generic_commands_test.py'
p1327
tp1328
I15
s(g1102
g19
tp1329
I5
s(g260
g117
tp1330
I1
s(g234
g117
tp1331
I1
s(S'aioredis/connection.py'
S'tests/transaction_commands_test.py'
tp1332
I11
s(g149
g227
tp1333
I1
s(g112
g203
tp1334
I2
s(g139
g107
tp1335
I2
s(g447
g157
tp1336
I4
s(g327
g116
tp1337
I1
s(g569
g779
tp1338
I2
s(g453
g406
tp1339
I3
s(g162
g27
tp1340
I2
s(g502
g213
tp1341
I1
s(S'aioredis/_testutil.py'
p1342
g604
tp1343
I4
s(g218
g77
tp1344
I1
s(g99
g255
tp1345
I1
s(g283
g134
tp1346
I1
s(g267
g478
tp1347
I1
s(g425
g223
tp1348
I2
s(g502
g225
tp1349
I1
s(g207
g28
tp1350
I2
s(g516
g58
tp1351
I1
s(g218
g86
tp1352
I2
s(g554
g91
tp1353
I5
s(S'aioredis/util.py'
S'tests/multi_exec_test.py'
tp1354
I1
s(g370
g943
tp1355
I2
s(g117
g939
tp1356
I1
s(g55
g357
tp1357
I2
s(S'aioredis/commands/set.py'
g1220
tp1358
I1
s(g939
g237
tp1359
I1
s(g10
g265
tp1360
I2
s(g757
S'aioredis/connection.py'
p1361
tp1362
I7
s(g198
g37
tp1363
I1
s(S'aioredis/pool.py'
S'tests/pool_test.py'
p1364
tp1365
I28
s(g141
g378
tp1366
I3
s(g267
g589
tp1367
I1
s(g4
g342
tp1368
I2
s(g324
g357
tp1369
I2
s(g1140
g783
tp1370
I2
s(g102
g243
tp1371
I2
s(g453
g123
tp1372
I3
s(g119
g178
tp1373
I2
s(g86
g37
tp1374
I1
s(g168
g329
tp1375
I1
s(g54
g584
tp1376
I2
s(g601
g195
tp1377
I1
s(g42
g294
tp1378
I3
s(g125
g324
tp1379
I2
s(S'aioredis/sentinel/__init__.py'
g389
tp1380
I1
s(g757
g73
tp1381
I6
s(g255
g36
tp1382
I1
s(g16
g406
tp1383
I2
s(g131
g225
tp1384
I1
s(g561
g338
tp1385
I1
s(g55
g103
tp1386
I2
s(g157
g52
tp1387
I3
s(g218
g203
tp1388
I1
s(g10
g103
tp1389
I2
s(g125
g357
tp1390
I2
s(g899
S'tests/connection_test.py'
tp1391
I1
s(g277
g371
tp1392
I1
s(g27
g178
tp1393
I2
s(g617
g176
tp1394
I2
s(g554
g123
tp1395
I10
s(g362
g223
tp1396
I2
s(g168
g57
tp1397
I1
s(g502
g359
tp1398
I2
s(g537
g546
tp1399
I1
s(g259
g327
tp1400
I1
s(g473
g142
tp1401
I7
s(S'aioredis/commands/string.py'
S'examples/connection.py'
tp1402
I1
s(g55
g178
tp1403
I2
s(g561
g49
tp1404
I1
s(S'aioredis/errors.py'
p1405
S'tests/pool_test.py'
p1406
tp1407
I3
s(g112
g227
tp1408
I1
s(g324
g11
tp1409
I2
s(g259
g195
tp1410
I1
s(g469
g597
tp1411
I1
s(g99
g149
tp1412
I1
s(g10
g84
tp1413
I5
s(g207
g27
tp1414
I2
s(g102
g84
tp1415
I3
s(S'examples/python_3.5_iscan.py'
p1416
g154
tp1417
I1
s(g107
g119
tp1418
I2
s(g218
g133
tp1419
I2
s(g107
g46
tp1420
I2
s(g259
g601
tp1421
I1
s(g178
g28
tp1422
I2
s(g30
g223
tp1423
I3
s(g13
g28
tp1424
I2
s(g185
g52
tp1425
I1
s(g259
g489
tp1426
I1
s(g259
g309
tp1427
I1
s(S'aioredis/commands/geo.py'
g999
tp1428
I1
s(g554
g406
tp1429
I3
s(g162
g584
tp1430
I2
s(g178
g14
tp1431
I2
s(g793
g302
tp1432
I3
s(g357
g243
tp1433
I2
s(g265
g242
tp1434
I2
s(g509
g8
tp1435
I2
s(g1140
g782
tp1436
I1
s(S'aioredis/commands/__init__.py'
S'tests/hyperloglog_commands_test.py'
tp1437
I2
s(g183
g76
tp1438
I1
s(g255
g166
tp1439
I1
s(g55
g11
tp1440
I2
s(g460
g302
tp1441
I3
s(g139
g178
tp1442
I2
s(g17
g319
tp1443
I2
s(g198
g77
tp1444
I1
s(g134
g443
tp1445
I1
s(g130
g294
tp1446
I5
s(g86
g134
tp1447
I1
s(g36
g25
tp1448
I1
s(S'aioredis/commands/hash.py'
g523
tp1449
I3
s(g967
g461
tp1450
I2
s(g139
g102
tp1451
I12
s(g127
g327
tp1452
I1
s(g840
S'aioredis/util.py'
p1453
tp1454
I7
s(g176
g52
tp1455
I1
s(g207
g14
tp1456
I2
s(S'aioredis/util.py'
S'tests/coerced_keys_dict_test.py'
p1457
tp1458
I2
s(g265
g178
tp1459
I2
s(g561
g289
tp1460
I1
s(g27
g120
tp1461
I2
s(g175
g31
tp1462
I1
s(g30
g176
tp1463
I2
s(g43
g263
tp1464
I4
s(g99
g164
tp1465
I1
s(g54
g11
tp1466
I2
s(g112
g164
tp1467
I1
s(g617
g31
tp1468
I1
s(g218
g283
tp1469
I2
s(g255
g183
tp1470
I2
s(g65
g406
tp1471
I3
s(g1105
S'tests/scripting_commands_test.py'
p1472
tp1473
I6
s(g532
g779
tp1474
I3
s(g327
g236
tp1475
I1
s(S'aioredis/commands/__init__.py'
p1476
g20
tp1477
I13
s(g610
g934
tp1478
I2
s(g556
g88
tp1479
I4
s(g210
g322
tp1480
I7
s(g156
g223
tp1481
I1
s(g362
g186
tp1482
I3
s(S'aioredis/__init__.py'
g874
tp1483
I4
s(g234
g58
tp1484
I1
s(g1476
g1102
tp1485
I13
s(g134
g166
tp1486
I1
s(g36
g342
tp1487
I1
s(g60
S'tests/set_commands_test.py'
p1488
tp1489
I4
s(g229
g255
tp1490
I2
s(g299
g36
tp1491
I1
s(g234
g237
tp1492
I1
s(g924
g411
tp1493
I5
s(g319
g335
tp1494
I2
s(g567
S'tests/server_commands_test.py'
tp1495
I1
s(g128
g237
tp1496
I1
s(g120
g103
tp1497
I2
s(S'aioredis/connection.py'
g79
tp1498
I2
s(g345
g237
tp1499
I1
s(g610
g469
tp1500
I1
s(g55
g120
tp1501
I2
s(g27
g265
tp1502
I2
s(g142
g624
tp1503
I5
s(g317
g154
tp1504
I1
s(g84
g324
tp1505
I6
s(g299
g23
tp1506
I1
s(g162
g242
tp1507
I3
s(g234
g525
tp1508
I1
s(g209
g212
tp1509
I7
s(g168
g939
tp1510
I1
s(S'tests/generic_commands_test.py'
g1155
tp1511
I5
s(g207
g584
tp1512
I2
s(g413
g353
tp1513
I12
s(g10
g45
tp1514
I2
s(g23
g95
tp1515
I1
s(g301
g461
tp1516
I2
s(g99
g37
tp1517
I1
s(g1342
g144
tp1518
I2
s(g51
g185
tp1519
I1
s(g107
g357
tp1520
I2
s(S'aioredis/commands/__init__.py'
p1521
g171
tp1522
I1
s(g656
S'tests/hyperloglog_commands_test.py'
tp1523
I2
s(g119
g14
tp1524
I2
s(S'aioredis/commands/generic.py'
p1525
g278
tp1526
I2
s(g86
g198
tp1527
I1
s(g483
g223
tp1528
I9
s(g1104
g1472
tp1529
I5
s(g176
g186
tp1530
I2
s(g256
g166
tp1531
I1
s(g1034
g570
tp1532
I2
s(g1342
g145
tp1533
I4
s(g502
g43
tp1534
I5
s(g229
g166
tp1535
I1
s(g234
g478
tp1536
I1
s(g632
g417
tp1537
I6
s(g449
g57
tp1538
I1
s(g227
g77
tp1539
I1
s(g821
g970
tp1540
I5
s(g102
g207
tp1541
I2
s(g30
g186
tp1542
I1
s(g384
g461
tp1543
I2
s(g475
g624
tp1544
I5
s(g57
g478
tp1545
I1
s(S'aioredis/commands/hash.py'
g1220
tp1546
I2
s(g584
g242
tp1547
I2
s(g57
g329
tp1548
I1
s(g70
g485
tp1549
I1
s(g589
g237
tp1550
I1
s(g402
g851
tp1551
I1
s(g88
g16
tp1552
I4
s(g220
g89
tp1553
I3
s(g556
g319
tp1554
I2
s(g580
g190
tp1555
I1
s(g58
g236
tp1556
I1
s(g178
g243
tp1557
I2
s(g46
g11
tp1558
I2
s(g329
g939
tp1559
I1
s(g299
g25
tp1560
I2
s(g561
g201
tp1561
I1
s(g58
g329
tp1562
I1
s(g207
g178
tp1563
I2
s(g46
g357
tp1564
I2
s(g195
g116
tp1565
I1
s(g231
S'tests/pool_test.py'
tp1566
I2
s(g388
g698
tp1567
I1
s(g1476
g799
tp1568
I3
s(g584
g357
tp1569
I2
s(S'examples/transaction.py'
S'tests/conftest.py'
tp1570
I2
s(g218
g4
tp1571
I4
s(g227
g37
tp1572
I1
s(g137
g272
tp1573
I4
s(g131
g263
tp1574
I2
s(g229
g37
tp1575
I4
s(g102
g119
tp1576
I2
s(g207
g46
tp1577
I2
s(g162
g119
tp1578
I2
s(g259
g939
tp1579
I1
s(g86
g100
tp1580
I1
s(g294
g213
tp1581
I1
s(g86
g216
tp1582
I1
s(g107
g242
tp1583
I4
s(g171
g937
tp1584
I1
s(g16
g335
tp1585
I2
s(g799
g20
tp1586
I2
s(g394
g359
tp1587
I3
s(g691
g302
tp1588
I3
s(g245
g37
tp1589
I2
s(g516
g57
tp1590
I1
s(g700
S'aioredis/commands/geo.py'
p1591
tp1592
I4
s(g102
g45
tp1593
I2
s(g175
g223
tp1594
I1
s(g572
g417
tp1595
I4
s(g259
g116
tp1596
I1
s(S'aioredis/pool.py'
g205
tp1597
I2
s(g128
g402
tp1598
I1
s(g66
g17
tp1599
I2
s(S'tests/connection_commands_test.py'
g97
tp1600
I2
s(g632
g461
tp1601
I3
s(g100
g227
tp1602
I1
s(g16
g123
tp1603
I3
s(g601
g117
tp1604
I1
s(g86
g25
tp1605
I1
s(g16
g91
tp1606
I2
s(g136
g272
tp1607
I4
s(g506
g1591
tp1608
I3
s(g209
g43
tp1609
I9
s(g502
g263
tp1610
I2
s(g22
g77
tp1611
I2
s(S'tests/sentinel_pubsub_commands_test.py'
p1612
S'tests/sentinel_test.py'
p1613
tp1614
I3
s(g66
g319
tp1615
I2
s(g84
g242
tp1616
I5
s(g22
g86
tp1617
I4
s(S'aioredis/commands/generic.py'
S'tests/string_commands_test.py'
tp1618
I5
s(g259
g851
tp1619
I1
s(g1092
g338
tp1620
I1
s(g329
g478
tp1621
I1
s(g1002
S'tests/scripting_commands_test.py'
p1622
tp1623
I1
s(g195
g236
tp1624
I1
s(g195
g489
tp1625
I1
s(S'aioredis/connection.py'
g297
tp1626
I4
s(S'aioredis/commands/generic.py'
g776
tp1627
I7
s(g451
g338
tp1628
I1
s(g112
g76
tp1629
I1
s(g245
g342
tp1630
I1
s(g570
g533
tp1631
I1
s(g245
g216
tp1632
I1
s(g399
g74
tp1633
I4
s(g120
g11
tp1634
I2
s(g569
g533
tp1635
I2
s(g183
g227
tp1636
I1
s(S'aioredis/errors.py'
p1637
g627
tp1638
I4
s(g234
g329
tp1639
I1
s(g125
g265
tp1640
I2
s(g416
g302
tp1641
I2
s(g793
g417
tp1642
I4
s(g57
g116
tp1643
I1
s(g107
g28
tp1644
I2
s(g329
g309
tp1645
I1
s(S'aioredis/util.py'
S'tests/generic_commands_test.py'
tp1646
I3
s(g133
g25
tp1647
I1
s(S'aioredis/commands/generic.py'
g1244
tp1648
I1
s(g51
g156
tp1649
I1
s(g13
g46
tp1650
I2
s(g175
g362
tp1651
I1
s(g255
g37
tp1652
I1
s(g447
g176
tp1653
I2
s(g175
g617
tp1654
I1
s(g91
g335
tp1655
I2
s(g234
g327
tp1656
I1
s(g27
g103
tp1657
I2
s(g556
g220
tp1658
I7
s(g406
g304
tp1659
I3
s(g89
g406
tp1660
I2
s(g130
g394
tp1661
I11
s(g58
g345
tp1662
I1
s(g259
g159
tp1663
I1
s(g133
g216
tp1664
I1
s(g294
g225
tp1665
I2
s(g617
g223
tp1666
I5
s(g447
g362
tp1667
I2
s(g207
g54
tp1668
I2
s(g54
g120
tp1669
I2
s(g394
g263
tp1670
I2
s(g234
g260
tp1671
I1
s(g210
g105
tp1672
I6
s(g294
g359
tp1673
I3
s(g10
g207
tp1674
I5
s(S'aioredis/util.py'
p1675
g8
tp1676
I1
s(g299
g203
tp1677
I2
s(g10
g125
tp1678
I2
s(g162
g11
tp1679
I2
s(g176
g31
tp1680
I2
s(g209
g359
tp1681
I4
s(g54
g103
tp1682
I2
s(g139
g27
tp1683
I2
s(g1342
g1023
tp1684
I3
s(g337
g290
tp1685
I1
s(g327
g58
tp1686
I1
s(g316
S'examples/pubsub2.py'
p1687
tp1688
I1
s(g299
g149
tp1689
I2
s(S'aioredis/__init__.py'
p1690
g71
tp1691
I1
s(S'aioredis/commands/sorted_set.py'
S'tests/multi_exec_test.py'
p1692
tp1693
I2
s(g102
g11
tp1694
I2
s(S'aioredis/connection.py'
g1457
tp1695
I2
s(g94
g76
tp1696
I1
s(g139
g125
tp1697
I2
s(g36
g443
tp1698
I1
s(g316
g1416
tp1699
I1
s(g556
g554
tp1700
I4
s(g54
g242
tp1701
I3
s(g1692
g809
tp1702
I3
s(g798
g19
tp1703
I10
s(g245
g36
tp1704
I1
s(g10
g178
tp1705
I2
s(g183
g203
tp1706
I5
s(g66
g335
tp1707
I2
s(g11
g103
tp1708
I2
s(g117
g851
tp1709
I1
s(g218
g95
tp1710
I1
s(g58
g237
tp1711
I1
s(g125
g46
tp1712
I2
s(g54
g46
tp1713
I2
s(g447
g52
tp1714
I1
s(g236
g402
tp1715
I1
s(g196
g329
tp1716
I1
s(g45
g103
tp1717
I2
s(g162
g45
tp1718
I2
s(g377
g142
tp1719
I5
s(g114
g65
tp1720
I2
s(g89
g304
tp1721
I2
s(g134
g5
tp1722
I1
s(g130
g225
tp1723
I2
s(g117
g402
tp1724
I1
s(g218
g183
tp1725
I2
s(g397
S'tests/transaction_commands_test.py'
tp1726
I2
s(g119
g28
tp1727
I2
s(g102
g107
tp1728
I3
s(g1141
g782
tp1729
I1
s(g267
g327
tp1730
I1
s(g502
g322
tp1731
I5
s(g45
g28
tp1732
I2
s(g604
g1023
tp1733
I5
s(g234
g402
tp1734
I1
s(S'aioredis/connection.py'
g1637
tp1735
I9
s(g1092
g201
tp1736
I1
s(g212
g359
tp1737
I4
s(g245
g198
tp1738
I1
s(g227
g164
tp1739
I1
s(g617
g362
tp1740
I2
s(g27
g55
tp1741
I2
s(g216
g37
tp1742
I2
s(g43
g294
tp1743
I4
s(g185
g31
tp1744
I1
s(g183
g216
tp1745
I1
s(S'aioredis/commands/__init__.py'
p1746
g626
tp1747
I8
s(g183
g166
tp1748
I1
s(g30
g425
tp1749
I2
s(g245
g76
tp1750
I1
s(g1746
g1637
tp1751
I5
s(S'aioredis/commands/pubsub.py'
p1752
g373
tp1753
I2
s(g30
g157
tp1754
I3
s(g127
g267
tp1755
I1
s(g483
g30
tp1756
I3
s(g227
g342
tp1757
I1
s(g229
g99
tp1758
I1
s(g99
g5
tp1759
I1
s(g61
g1488
tp1760
I3
s(g130
g42
tp1761
I7
s(g100
g25
tp1762
I1
s(g131
g394
tp1763
I6
s(g259
g589
tp1764
I1
s(g125
g120
tp1765
I2
s(g57
g851
tp1766
I1
s(g453
g319
tp1767
I2
s(g180
g1752
tp1768
I4
s(g596
g935
tp1769
I2
s(g102
g13
tp1770
I3
s(g220
g114
tp1771
I2
s(g255
g203
tp1772
I1
s(g1141
S'tests/pubsub_receiver_test.py'
p1773
tp1774
I1
s(g1025
g461
tp1775
I2
s(g176
g362
tp1776
I3
s(g139
g265
tp1777
I2
s(g134
g37
tp1778
I1
s(g162
g357
tp1779
I2
s(g127
g117
tp1780
I1
s(g234
g236
tp1781
I1
s(g1690
g485
tp1782
I1
s(g209
g42
tp1783
I6
s(g429
g201
tp1784
I1
s(g502
g212
tp1785
I5
s(g99
g283
tp1786
I1
s(g348
g329
tp1787
I1
s(g259
g128
tp1788
I1
s(g112
g37
tp1789
I1
s(g1316
S'tests/_testutil.py'
p1790
tp1791
I1
s(g905
g924
tp1792
I5
s(g447
g185
tp1793
I3
s(S'aioredis/__init__.py'
g544
tp1794
I2
s(g10
g107
tp1795
I4
s(g626
g1637
tp1796
I1
s(g799
g19
tp1797
I2
s(g234
g195
tp1798
I1
s(g58
g309
tp1799
I1
s(g162
g103
tp1800
I2
s(g327
g128
tp1801
I1
s(S'aioredis/_testutil.py'
g151
tp1802
I1
s(S'aioredis/util.py'
p1803
g523
tp1804
I2
s(g55
g45
tp1805
I2
s(g123
g91
tp1806
I4
s(S'examples/pool.py'
g819
tp1807
I2
s(g529
g137
tp1808
I4
s(g13
g178
tp1809
I2
s(S'aioredis/connection.py'
g899
tp1810
I3
s(g227
g240
tp1811
I1
s(g42
g131
tp1812
I6
s(g299
g198
tp1813
I1
s(g1090
g170
tp1814
I1
s(g134
g342
tp1815
I1
s(S'aioredis/commands/hyperloglog.py'
g1220
tp1816
I1
s(g51
g176
tp1817
I2
s(g55
g242
tp1818
I2
s(g245
g23
tp1819
I1
s(g198
g25
tp1820
I1
s(g485
S'tests/multi_exec_test.py'
p1821
tp1822
I3
s(g117
g309
tp1823
I1
s(g259
g329
tp1824
I1
s(g168
g478
tp1825
I1
s(g1129
g1692
tp1826
I2
s(g283
g36
tp1827
I1
s(g139
g324
tp1828
I3
s(g324
g584
tp1829
I2
s(g133
g166
tp1830
I1
s(g48
g289
tp1831
I1
s(S'aioredis/commands/__init__.py'
g544
tp1832
I2
s(g139
g103
tp1833
I2
s(g554
g89
tp1834
I5
s(g149
g37
tp1835
I1
s(g661
g1406
tp1836
I5
s(g242
g28
tp1837
I2
s(g42
g394
tp1838
I7
s(g227
g95
tp1839
I1
s(g556
g17
tp1840
I3
s(g324
g45
tp1841
I2
s(g1052
g469
tp1842
I1
s(g1034
g533
tp1843
I2
s(g283
g166
tp1844
I1
s(g102
g242
tp1845
I3
s(g283
g216
tp1846
I1
s(g425
g186
tp1847
I3
s(g133
g36
tp1848
I1
s(g220
g406
tp1849
I3
s(g123
g66
tp1850
I2
s(g100
g166
tp1851
I1
s(g1148
g937
tp1852
I2
s(g195
g159
tp1853
I1
s(g127
g259
tp1854
I1
s(g234
g57
tp1855
I1
s(g245
g203
tp1856
I3
s(g207
g357
tp1857
I2
s(g51
g362
tp1858
I2
s(g483
g176
tp1859
I2
s(g207
g243
tp1860
I4
s(g617
g157
tp1861
I3
s(g255
g227
tp1862
I1
s(S'aioredis/commands/transaction.py'
S'tests/pubsub_commands_test.py'
tp1863
I1
s(g48
g562
tp1864
I1
s(g65
g89
tp1865
I2
s(g473
g377
tp1866
I9
s(g934
g597
tp1867
I2
s(g329
g237
tp1868
I1
s(S'tests/connection_commands_test.py'
g1017
tp1869
I2
s(g700
g507
tp1870
I3
s(g617
g185
tp1871
I1
s(g661
S'aioredis/pool.py'
tp1872
I6
s(g23
g240
tp1873
I1
s(g175
g51
tp1874
I1
s(g808
g1692
tp1875
I6
s(g134
g203
tp1876
I1
s(g168
g117
tp1877
I1
s(g94
g342
tp1878
I2
s(g99
g240
tp1879
I1
s(g107
g14
tp1880
I2
s(g1591
g507
tp1881
I3
s(g86
g149
tp1882
I2
s(g27
g46
tp1883
I2
s(g99
g256
tp1884
I1
s(g207
g103
tp1885
I2
s(g245
g25
tp1886
I2
s(g502
g105
tp1887
I6
s(g242
g11
tp1888
I4
s(g1361
g74
tp1889
I6
s(g139
g14
tp1890
I2
s(g483
g52
tp1891
I1
s(g327
g57
tp1892
I1
s(g209
g394
tp1893
I11
s(g229
g25
tp1894
I4
s(g589
g327
tp1895
I1
s(g130
g502
tp1896
I8
s(g819
S'examples/transaction.py'
tp1897
I2
s(g45
g242
tp1898
I2
s(g277
g370
tp1899
I2
s(g102
g324
tp1900
I3
s(g128
g329
tp1901
I1
s(g580
g1675
tp1902
I1
s(g112
g95
tp1903
I1
s(g632
g302
tp1904
I4
s(S'tests/hash_commands_test.py'
g82
tp1905
I2
s(g923
g411
tp1906
I4
s(g58
g116
tp1907
I1
s(g31
g52
tp1908
I1
s(g139
g55
tp1909
I2
s(g299
g37
tp1910
I2
s(S'aioredis/util.py'
S'tests/_testutil.py'
tp1911
I2
s(g516
g128
tp1912
I1
s(g229
g216
tp1913
I1
s(g255
g95
tp1914
I1
s(g133
g149
tp1915
I2
s(g162
g54
tp1916
I3
s(g168
g601
tp1917
I1
s(g453
g114
tp1918
I2
s(g1476
g19
tp1919
I7
s(g593
g201
tp1920
I1
s(g145
g1023
tp1921
I4
s(g13
g11
tp1922
I2
s(g10
g357
tp1923
I2
s(g245
g227
tp1924
I1
s(g76
g342
tp1925
I1
s(g84
g13
tp1926
I3
s(g955
g1790
tp1927
I2
s(g54
g28
tp1928
I2
s(g212
g263
tp1929
I3
s(g212
g322
tp1930
I6
s(g149
g95
tp1931
I1
s(S'examples/py34/pool.py'
g819
tp1932
I2
s(g175
g52
tp1933
I1
s(g94
g216
tp1934
I2
s(g1405
g662
tp1935
I3
s(g357
g28
tp1936
I2
s(g255
g23
tp1937
I1
s(g27
g242
tp1938
I2
s(g195
g939
tp1939
I1
s(g449
g329
tp1940
I1
s(g125
g84
tp1941
I2
s(g267
g309
tp1942
I1
s(g394
g322
tp1943
I5
s(g589
g58
tp1944
I1
s(g783
g1773
tp1945
I1
s(g431
g562
tp1946
I1
s(g166
g37
tp1947
I2
s(g329
g117
tp1948
I1
s(g13
g243
tp1949
I2
s(g31
g157
tp1950
I2
s(g119
g46
tp1951
I2
s(g89
g335
tp1952
I2
s(g58
g525
tp1953
I1
s(g267
g329
tp1954
I1
s(g267
g345
tp1955
I1
s(g102
g14
tp1956
I2
s(g431
g290
tp1957
I1
s(S'tests/list_commands_test.py'
S'tests/scripting_commands_test.py'
tp1958
I7
s(g4
g216
tp1959
I3
s(g149
g240
tp1960
I4
s(g556
g114
tp1961
I2
s(g209
g502
tp1962
I7
s(g139
g84
tp1963
I3
s(g617
g52
tp1964
I1
s(g255
g342
tp1965
I1
s(g782
g1773
tp1966
I1
s(g489
g117
tp1967
I1
s(g66
g304
tp1968
I2
s(g84
g107
tp1969
I4
s(g464
g612
tp1970
I9
s(g283
g227
tp1971
I1
s(g575
S'tests/generic_commands_test.py'
tp1972
I6
s(g195
g128
tp1973
I1
s(g329
g402
tp1974
I1
s(g4
g36
tp1975
I1
s(g1687
g154
tp1976
I2
s(g125
g178
tp1977
I2
s(S'tests/_testutil.py'
S'tests/connection_test.py'
tp1978
I6
s(g234
g601
tp1979
I1
s(g22
g198
tp1980
I1
s(g139
g46
tp1981
I2
s(g259
g449
tp1982
I1
s(g434
g793
tp1983
I6
s(g259
g402
tp1984
I1
s(g378
g624
tp1985
I6
s(g324
g243
tp1986
I2
s(g299
g216
tp1987
I1
s(g447
g31
tp1988
I1
s(g489
g329
tp1989
I1
s(g30
g362
tp1990
I2
s(g1057
S'aioredis/commands/list.py'
tp1991
I6
s(g234
g196
tp1992
I1
s(g322
g359
tp1993
I4
s(g209
g322
tp1994
I6
s(g840
S'aioredis/connection.py'
tp1995
I23
s(g255
g283
tp1996
I2
s(S'tests/coerced_keys_dict_test.py'
S'tests/connection_test.py'
tp1997
I2
s(g267
g117
tp1998
I1
s(g58
g939
tp1999
I1
s(g207
g119
tp2000
I2
s(g49
g658
tp2001
I1
s(g483
g31
tp2002
I1
s(g159
g329
tp2003
I1
s(g42
g212
tp2004
I5
s(g210
g225
tp2005
I2
s(g447
g186
tp2006
I2
s(g327
g939
tp2007
I1
s(g102
g584
tp2008
I2
s(g117
g236
tp2009
I1
s(g170
S'aioredis/util.py'
tp2010
I2
s(g589
g329
tp2011
I1
s(S'aioredis/commands/generic.py'
g397
tp2012
I1
s(g265
g357
tp2013
I2
s(g763
g533
tp2014
I2
s(g267
g489
tp2015
I1
s(g218
g227
tp2016
I1
s(g697
g389
tp2017
I1
s(g256
g37
tp2018
I1
s(g57
g309
tp2019
I1
s(g218
g164
tp2020
I1
s(g656
S'tests/generic_commands_test.py'
tp2021
I7
s(g483
g186
tp2022
I2
s(g357
g103
tp2023
I2
s(g185
g176
tp2024
I1
s(g175
g186
tp2025
I4
s(g377
g624
tp2026
I10
s(g556
g66
tp2027
I2
s(g123
g406
tp2028
I3
s(g556
g91
tp2029
I5
s(g149
g166
tp2030
I1
s(g220
g91
tp2031
I4
s(g259
g345
tp2032
I1
s(g102
g54
tp2033
I3
s(g119
g103
tp2034
I2
s(g86
g133
tp2035
I2
s(g516
g478
tp2036
I1
s(g23
g25
tp2037
I1
s(g589
g57
tp2038
I1
s(g149
g342
tp2039
I2
s(g473
g141
tp2040
I3
s(g4
g134
tp2041
I1
s(g327
g329
tp2042
I1
s(g584
g55
tp2043
I2
s(g475
g141
tp2044
I4
s(g698
g389
tp2045
I1
s(g183
g36
tp2046
I1
s(g227
g443
tp2047
I1
s(g43
g210
tp2048
I5
s(S'tests/multi_exec_test.py'
S'tests/string_commands_test.py'
tp2049
I2
s(g556
g89
tp2050
I2
s(g102
g55
tp2051
I2
s(g94
g166
tp2052
I2
s(g127
g168
tp2053
I1
s(g46
g120
tp2054
I2
s(g139
g54
tp2055
I3
s(g180
g373
tp2056
I2
s(g86
g95
tp2057
I1
s(g119
g357
tp2058
I2
s(g76
g227
tp2059
I1
s(g195
g57
tp2060
I1
s(g185
g425
tp2061
I1
s(g133
g227
tp2062
I1
s(g218
g112
tp2063
I2
s(g10
g28
tp2064
I2
s(g162
g207
tp2065
I2
s(g57
g236
tp2066
I1
s(g316
g380
tp2067
I1
s(S'aioredis/commands/__init__.py'
g296
tp2068
I3
s(g107
g120
tp2069
I2
s(g1062
S'aioredis/connection.py'
tp2070
I27
s(g46
g28
tp2071
I2
s(g502
g42
tp2072
I6
s(g84
g265
tp2073
I2
s(g242
g46
tp2074
I2
s(g156
g52
tp2075
I1
s(g1052
g596
tp2076
I1
s(g162
g10
tp2077
I2
s(g10
g584
tp2078
I2
s(g1140
g1773
tp2079
I1
s(g841
g1453
tp2080
I1
s(g43
g212
tp2081
I5
s(g1521
g937
tp2082
I1
s(g27
g357
tp2083
I2
s(g195
g449
tp2084
I1
s(g584
g13
tp2085
I2
s(g1034
g779
tp2086
I2
s(g1525
g370
tp2087
I1
s(g105
g359
tp2088
I2
s(g329
g851
tp2089
I1
s(g1803
S'tests/set_commands_test.py'
tp2090
I2
s(g198
g216
tp2091
I1
s(g45
g13
tp2092
I2
s(g71
g1821
tp2093
I1
s(g176
g425
tp2094
I3
s(g256
g25
tp2095
I1
s(g4
g95
tp2096
I2
s(g86
g77
tp2097
I1
s(g656
S'tests/set_commands_test.py'
tp2098
I3
s(g162
g84
tp2099
I3
s(g36
g240
tp2100
I1
s(g54
g107
tp2101
I2
s(g10
g119
tp2102
I2
s(g22
g134
tp2103
I1
s.