(dp1
S'nilearn/glass_brain_scripts/plot_align_svg.py'
p2
S'0'
sS'doc/sphinxext/sphinxgallery/__init__.py'
p3
S'1'
sS'nilearn/decoding/tests/test_sklearn_basic_backports.py'
p4
S'2'
sS'nisl/decomposition/__init__.py'
p5
S'3'
sS'nilearn/decoding/sparse_models/tv.py'
p6
S'2'
sS'nilearn/datasets/__init__.py'
p7
S'4'
sS'examples/decoding/plot_haxby_stimuli.py'
p8
S'5'
sS'nilearn/tests/test_ndimage.py'
p9
S'3'
sS'examples/manipulating_visualizing/plot_nifti_simple.py'
p10
S'5'
sS'nisl/_utils/class_helper.py'
p11
S'3'
sS'nisl/tests/test_region.py'
p12
S'3'
sS'nilearn/input_data/tests/test_nifti_spheres_masker.py'
p13
S'4'
sS'nilearn/plotting/glass_brain_scripts/__init__.py'
p14
S'0'
sS'nisl/decoding/tests/__init__.py'
p15
S'3'
sS'nisl/tests/test_ndimage.py'
p16
S'3'
sS'nilearn/decoding/sparse_models/operators.py'
p17
S'2'
sS'starplus_decoding_example.py'
p18
S'6'
sS'nilearn/input_data/nifti_masker.py'
p19
S'4'
sS'nilearn/plotting/test/test_slicers.py'
p20
S'0'
sS'nisl/io/tests/test_nifti_masker.py'
p21
S'3'
sS'nilearn/mass_univariate/permuted_least_squares.py'
p22
S'4'
sS'nilearn/io/base_masker.py'
p23
S'3'
sS'nilearn/_utils/fixes/sklearn_validation.py'
p24
S'4'
sS'examples/plot_haxby_full_analysis.py'
p25
S'7'
sS'nisl/io/tests/test_nifti_multi_masker.py'
p26
S'3'
sS'nilearn/glass_brain_scripts/align_svg.py'
p27
S'0'
sS'examples/connectivity/plot_inverse_covariance_connectome.py'
p28
S'5'
sS'nilearn/connectivity/embedding.py'
p29
S'9'
sS'nisl/io/nifti_loader.py'
p30
S'3'
sS'nilearn/externals/skimage/random_walker_segmentation.py'
p31
S'8'
sS'nisl/tests/test_searchlight.py'
p32
S'3'
sS'examples/03_connectivity/plot_extract_regions_canica_maps.py'
p33
S'5'
sS'nisl/signal.py'
p34
S'3'
sS'simulated_example.py'
p35
S'6'
sS'examples/manipulating_visualizing/plot_demo_glass_brain_extensive.py'
p36
S'5'
sS'nilearn/decomposition/canica.py'
p37
S'4'
sS'doc/sphinxext/sphinx_gallery/downloads.py'
p38
S'1'
sS'doc/sphinxext/numpy_ext_old/docscrape_sphinx.py'
p39
S'6'
sS'nilearn/decoding/sparse_models/tests/test_cv.py'
p40
S'2'
sS'nilearn/region_decomposition/region_extractor.py'
p41
S'8'
sS'plot_localizer_simple_analysis.py'
p42
S'7'
sS'examples/manipulating_visualizing/plot_demo_glass_brain.py'
p43
S'5'
sS'nilearn/datasets/tests/data/__init__.py'
p44
S'5'
sS'doc/sphinxext/numpy_ext_old/docscrape.py'
p45
S'6'
sS'doc/sphinxext/sphinxgallery/docs_resolv.py'
p46
S'1'
sS'nilearn/externals/__init__.py'
p47
S'8'
sS'nilearn/_utils/compat.py'
p48
S'4'
sS'plot_haxby_mass_univariate.py'
p49
S'7'
sS'tests/test_hierarchical_clustering.py'
p50
S'6'
sS'examples/connectivity/plot_compare_resting_state_decomposition.py'
p51
S'5'
sS'nilearn/surface.py'
p52
S'0'
sS'examples/03_connectivity/plot_simulated_connectome.py'
p53
S'5'
sS'nisl/tests/test_class_inspect.py'
p54
S'3'
sS'nilearn/image/__init__.py'
p55
S'4'
sS'nilearn/decoding/tests/test_tv.py'
p56
S'2'
sS'nisl/_utils/tests/test_ndimage.py'
p57
S'3'
sS'examples/plotting/plot_visualization.py'
p58
S'5'
sS'examples/plotting/plot_demo_more_plotting.py'
p59
S'5'
sS'examples/plot_localizer_simple_analysis.py'
p60
S'5'
sS'doc/sphinxext/numpydoc/numpydoc.py'
p61
S'6'
sS'plot_regions_covariance_advanced.py'
p62
S'3'
sS'nilearn/decoding/tests/test_objective_functions.py'
p63
S'2'
sS'nilearn/input_data/tests/test_nifti_region.py'
p64
S'4'
sS'nilearn/decomposition/tests/test_base.py'
p65
S'4'
sS'examples/01_plotting/plot_demo_more_plotting.py'
p66
S'5'
sS'nilearn/_utils/tests/test_validation.py'
p67
S'2'
sS'examples/connectivity/plot_signal_extraction.py'
p68
S'5'
sS'nilearn/datasets/func.py'
p69
S'4'
sS'nilearn/sparse_models/image.py'
p70
S'2'
sS'nisl/decomposition/old_canica.py'
p71
S'3'
sS'examples/03_connectivity/plot_multi_subject_connectome.py'
p72
S'5'
sS'examples/advanced/plot_ica_resting_state.py'
p73
S'5'
sS'nisl/hierarchical_clustering.py'
p74
S'6'
sS'nisl/tests/test_niimg_conversions.py'
p75
S'3'
sS'nisl/decoding_example.py'
p76
S'6'
sS'nilearn/connectivity/matrix_operations.py'
p77
S'9'
sS'doc/sphinxext/numpydoc/compiler_unparse.py'
p78
S'6'
sS'examples/02_decoding/plot_haxby_multiclass.py'
p79
S'5'
sS'examples/plotting/plot_prob_atlas.py'
p80
S'5'
sS'nilearn/decoding/fista.py'
p81
S'2'
sS'examples/plot_haxby_stimuli.py'
p82
S'7'
sS'examples/decoding/plot_haxby_different_estimators.py'
p83
S'5'
sS'nilearn/tests/test_masking.py'
p84
S'4'
sS'plot_haxby_searchlight.py'
p85
S'3'
sS'nilearn/connectome/tests/test_group_sparse_cov.py'
p86
S'4'
sS'nilearn/decoding/sparse_models/image.py'
p87
S'2'
sS'plot_oasis_vbm.py'
p88
S'7'
sS'nisl/tests/test_roi.py'
p89
S'3'
sS'nisl/searchlight.py'
p90
S'3'
sS'examples/manipulating_images/plot_extract_rois_smith_atlas.py'
p91
S'5'
sS'nilearn/masking.py'
p92
S'4'
sS'examples/decoding/plot_haxby_multiclass.py'
p93
S'5'
sS'examples/connectivity/plot_adhd_tangent.py'
p94
S'9'
sS'examples/connectivity/plot_extract_regions_canica_maps.py'
p95
S'8'
sS'nilearn/tests/test_niimg.py'
p96
S'4'
sS'nilearn/_utils/exceptions.py'
p97
S'4'
sS'nilearn/datasets/tests/test_atlas.py'
p98
S'4'
sS'nilearn/description/__init__.py'
p99
S'4'
sS'examples/04_manipulating_images/plot_extract_regions_labels_image.py'
p100
S'4'
sS'plot_kamitani_reconstruction.py'
p101
S'7'
sS'nilearn/tests/test_resampling.py'
p102
S'3'
sS'nilearn/plotting/tests/test_slicers.py'
p103
S'0'
sS'nilearn/decoding/tests/simulate_graph_net_data.py'
p104
S'2'
sS'nilearn/plotting/tests/test_matrix_plotting.py'
p105
S'5'
sS'examples/03_connectivity/plot_sphere_based_connectome.py'
p106
S'5'
sS'examples/connectivity/plot_extract_regions_dictlearn_maps.py'
p107
S'5'
sS'nilearn/input_data/multi_nifti_masker.py'
p108
S'4'
sS'examples/manipulating_visualizing/plot_demo_plotting.py'
p109
S'5'
sS'nilearn/_utils/segmentation.py'
p110
S'8'
sS'nilearn/regions/signal_extraction.py'
p111
S'4'
sS'nilearn/plotting/glass_brain_files/plot_glass_brain.py'
p112
S'0'
sS'nilearn/input_data/base_masker.py'
p113
S'4'
sS'nilearn/image/tests/data/__init__.py'
p114
S'5'
sS'examples/manipulating_visualizing/plot_mask_computation.py'
p115
S'5'
sS'nilearn/decoding/tests/test_searchlight.py'
p116
S'4'
sS'nilearn/decoding/searchlight.py'
p117
S'4'
sS'nilearn/_utils/ndimage.py'
p118
S'3'
sS'nilearn/decoding/sparse_models/tests/test_objective_functions.py'
p119
S'2'
sS'examples/plot_decoding_tutorial.py'
p120
S'5'
sS'nilearn/sparse_models/smooth_lasso.py'
p121
S'2'
sS'nilearn/connectivity/tests/test_connectivity_matrices.py'
p122
S'9'
sS'nilearn/decoding/tests/test_space_net.py'
p123
S'2'
sS'doc/sphinxext/gen_rst.py'
p124
S'7'
sS'plot_ica_resting_state.py'
p125
S'3'
sS'nilearn/decomposition/tests/test_multi_pca.py'
p126
S'3'
sS'nilearn/connectivity/__init__.py'
p127
S'9'
sS'nilearn/connectome/tests/test_connectivity_matrices.py'
p128
S'4'
sS'nilearn/surface/tests/data/__init__.py'
p129
S'0'
sS'nilearn/io/tests/test_nifti_region.py'
p130
S'3'
sS'nilearn/decoding/tests/test_smooth_lasso.py'
p131
S'2'
sS'nisl/resampling.py'
p132
S'3'
sS'plot_haxby_space_net.py'
p133
S'2'
sS'_utils/fixes/__init__.py'
p134
S'1'
sS'nisl/_utils/cache_mixin.py'
p135
S'3'
sS'nilearn/tests/test_region.py'
p136
S'4'
sS'nilearn/datasets/neurovault.py'
p137
S'10'
p138
sS'examples/04_manipulating_images/plot_roi_extraction.py'
p139
S'5'
sS'haxby_full_analysis.py'
p140
S'7'
sS'nisl/signals.py'
p141
S'3'
sS'nisl/tests/test_datasets.py'
p142
S'3'
sS'plot_msdl_covariance_advanced.py'
p143
S'3'
sS'examples/01_plotting/plot_demo_glass_brain.py'
p144
S'5'
sS'examples/02_decoding/plot_haxby_grid_search.py'
p145
S'5'
sS'benchmark_hierarchical_clustering_from_scikits_learn.py'
p146
S'6'
sS'nilearn/sparse_models/tests/test_sklearn_basic_backports.py'
p147
S'2'
sS'examples/plot_python_101.py'
p148
S'7'
sS'nilearn/sparse_models/common.py'
p149
S'2'
sS'nilearn/_utils/validation.py'
p150
S'2'
sS'starplus_supervised_clustering.py'
p151
S'6'
sS'examples/plot_affine_transformation.py'
p152
S'7'
sS'nyu_rest_decomposition.py'
p153
S'3'
sS'examples/manipulating_visualizing/plot_demo_plotting_glass_brain.py'
p154
S'5'
sS'nilearn/_utils/fixes/scikit_learn_validation.py'
p155
S'11'
p156
sS'examples/01_plotting/plot_atlas.py'
p157
S'5'
sS'plot_haxby_multiclass.py'
p158
S'7'
sS'nilearn/plotting/glass_brain_files/__init__.py'
p159
S'3'
sS'nilearn/decoding/sparse_models/tests/test_smooth_lasso.py'
p160
S'2'
sS'examples/03_connectivity/plot_probabilistic_atlas_extraction.py'
p161
S'5'
sS'nilearn/sparse_models/prox_tv_l1.py'
p162
S'2'
sS'nilearn/_utils/cache_mixin.py'
p163
S'4'
sS'nilearn/image/tests/test_image.py'
p164
S'4'
sS'nilearn/sparse_models/_cv_tricks.py'
p165
S'2'
sS'nilearn/sparse_models/cv.py'
p166
S'2'
sS'nilearn/connectome/tests/test_group_sparse_covariance.py'
p167
S'4'
sS'examples/connectivity/plot_power_connectome.py'
p168
S'5'
sS'nilearn/surface/tests/__init__.py'
p169
S'0'
sS'nilearn/plotting/test/test_coord_tools.py'
p170
S'0'
sS'conf.py'
p171
S'6'
sS'nisl/io/tests/test_nifti_region.py'
p172
S'3'
sS'nilearn/sparse_models/fista.py'
p173
S'2'
sS'doc/sphinxext/sphinx_gallery/gen_gallery.py'
p174
S'1'
sS'nilearn/_utils/fixes/scikit_learn_utils.py'
p175
g156
sS'nisl/tests/test_hierarchical_clustering.py'
p176
S'6'
sS'nilearn/plotting/__init__.py'
p177
S'0'
sS'examples/04_manipulating_images/plot_mask_computation.py'
p178
S'5'
sS'nyu_rest.py'
p179
S'3'
sS'plot_haxby_full_analysis_log_l1.py'
p180
S'7'
sS'doc/sphinxext/numpydoc/linkcode.py'
p181
S'6'
sS'nilearn/_utils/fixes/sklearn_f_regression.py'
p182
S'1'
sS'nilearn/mass_univariate/tests/tests_permuted_least_squares.py'
p183
S'12'
p184
sS'nilearn/plotting/cm.py'
p185
S'4'
sS'doc/conf.py'
p186
S'5'
sS'nisl/tests/test_mri_transformer.py'
p187
S'3'
sS'nyu_rest_clustering.py'
p188
S'3'
sS'examples/01_plotting/plot_3d_map_to_surface_projection.py'
p189
S'0'
sS'hierarchical_clustering.py'
p190
S'6'
sS'nilearn/sparse_models/tests/test_sklearn_compatibility.py'
p191
S'2'
sS'examples/decoding/plot_mixed_gambles.py'
p192
S'5'
sS'examples/02_decoding/plot_haxby_space_net.py'
p193
S'5'
sS'examples/03_connectivity/plot_extract_regions_dictlearning_maps.py'
p194
S'5'
sS'nilearn/sparse_models/__init__.py'
p195
S'2'
sS'examples/plotting/plot_atlas.py'
p196
S'5'
sS'examples/plot_ica_resting_state.py'
p197
S'7'
sS'examples/advanced/plot_localizer_mass_univariate_methods.py'
p198
S'5'
sS'nilearn/externals/skimage/tests/test_skimage_peak.py'
p199
S'8'
sS'examples/manipulating_visualizing/plot_probabilistic_atlas.py'
p200
S'5'
sS'starplus_svm.py'
p201
S'6'
sS'plot_haxby_smoothlasso.py'
p202
S'2'
sS'examples/manipulating_images/plot_extract_rois_statistical_maps.py'
p203
S'5'
sS'examples/connectivity/plot_3d_map_to_extract_regions.py'
p204
S'8'
sS'nilearn/input_data/tests/test_base_masker.py'
p205
S'4'
sS'examples/04_manipulating_images/plot_extract_rois_statistical_maps.py'
p206
S'5'
sS'doc/sphinxext/sphinxgallery/gen_gallery.py'
p207
S'1'
sS'nilearn/tests/test_param_validation.py'
p208
S'4'
sS'doc/sphinxext/numpydoc/traitsdoc.py'
p209
S'6'
sS'nilearn/sparse_models/tests/test_estimators.py'
p210
S'2'
sS'examples/connectivity/plot_4dmaps_to_extract_regions.py'
p211
S'8'
sS'nilearn/plotting/tests/test_displays.py'
p212
S'4'
sS'doc/sphinxext/numpy_ext/__init__.py'
p213
S'6'
sS'nisl/__init__.py'
p214
S'3'
sS'nilearn/sparse_models/tests/test_cv.py'
p215
S'2'
sS'nilearn/datasets/struct.py'
p216
S'4'
sS'nilearn/input_data/tests/test_nifti_maps_masker.py'
p217
S'4'
sS'nisl/starplus_supervised_clustering.py'
p218
S'6'
sS'examples/manipulating_visualizing/plot_dim_plotting.py'
p219
S'5'
sS'examples/plot_haxby_multiclass.py'
p220
S'7'
sS'nilearn/group_analysis/permuted_least_squares_aux.py'
p221
g184
sS'examples/plot_miyawaki_reconstruction.py'
p222
S'7'
sS'nilearn/decoding/tests/simulate_smooth_lasso_data.py'
p223
S'2'
sS'nisl/images.py'
p224
S'3'
sS'examples/connectivity/plot_connectivity_measures.py'
p225
S'5'
sS'examples/05_advanced/plot_haxby_mass_univariate.py'
p226
S'5'
sS'pymvpa-exampledata/decoding_example.py'
p227
S'6'
sS'nisl/utils.py'
p228
S'3'
sS'nilearn/mass_univariate/tests/__init__.py'
p229
S'3'
sS'examples/manipulating_images_and_visualization/plot_affine_transformation.py'
p230
S'7'
sS'plot_mask_computation.py'
p231
S'7'
sS'examples/decoding/plot_haxby_grid_search.py'
p232
S'5'
sS'nilearn/input_data/nifti_region.py'
p233
S'4'
sS'examples/05_advanced/plot_localizer_mass_univariate_methods.py'
p234
S'5'
sS'supervised_clustering_vs_anova.py'
p235
S'6'
sS'examples/plot_haxby_different_estimators.py'
p236
S'7'
sS'examples/decoding/plot_miyawaki_reconstruction.py'
p237
S'5'
sS'nilearn/datasets/tests/test_struct.py'
p238
S'4'
sS'examples/03_connectivity/plot_compare_resting_state_decomposition.py'
p239
S'5'
sS'nilearn/region_extraction/regionextractor.py'
p240
S'8'
sS'nilearn/decomposition/multi_pca.py'
p241
S'4'
sS'nilearn/decoding/tests/test_same_api.py'
p242
S'2'
sS'nilearn/decoding/operators.py'
p243
S'2'
sS'nilearn/decoding/sparse_models/common.py'
p244
S'2'
sS'examples/05_advanced/plot_localizer_simple_analysis.py'
p245
S'4'
sS'nilearn/image/image.py'
p246
S'4'
sS'examples/connectivity/plot_simulated_connectome.py'
p247
S'5'
sS'examples/plot_canica_resting_state.py'
p248
S'7'
sS'nilearn/decoding/sparse_models/tests/test_sklearn_compatibility.py'
p249
S'2'
sS'_utils/fixes/sklearn_f_regression.py'
p250
S'1'
sS'doc/sphinxext/sphinxgallery/gen_rst.py'
p251
S'1'
sS'nilearn/_utils/fixes/sklearn_center_data.py'
p252
S'2'
sS'doc/sphinxext/numpydoc/docscrape.py'
p253
S'6'
sS'nisl/decomposition/multi_pca.py'
p254
S'3'
sS'examples/03_connectivity/plot_rest_clustering.py'
p255
S'5'
sS'examples/plotting/plot_demo_glass_brain.py'
p256
S'5'
sS'plot_haxby_full_analysis.py'
p257
S'7'
sS'plot_visualization.py'
p258
S'3'
sS'nilearn/tests/test_testing.py'
p259
S'4'
sS'nilearn/_utils/niimg_conversions.py'
p260
S'4'
sS'nilearn/sparse_models/tests/__init__.py'
p261
S'2'
sS'examples/01_plotting/plot_demo_plotting.py'
p262
S'5'
sS'nisl/setup.py'
p263
S'6'
sS'nilearn/group_sparse_covariance.py'
p264
S'4'
sS'nilearn/decomposition/tests/test_dict_learning.py'
p265
S'4'
sS'tests/test_supervised_clustering.py'
p266
S'6'
sS'examples/02_decoding/plot_haxby_anova_svm.py'
p267
S'5'
sS'nilearn/decoding/sparse_models/smooth_lasso.py'
p268
S'2'
sS'examples/manipulating_images/plot_affine_transformation.py'
p269
S'5'
sS'examples/connectivity/compare_resting_state_decomposition.py'
p270
S'4'
sS'nilearn/_utils/fixes/scikit_learn_scorer.py'
p271
g156
sS'examples/manipulating_images/plot_smooth_mean_image.py'
p272
S'5'
sS'plot_haxby_masks.py'
p273
S'7'
sS'nilearn/io/tests/test_multi_nifti_masker.py'
p274
S'3'
sS'nilearn/mass_univariate/tests/test_permuted_least_squares.py'
p275
S'4'
sS'nilearn/mass_univariate/__init__.py'
p276
S'4'
sS'nisl/_utils/exceptions.py'
p277
S'3'
sS'nilearn/plotting/tests/__init__.py'
p278
S'0'
sS'nilearn/region_decomposition/tests/test_region_extractor.py'
p279
S'8'
sS'examples/connectivity/plot_rest_clustering.py'
p280
S'5'
sS'nilearn/io/nifti_masker.py'
p281
S'3'
sS'examples/plot_nifti_simple.py'
p282
S'5'
sS'nilearn/sparse_models/estimators.py'
p283
S'2'
sS'nisl/io/tests/__init__.py'
p284
S'3'
sS'nilearn/input_data/tests/test_multi_nifti_masker.py'
p285
S'4'
sS'plot_msdl_covariance.py'
p286
S'3'
sS'nilearn/decoding/tests/test_estimators.py'
p287
S'2'
sS'examples/decoding/plot_oasis_vbm.py'
p288
S'5'
sS'nilearn/_utils/fixes/sklearn_model_selection.py'
p289
S'4'
sS'nilearn/decoding/sparse_models/tests/test_fista.py'
p290
S'2'
sS'nilearn/io/tests/__init__.py'
p291
S'3'
sS'nilearn/decomposition/tests/test_canica.py'
p292
S'4'
sS'plot_roi_extraction.py'
p293
S'7'
sS'examples/plot_haxby_simple.py'
p294
S'5'
sS'nilearn/plotting/tests/test_find_cuts.py'
p295
S'4'
sS'plot_poldrack_space_net.py'
p296
S'2'
sS'nilearn/input_data/nifti_spheres_masker.py'
p297
S'4'
sS'nilearn/plotting/glass_brain/scripts/plot_glass_brain.py'
p298
S'0'
sS'nilearn/tests/test_class_inspect.py'
p299
S'3'
sS'nilearn/io/tests/test_nifti_masker.py'
p300
S'3'
sS'nisl/masking.py'
p301
S'3'
sS'nisl/decomposition/tests/test_multi_pca.py'
p302
S'3'
sS'nilearn/group_analysis/tests/tests_permuted_least_squares.py'
p303
g184
sS'examples/02_decoding/plot_haxby_searchlight.py'
p304
S'5'
sS'examples/plot_3d_and_4d_niimg.py'
p305
S'4'
sS'examples/plot_haxby_anova_svm.py'
p306
S'7'
sS'examples/plot_haxby_masks.py'
p307
S'7'
sS'nisl/tests/__init__.py'
p308
S'3'
sS'plot_haxby_mask.py'
p309
S'3'
sS'nilearn/_utils/log_mixin.py'
p310
S'4'
sS'nilearn/decoding/sparse_models/tests/test_sklearn_basic_backports.py'
p311
S'2'
sS'nilearn/plotting/glass_brain_scripts/plot_glass_brain.py'
p312
S'0'
sS'nilearn/connectome/__init__.py'
p313
S'4'
sS'nisl/tests/test_signals.py'
p314
S'3'
sS'plot_old_canica_resting_state.py'
p315
S'3'
sS'examples/03_connectivity/plot_group_level_connectivity.py'
p316
S'5'
sS'examples/03_connectivity/plot_canica_resting_state.py'
p317
S'5'
sS'examples/04_manipulating_images/plot_multiply_image.py'
p318
S'4'
sS'plot_haxby_stimuli.py'
p319
S'7'
sS'nilearn/plotting/slicers.py'
p320
S'0'
sS'nilearn/io/multi_nifti_masker.py'
p321
S'3'
sS'nilearn/_utils/fast_maths.py'
p322
S'0'
sS'nilearn/connectivity/tests/test_matrix_operations.py'
p323
S'9'
sS'examples/manipulating_images_and_visualization/plot_localizer_mass_univariate_methods.py'
p324
S'7'
sS'examples/02_decoding/plot_haxby_different_estimators.py'
p325
S'5'
sS'nilearn/_utils/fixes/sklearn_f_regression_nosparse.py'
p326
S'1'
sS'examples/01_plotting/plot_visualization.py'
p327
S'5'
sS'nisl/_utils/numpy_conversions.py'
p328
S'3'
sS'examples/connectivity/plot_connect_comparison.py'
p329
S'7'
sS'nisl/region.py'
p330
S'3'
sS'examples/manipulating_images/plot_nifti_simple.py'
p331
S'5'
sS'examples/02_decoding/plot_simulated_data.py'
p332
S'5'
sS'nilearn/tests/test_signal.py'
p333
S'4'
sS'nilearn/decoding/sparse_models/tests/simulate_smooth_lasso_data.py'
p334
S'2'
sS'nilearn/datasets/data/__init__.py'
p335
S'5'
sS'nilearn/tests/test_segmentation.py'
p336
S'8'
sS'nisl/tests/test_decoding.py'
p337
S'3'
sS'nilearn/decoding/sparse_models/tests/test_same_api.py'
p338
S'2'
sS'searchlight/images.py'
p339
S'3'
sS'examples/manipulating_images_and_visualization/plot_haxby_mass_univariate.py'
p340
S'7'
sS'example_searchlight.py'
p341
S'3'
sS'nilearn/plotting/glass_brain/brain_schematics.py'
p342
S'0'
sS'plot_haxby_multi_class.py'
p343
S'7'
sS'nilearn/sparse_models/tests/test_operators.py'
p344
S'2'
sS'examples/manipulating_visualizing/plot_extract_rois_smith_atlas.py'
p345
S'5'
sS'examples/01_plotting/plot_surf_atlas.py'
p346
S'0'
sS'nilearn/plotting/glass_brain_files/plot_align_svg.py'
p347
S'5'
sS'nisl/decomposition/decomposition_model.py'
p348
S'3'
sS'nilearn/_utils/logger.py'
p349
S'4'
sS'examples/04_manipulating_images/plot_smooth_mean_image.py'
p350
S'5'
sS'nilearn/_utils/fixes/funcsigs.py'
p351
S'4'
sS'nilearn/_utils/param_validation.py'
p352
S'4'
sS'nilearn/connectome/jaccard_index.py'
p353
S'4'
sS'nilearn/tests/test_group_sparse_covariance.py'
p354
S'4'
sS'nilearn/image/resampling.py'
p355
S'4'
sS'nilearn/decoding/tests/__init__.py'
p356
S'3'
sS'nilearn/tests/test_numpy_conversions.py'
p357
S'3'
sS'nilearn/datasets/tests/test_utils.py'
p358
S'4'
sS'nilearn/decoding/sparse_models/objective_functions.py'
p359
S'2'
sS'__init__.py'
p360
S'6'
sS'nilearn/decoding/tests/test_fista.py'
p361
S'2'
sS'nilearn/io/__init__.py'
p362
S'3'
sS'example_hierarchical_clustering_from_scikits_learn.py'
p363
S'6'
sS'nilearn/sparse_models/operators.py'
p364
S'2'
sS'nilearn/plotting/edge_detect.py'
p365
S'4'
sS'nisl/simulated_example.py'
p366
S'6'
sS'nilearn/image/tests/test_resampling.py'
p367
S'4'
sS'doc/sphinxext/numpy_ext/docscrape.py'
p368
S'6'
sS'nilearn/tests/test_datasets.py'
p369
S'4'
sS'examples/decoding/plot_haxby_full_analysis.py'
p370
S'5'
sS'examples/plot_mask_computation.py'
p371
S'7'
sS'examples/03_connectivity/plot_seed_based_connectome.py'
p372
S'4'
sS'nilearn/honorio_samaras.py'
p373
S'4'
sS'nilearn/connectome/group_sparse_covariance.py'
p374
S'4'
sS'nisl/testing.py'
p375
S'3'
sS'nilearn/sparse_models/tests/test_fista.py'
p376
S'2'
sS'nilearn/input_data/tests/test_nifti_masker.py'
p377
S'4'
sS'doc/sphinxext/sphinx_gallery/__init__.py'
p378
S'1'
sS'nilearn/plotting/glass_brain_scripts/svg_to_json_converter.py'
p379
S'0'
sS'nisl/datasets.py'
p380
S'3'
sS'nilearn/plotting/tests/test_surf_plotting.py'
p381
S'0'
sS'nilearn/glass_brain_scripts/plot_glass_brain.py'
p382
S'0'
sS'nilearn/sparse_models/tests/test_tv.py'
p383
S'2'
sS'nilearn/sparse_models/tests/test_common.py'
p384
S'2'
sS'examples/plotting/plot_demo_glass_brain_extensive.py'
p385
S'5'
sS'nilearn/plotting/test/test_cm.py'
p386
S'0'
sS'decoding_example.py'
p387
S'6'
sS'searchlight/searchlight.py'
p388
S'3'
sS'nilearn/plotting/tests/test_img_plotting.py'
p389
S'4'
sS'examples/03_connectivity/plot_power_connectome.py'
p390
S'4'
sS'examples/02_decoding/plot_haxby_stimuli.py'
p391
S'5'
sS'setup.py'
p392
S'3'
sS'examples/manipulating_visualizing/plot_haxby_mass_univariate.py'
p393
S'5'
sS'nisl/decoding/__init__.py'
p394
S'3'
sS'nisl/starplus.py'
p395
S'6'
sS'nilearn/decoding/sparse_models/tests/test_tv.py'
p396
S'2'
sS'plot_regions_covariance_obj.py'
p397
S'3'
sS'examples/manipulating_visualizing/plot_smooth_mean_image.py'
p398
S'5'
sS'nilearn/tests/data/__init__.py'
p399
S'3'
sS'examples/plot_atlas.py'
p400
S'5'
sS'plot_haxby_different_estimators.py'
p401
S'7'
sS'nilearn/decoding/tests/test_graph_net.py'
p402
S'4'
sS'nisl/_utils/niimg_conversions.py'
p403
S'3'
sS'examples/manipulating_images_and_visualization/plot_demo_plotting.py'
p404
S'7'
sS'doc/sphinxext/sphinx_gallery/gen_rst.py'
p405
S'1'
sS'nisl/decomposition/canica.py'
p406
S'3'
sS'examples/02_decoding/plot_mixed_gambles_space_net.py'
p407
S'5'
sS'doc/sphinxext/numpy_ext/numpydoc.py'
p408
S'6'
sS'plot_haxby_masking.py'
p409
S'3'
sS'nisl/_utils/tests/test_numpy_conversions.py'
p410
S'3'
sS'nilearn/input_data/__init__.py'
p411
S'4'
sS'nilearn/tests/test_fast_maths.py'
p412
S'0'
sS'examples/manipulating_visualizing/plot_prob_atlas.py'
p413
S'5'
sS'plot_image_manipulation.py'
p414
S'13'
p415
sS'doc/sphinxext/numpy_ext_old/numpydoc.py'
p416
S'6'
sS'nisl/image.py'
p417
S'3'
sS'plot_oasis_smoothlasso_vbm.py'
p418
S'2'
sS'plot_nyu_rest_clustering.py'
p419
S'3'
sS'nilearn/sparse_models/tests/test_same_api.py'
p420
S'2'
sS'nilearn/decoding/sparse_models/_cv_tricks.py'
p421
S'2'
sS'examples/03_connectivity/plot_seed_to_voxel_correlation.py'
p422
S'0'
sS'examples/03_connectivity/plot_connectivity_measures.py'
p423
S'5'
sS'nilearn/input_data/tests/test_masker_validation.py'
p424
S'5'
sS'examples/plot_nilearn_101.py'
p425
S'5'
sS'examples/03_connectivity/plot_signal_extraction.py'
p426
S'5'
sS'tests/__init__.py'
p427
S'6'
sS'nilearn/version.py'
p428
S'4'
sS'nilearn/externals/skimage/_rank_order.py'
p429
S'8'
sS'examples/manipulating_visualizing/plot_visualization.py'
p430
S'5'
sS'examples/04_manipulating_images/plot_negate_image.py'
p431
S'4'
sS'nilearn/_utils/__init__.py'
p432
S'4'
sS'examples/plot_oasis_vbm_space_net.py'
p433
S'2'
sS'examples/plot_adhd_covariance.py'
p434
S'7'
sS'examples/01_plotting/brainpedia_surface.py'
p435
S'0'
sS'examples/manipulating_images/plot_roi_extraction.py'
p436
S'5'
sS'examples/04_manipulating_images/plot_extract_rois_smith_atlas.py'
p437
S'5'
sS'nisl/decoding/searchlight.py'
p438
S'3'
sS'examples/01_plotting/plot_overlay.py'
p439
S'5'
sS'examples/01_plotting/plot_glass_brain_with_contours.py'
p440
S'5'
sS'nilearn/region_decomposition/__init__.py'
p441
S'8'
sS'examples/plot_a_mixed_gambles_space_net.py'
p442
S'5'
sS'nilearn/mass_univariate/tests/test_gsarray.py'
p443
S'7'
sS'visualization.py'
p444
S'3'
sS'nilearn/_utils/testing.py'
p445
S'4'
sS'examples/02_decoding/plot_miyawaki_reconstruction.py'
p446
S'5'
sS'nisl/io/__init__.py'
p447
S'3'
sS'nisl/base_model.py'
p448
S'3'
sS'examples/decoding/plot_simulated_data.py'
p449
S'5'
sS'nilearn/externals/skimage/dtype.py'
p450
S'8'
sS'examples/01_plotting/plot_cortex_projection_strategies.py'
p451
S'0'
sS'nilearn/image/tests/__init__.py'
p452
S'4'
sS'nilearn/plotting/tests/test_edge_detect.py'
p453
S'4'
sS'examples/03_connectivity/plot_seed_based_correlation.py'
p454
S'1'
sS'nilearn/plotting/glass_brain/svg_to_json_converter.py'
p455
S'0'
sS'plot_connect_comparison.py'
p456
S'7'
sS'nilearn/input_data/nifti_labels_masker.py'
p457
S'4'
sS'nilearn/externals/skimage/peak.py'
p458
S'8'
sS'nisl/_utils/ndimage.py'
p459
S'3'
sS'examples/plot_haxby_searchlight.py'
p460
S'7'
sS'examples/plot_demo_plotting.py'
p461
S'7'
sS'nilearn/sparse_models/tv.py'
p462
S'2'
sS'examples/decoding/plot_haxby_space_net.py'
p463
S'5'
sS'examples/plot_roi_extraction.py'
p464
S'7'
sS'nilearn/plotting/tests/test_cm.py'
p465
S'4'
sS'nilearn/_utils/fixes/sklearn_basic_backports.py'
p466
S'2'
sS'nilearn/io/nifti_region.py'
p467
S'3'
sS'examples/advanced/plot_haxby_mass_univariate.py'
p468
S'5'
sS'nilearn/decoding/sparse_models/tests/test_estimators.py'
p469
S'2'
sS'pymvpa-exampledata/supervised_clustering.py'
p470
S'6'
sS'nilearn/datasets/utils.py'
p471
S'4'
sS'examples/01_plotting/plot_dim_plotting.py'
p472
S'5'
sS'examples/01_plotting/plot_surf_stat_map.py'
p473
S'0'
sS'plot_haxby_simple.py'
p474
S'3'
sS'examples/01_plotting/plot_demo_glass_brain_extensive.py'
p475
S'5'
sS'nilearn/regions/__init__.py'
p476
S'4'
sS'nilearn/plotting/matrix_plotting.py'
p477
S'5'
sS'examples/connectivity/plot_canica_resting_state.py'
p478
S'5'
sS'plot_miyawaki_reconstruction.py'
p479
S'7'
sS'nilearn/regions/tests/test_region_extractor.py'
p480
S'4'
sS'nisl/honorio_samaras.py'
p481
S'4'
sS'file_name'
p482
S'modularity_class'
p483
sS'examples/manipulating_visualizing/plot_neurovault_meta_analysis.py'
p484
g138
sS'doc/sphinxext/numpydoc/phantom_import.py'
p485
S'6'
sS'plot_oasis_vbm_spacenet.py'
p486
S'2'
sS'nilearn/plotting/test/test_edge_detect.py'
p487
S'0'
sS'nisl/tests/test_image.py'
p488
S'3'
sS'examples/05_advanced/plot_ica_resting_state.py'
p489
S'5'
sS'nilearn/plotting/glass_brain/__init__.py'
p490
S'0'
sS'nilearn/tests/test_surface.py'
p491
S'0'
sS'plot_haxby_decoding.py'
p492
S'3'
sS'nisl/tests/test_mask.py'
p493
S'3'
sS'nilearn/plotting/test/test_img_plotting.py'
p494
S'0'
sS'nisl/conf.py'
p495
S'6'
sS'examples/03_connectivity/plot_adhd_spheres.py'
p496
S'5'
sS'plot_haxby_spacenet.py'
p497
S'2'
sS'examples/plotting/plot_demo_plotting.py'
p498
S'5'
sS'examples/manipulating_visualizing/plot_overlay.py'
p499
S'5'
sS'examples/decoding/plot_poldrack_space_net.py'
p500
S'2'
sS'nilearn/surface/data/__init__.py'
p501
S'0'
sS'examples/connectivity/plot_adhd_spheres.py'
p502
S'5'
sS'nilearn/_utils/fixes/scikit_learn_gridsearch.py'
p503
g156
sS'doc/sphinxext/numpydoc/docscrape_sphinx.py'
p504
S'6'
sS'plot_localizer_mass_univariate.py'
p505
S'4'
sS'nilearn/surface/surface.py'
p506
S'0'
sS'nisl/_utils/class_inspect.py'
p507
S'3'
sS'nilearn/region_extraction/simplethresholdextractor.py'
p508
S'8'
sS'nilearn/decoding/sparse_models/estimators.py'
p509
S'2'
sS'nilearn/resampling.py'
p510
S'3'
sS'examples/05_advanced/plot_ica_neurovault.py'
p511
g138
sS'examples/connectivity/plot_adhd_covariance.py'
p512
S'5'
sS'plot_rest_clustering.py'
p513
S'3'
sS'examples/plot_a_oasis_vbm_space_net.py'
p514
S'5'
sS'load_poldrack.py'
p515
S'14'
p516
sS'nilearn/connectivity/tests/__init__.py'
p517
S'9'
sS'nilearn/input_data/tests/test_nifti_labels_masker.py'
p518
S'4'
sS'nilearn/externals/skimage/__init__.py'
p519
S'8'
sS'nilearn/connectivity/connectivity_matrices.py'
p520
S'9'
sS'examples/plot_localizer_mass_univariate_methods.py'
p521
S'7'
sS'examples/plot_oasis_vbm.py'
p522
S'7'
sS'nilearn/plotting/glass_brain/scripts/svg_to_json_converter.py'
p523
S'0'
sS'nilearn/connectome/group_sparse_cov.py'
p524
S'4'
sS'examples/03_connectivity/plot_inverse_covariance_connectome.py'
p525
S'5'
sS'examples/04_manipulating_images/plot_nifti_simple.py'
p526
S'5'
sS'nilearn/decoding/space_net.py'
p527
S'2'
sS'nilearn/plotting/test/test_find_cuts.py'
p528
S'0'
sS'nilearn/surface/tests/test_surface.py'
p529
S'0'
sS'nilearn/datasets.py'
p530
S'4'
sS'nilearn/decoding/sparse_models/fista.py'
p531
S'2'
sS'nilearn/decoding/sparse_models/__init__.py'
p532
S'2'
sS'examples/plot_haxby_space_net.py'
p533
S'2'
sS'examples/02_decoding/plot_oasis_vbm_space_net.py'
p534
S'5'
sS'nilearn/decoding/sparse_models/tests/test_aaa.py'
p535
S'15'
p536
sS'examples/manipulating_visualizing/plot_visualize_megatrawls_netmats.py'
p537
S'4'
sS'plot_regions_covariance.py'
p538
S'3'
sS'examples/manipulating_visualizing/plot_affine_transformation.py'
p539
S'5'
sS'doc/sphinxext/numpydoc/plot_directive.py'
p540
S'6'
sS'nilearn/regions/region_extractor.py'
p541
S'4'
sS'nisl/mri_transformer.py'
p542
S'3'
sS'doc/sphinxext/numpy_ext_old/__init__.py'
p543
S'6'
sS'nilearn/tests/test_cache_mixin.py'
p544
S'4'
sS'nilearn/datasets/tests/test_datasets.py'
p545
S'4'
sS'nilearn/__init__.py'
p546
S'4'
sS'nilearn/externals/skimage/tests/test_skimage_segmentation.py'
p547
S'8'
sS'nilearn/region.py'
p548
S'4'
sS'examples/decoding/plot_haxby_anova_svm.py'
p549
S'5'
sS'examples/decoding/plot_oasis_vbm_space_net.py'
p550
S'5'
sS'plot_demo_plotting.py'
p551
S'7'
sS'nisl/decomposition/tests/__init__.py'
p552
S'3'
sS'nilearn/sparse_models/tests/simulate_smooth_lasso_data.py'
p553
S'2'
sS'doc/sphinxext/numpydoc/__init__.py'
p554
S'6'
sS'examples/plot_poldrack_space_net.py'
p555
S'2'
sS'nilearn/tests/__init__.py'
p556
S'3'
sS'examples/manipulating_images/plot_mask_computation.py'
p557
S'5'
sS'nisl/io/nifti_masker.py'
p558
S'3'
sS'examples/01_plotting/plot_multiscale_parcellations.py'
p559
S'5'
sS'examples/plotting/plot_haxby_masks.py'
p560
S'5'
sS'plot_simulated_data.py'
p561
S'3'
sS'nilearn/plotting/coord_tools.py'
p562
S'0'
sS'nisl/_utils/tests/test_class_inspect.py'
p563
S'3'
sS'nisl/decoding/tests/test_searchlight.py'
p564
S'3'
sS'nisl/decoding.py'
p565
S'3'
sS'plot_affine_transformation.py'
p566
S'7'
sS'nilearn/plotting/img_plotting.py'
p567
S'4'
sS'examples/plotting/plot_dim_plotting.py'
p568
S'5'
sS'starplus.py'
p569
S'6'
sS'nisl/supervised_clustering_vs_anova.py'
p570
S'6'
sS'nilearn/plotting/glass_brain.py'
p571
S'4'
sS'examples/05_advanced/plot_neurovault_meta_analysis.py'
p572
g138
sS'supervised_clustering.py'
p573
S'6'
sS'nilearn/decoding/tests/test_operators.py'
p574
S'2'
sS'nilearn/decoding/_cv_tricks.py'
p575
S'2'
sS'examples/connectivity/plot_ica_neurovault.py'
p576
g138
sS'nilearn/signal.py'
p577
S'4'
sS'nilearn/external/visvis/__init__.py'
p578
S'3'
sS'nilearn/_utils/fixes/__init__.py'
p579
S'4'
sS'nilearn/external/visvis/images2gif.py'
p580
S'3'
sS'examples/decoding/plot_mixed_gambles_space_net.py'
p581
S'5'
sS'nilearn/plotting/glass_brain/scripts/plot_align_svg.py'
p582
S'0'
sS'examples/01_plotting/plot_surface_projection_strategies.py'
p583
S'0'
sS'demo_clean.py'
p584
S'4'
sS'examples/plot_visualization.py'
p585
S'7'
sS'plot_nyu_rest_decomposition.py'
p586
S'3'
sS'nilearn/decomposition/dict_learning.py'
p587
S'4'
sS'nilearn/datasets/tests/test_func.py'
p588
S'4'
sS'examples/04_manipulating_images/plot_resample_to_template.py'
p589
S'4'
sS'nilearn/input_data/masker_validation.py'
p590
S'4'
sS'nisl/io/nifti_multi_masker.py'
p591
S'3'
sS'plot_localizer_mass_univariate_methods.py'
p592
S'7'
sS'nilearn/_utils/fixes/odict.py'
p593
S'4'
sS'nilearn/datasets/atlas.py'
p594
S'4'
sS'nilearn/decoding/space_net_solvers.py'
p595
S'2'
sS'plot_haxby_grid_search.py'
p596
S'7'
sS'nilearn/decoding/estimators.py'
p597
S'2'
sS'nisl/_utils/__init__.py'
p598
S'3'
sS'examples/04_manipulating_images/plot_compare_mean_image.py'
p599
S'4'
sS'plot_adhd_covariance.py'
p600
S'3'
sS'doc/sphinxext/sphinx_gallery/docs_resolv.py'
p601
S'1'
sS'nilearn/group_analysis/permuted_least_squares.py'
p602
g184
sS'nisl/roi.py'
p603
S'3'
sS'nilearn/data/__init__.py'
p604
S'5'
sS'nilearn/_utils/class_inspect.py'
p605
S'3'
sS'examples/manipulating_visualizing/plot_atlas.py'
p606
S'5'
sS'nilearn/_utils/numpy_conversions.py'
p607
S'3'
sS'nisl/tests/test_masking.py'
p608
S'3'
sS'nisl/tests/test_resampling.py'
p609
S'3'
sS'nilearn/plotting/find_cuts.py'
p610
S'4'
sS'plot_nifti_simple.py'
p611
S'3'
sS'nilearn/plotting/surf_plotting.py'
p612
S'0'
sS'examples/plot_haxby_visualisation.py'
p613
S'6'
sS'nilearn/plotting/glass_brain_scripts/plot_align_svg.py'
p614
S'0'
sS'nilearn/tests/test_extmath.py'
p615
S'4'
sS'nilearn/io/tests/test_nifti_multi_masker.py'
p616
S'3'
sS'nilearn/tests/test_niimg_conversions.py'
p617
S'4'
sS'doc/sphinxext/sphinx_gallery/notebook.py'
p618
S'1'
sS'examples/connectivity/plot_extract_regions_statistical_maps.py'
p619
S'8'
sS'examples/02_decoding/plot_haxby_full_analysis.py'
p620
S'5'
sS'nilearn/plotting/test/__init__.py'
p621
S'0'
sS'nilearn/tests/test_image.py'
p622
S'3'
sS'kamitani.py'
p623
S'3'
sS'nilearn/surface/__init__.py'
p624
S'0'
sS'examples/04_manipulating_images/plot_affine_transformation.py'
p625
S'5'
sS'nilearn/_utils/niimg.py'
p626
S'4'
sS'examples/manipulating_visualizing/plot_demo_more_plotting.py'
p627
S'5'
sS'doc/sphinxext/sphinx_gallery/py_source_parser.py'
p628
S'1'
sS'_utils/fixes/sklearn_f_regression_nosparse.py'
p629
S'1'
sS'examples/manipulating_images_and_visualization/plot_haxby_masks.py'
p630
S'7'
sS'doc/sphinxext/numpydoc/comment_eater.py'
p631
S'6'
sS'examples/01_plotting/plot_prob_atlas.py'
p632
S'5'
sS'nilearn/connectome/connectivity_matrices.py'
p633
S'4'
sS'nilearn/external/__init__.py'
p634
S'3'
sS'examples/03_connectivity/plot_extract_regions_dictlearn_maps.py'
p635
S'5'
sS'examples/manipulating_images_and_visualization/plot_roi_extraction.py'
p636
S'7'
sS'continuous_integration/show-python-packages-versions.py'
p637
S'4'
sS'nilearn/decoding/tests/test_sklearn_compatibility.py'
p638
S'2'
sS'nilearn/decoding/sparse_models/cv.py'
p639
S'2'
sS'examples/02_decoding/plot_oasis_vbm.py'
p640
S'5'
sS'nilearn/decoding/sparse_models/tests/__init__.py'
p641
S'2'
sS'nilearn/glass_brain_scripts/brain_plotter.py'
p642
S'0'
sS'nilearn/decoding/tests/test_cv.py'
p643
S'2'
sS'nisl/decomposition/tests/test_canica.py'
p644
S'3'
sS'examples/connectivity/plot_seed_based_connectome.py'
p645
S'5'
sS'examples/manipulating_images_and_visualization/plot_mask_computation.py'
p646
S'7'
sS'nisl/preprocessing.py'
p647
S'3'
sS'nilearn/regions/tests/test_signal_extraction.py'
p648
S'4'
sS'examples/connectivity/plot_extract_regions_smith_atlas_networks.py'
p649
S'8'
sS'nilearn/datasets/tests/__init__.py'
p650
S'5'
sS'nilearn/plotting/anat_cache.py'
p651
S'0'
sS'doc/sphinxext/numpy_ext/docscrape_sphinx.py'
p652
S'6'
sS'nilearn/region/autoextractor.py'
p653
S'16'
p654
sS'nilearn/sparse_models/tests/test_smooth_lasso.py'
p655
S'2'
sS'examples/plot_rest_clustering.py'
p656
S'7'
sS'nisl/mask.py'
p657
S'3'
sS'nilearn/_utils/fixes/_ravel.py'
p658
S'2'
sS'test_hierarchical_clustering.py'
p659
S'6'
sS'pymvpa-exampledata/simulated_example.py'
p660
S'6'
sS'datasets.py'
p661
S'6'
sS'examples/plot_haxby_mass_univariate.py'
p662
S'7'
sS'nisl/_utils/tests/test_niimg_conversions.py'
p663
S'3'
sS'nilearn/decoding/tv.py'
p664
S'2'
sS'nisl/tests/test_numpy_conversions.py'
p665
S'3'
sS'nilearn/decoding/objective_functions.py'
p666
S'2'
sS'plot_adhd_covariance2.py'
p667
S'4'
sS'nilearn/plotting/glass_brain/plot_glass_brain.py'
p668
S'0'
sS'plot_haxby_anova_svm.py'
p669
S'7'
sS'searchlight/example_searchlight.py'
p670
S'3'
sS'nisl/tests/test_supervised_clustering.py'
p671
S'6'
sS'nisl/starplus_decoding_example.py'
p672
S'6'
sS'examples/decoding/plot_haxby_searchlight.py'
p673
S'5'
sS'nisl/tests/test_io_nifti_masker.py'
p674
S'3'
sS'nilearn/connectivity/tests/test_embedding.py'
p675
S'9'
sS'examples/01_plotting/plot_3d_map_projection.py'
p676
S'0'
sS'examples/connectivity/plot_ica_resting_state.py'
p677
S'5'
sS'examples/01_plotting/plot_haxby_masks.py'
p678
S'5'
sS'nilearn/decomposition/tests/__init__.py'
p679
S'3'
sS'nilearn/decoding/sparse_models/tests/test_operators.py'
p680
S'2'
sS'examples/manipulating_visualizing/plot_haxby_masks.py'
p681
S'5'
sS'nisl/io/nifti_region.py'
p682
S'3'
sS'nisl/tests/test_utils.py'
p683
S'3'
sS'nilearn/datasets/tests/test_neurovault.py'
p684
g138
sS'nilearn/input_data/tests/__init__.py'
p685
S'3'
sS'examples/plotting/plot_overlay.py'
p686
S'5'
sS'nilearn/glass_brain_scripts/svg_to_json_converter.py'
p687
S'0'
sS'nisl/tests/test_signal.py'
p688
S'3'
sS'nilearn/decomposition/base.py'
p689
S'4'
sS'nilearn/plotting/displays.py'
p690
S'4'
sS'plot_oasis_vbm_space_net.py'
p691
S'2'
sS'doc/sphinxext/sphinxgallery/backreferences.py'
p692
S'1'
sS'nisl/io/base_masker.py'
p693
S'3'
sS'examples/manipulating_visualizing/plot_extract_rois_statistical_maps.py'
p694
S'5'
sS'plot_nifti_advanced.py'
p695
S'3'
sS'nilearn/decoding/__init__.py'
p696
S'3'
sS'examples/connectivity/plot_multi_subject_connectome.py'
p697
S'5'
sS'examples/01_plotting/technical_details/plot_surface_projection_strategies.py'
p698
S'0'
sS'nilearn/input_data/nifti_maps_masker.py'
p699
S'4'
sS'examples/manipulating_images_and_visualization/plot_visualization.py'
p700
S'7'
sS'nilearn/sparse_models/optim.py'
p701
S'2'
sS'nilearn/testing.py'
p702
S'3'
sS'nisl/supervised_clustering.py'
p703
S'6'
sS'nilearn/glass_brain_scripts/__init__.py'
p704
S'0'
sS'nilearn/decoding/sparse_models/tests/test_common.py'
p705
S'2'
sS'examples/plot_haxby_grid_search.py'
p706
S'7'
sS'examples/01_plotting/show_ball_sampling.py'
p707
S'0'
sS'plot_python_101.py'
p708
S'7'
sS'nilearn/plotting/tests/data/__init__.py'
p709
S'0'
sS'nilearn/_utils/extmath.py'
p710
S'4'
sS'nilearn/tests/test_logger.py'
p711
S'4'
sS'examples/manipulating_visualizing/plot_roi_extraction.py'
p712
S'5'
sS'plot_canica_resting_state.py'
p713
S'3'
sS'nilearn/regions/tests/__init__.py'
p714
S'4'
sS'nilearn/_utils/niimage.py'
p715
S'4'
sS'doc/sphinxext/sphinx_gallery/backreferences.py'
p716
S'1'
sS'nilearn/image.py'
p717
S'3'
sS'examples/02_decoding/plot_miyawaki_encoding.py'
p718
S'4'
sS'examples/plot_simulated_data.py'
p719
S'7'
sS'nilearn/group_analysis/__init__.py'
p720
g184
sS'nilearn/_utils/fixes/matplotlib_backports.py'
p721
S'5'
sS'nilearn/decomposition/__init__.py'
p722
S'3'
sS'nilearn/decoding/cv.py'
p723
S'2'
sS'examples/connectivity/plot_probabilistic_atlas_extraction.py'
p724
S'5'
sS'nilearn/plotting/glass_brain_files/svg_to_json_converter.py'
p725
S'4'
sS'nilearn/plotting/glass_brain/plot_align_svg.py'
p726
S'0'
sS'nilearn/plotting/glass_brain_scripts/brain_plotter.py'
p727
S'0'
sS'examples/plot_connect_comparison.py'
p728
S'7'
sS'nilearn/datasets/description/__init__.py'
p729
S'5'
sS'examples/01_plotting/plot_visualize_megatrawls_netmats.py'
p730
S'5'
sS'examples/manipulating_visualizing/plot_localizer_mass_univariate_methods.py'
p731
S'5'
sS'nilearn/decoding/proximal_operators.py'
p732
S'2'
sS'nilearn/decoding/smooth_lasso.py'
p733
S'2'
sS'nilearn/connectome/tests/__init__.py'
p734
S'9'
s.