(dp1
S'astroid/exceptions.py'
p2
S'0'
sS'test/unittest_modutils.py'
p3
S'1'
sS'astroid/tests/data/find_test/__init__.py'
p4
S'2'
sS'astroid/tests/regrtest_data/package/absimport.py'
p5
S'2'
sS'astroid/tests/unittest_transforms.py'
p6
S'0'
sS'astroid/tests/testdata/python2/data/module1abs/__init__.py'
p7
S'2'
sS'astroid/tests/testdata/python2/data/find_test/__init__.py'
p8
S'2'
sS'astroid/brain/pynumpy.py'
p9
S'0'
sS'astroid/tests/data_py3/module.py'
p10
S'2'
sS'astroid/tests/unittest_raw_building.py'
p11
S'0'
sS'astroid/tests/testdata/python2/data/find_test/nonregr.py'
p12
S'2'
sS'astroid/tests/testdata/python2/data/find_test/noendingnewline.py'
p13
S'2'
sS'test/data_py3/appl/__init__.py'
p14
S'1'
sS'astroid/tests/testdata/python3/data/recursion.py'
p15
S'2'
sS'astroid/tests/testdata/python2/data/path_pkgutil_1/package/foo.py'
p16
S'3'
sS'astroid/tests/testdata/python2/data/path_pkg_resources_3/package/__init__.py'
p17
S'3'
sS'astroid/tests/testdata/python3/data/path_pkgutil_3/package/baz.py'
p18
S'3'
sS'astroid/brain/brain_attrs.py'
p19
S'0'
sS'astroid/tests/testdata/python2/data/find_test/module2.py'
p20
S'2'
sS'astroid/tests/unittest_object_model.py'
p21
S'0'
sS'astroid/tests/testdata/python3/data/nonregr.py'
p22
S'2'
sS'raw_building.py'
p23
S'4'
sS'astroid/tests/testdata/python2/data/path_pkg_resources_1/package/foo.py'
p24
S'3'
sS'astroid/tests/data_py3/module1abs/__init__.py'
p25
S'2'
sS'_nodes.py'
p26
S'4'
sS'_nodes_compiler.py'
p27
S'4'
sS'_nodes_ast.py'
p28
S'4'
sS'astroid/tests/testdata/python3/data/find_test/nonregr.py'
p29
S'2'
sS'astroid/tests/testdata/python3/data/path_pkgutil_2/package/__init__.py'
p30
S'3'
sS'astroid/tests/testdata/python3/data/email.py'
p31
S'2'
sS'astroid/tests/data_py3/noendingnewline.py'
p32
S'2'
sS'astroid/tests/testdata/python2/data/absimport.py'
p33
S'2'
sS'astroid/tests/data_py3/lmfp/foo.py'
p34
S'2'
sS'astroid/tests/testdata/python2/data/path_pkg_resources_2/package/__init__.py'
p35
S'3'
sS'doc/source/conf.py'
p36
S'0'
sS'node_classes.py'
p37
S'4'
sS'astroid/tests/testdata/python2/data/path_pkg_resources_1/package/__init__.py'
p38
S'3'
sS'astroid/tests/testdata/python2/data/invalid_encoding.py'
p39
S'0'
sS'astroid/tests/testdata/python2/data/path_pkgutil_2/package/__init__.py'
p40
S'3'
sS'astroid/tests/testdata/python2/data/appl/__init__.py'
p41
S'2'
sS'inspector.py'
p42
S'4'
sS'astroid/tests/testdata/python2/data/foogle/fax/a.py'
p43
S'0'
sS'astroid/tests/testdata/python3/data/noendingnewline.py'
p44
S'2'
sS'astroid/brain/brain_pkg_resources.py'
p45
S'0'
sS'test/data/ssl1/__init__.py'
p46
S'4'
sS'astroid/tests/testdata/python3/data/tmp__init__.py'
p47
S'0'
sS'astroid/brain/pydateutil.py'
p48
S'0'
sS'test/data2/clientmodule_test.py'
p49
S'4'
sS'astroid/context.py'
p50
S'0'
sS'astroid/tests/data/format.py'
p51
S'2'
sS'astroid/brain/py2stdlib.py'
p52
S'0'
sS'astroid/tests/data/find_test/nonregr.py'
p53
S'2'
sS'astroid/tests/testdata/python3/data/path_pkgutil_1/package/__init__.py'
p54
S'3'
sS'astroid/raw_building.py'
p55
S'0'
sS'astroid/tests/testdata/python2/data/contribute_to_namespace/namespace_pep_420/submodule.py'
p56
S'0'
sS'astroid/tests/data_py3/find_test/noendingnewline.py'
p57
S'2'
sS'astroid/tests/data_py3/find_test/__init__.py'
p58
S'2'
sS'astroid/tests/unittest_manager.py'
p59
S'0'
sS'test/data/noendingnewline.py'
p60
S'4'
sS'test/regrtest_data/package/subpackage/module.py'
p61
S'4'
sS'astroid/tests/data_py3/appl/myconnection.py'
p62
S'2'
sS'astroid/interpreter/_import/spec.py'
p63
S'0'
sS'astroid/tests/data/module1abs/core.py'
p64
S'2'
sS'test/data/module1abs/core.py'
p65
S'1'
sS'astroid/tests/data/lmfp/foo.py'
p66
S'2'
sS'astroid/brain/brain_functools.py'
p67
S'0'
sS'astroid/tests/testdata/python2/data/module2.py'
p68
S'2'
sS'astroid/tests/testdata/python2/data/namespace_pep_420/module.py'
p69
S'0'
sS'astroid/tests/testdata/python3/data/path_pkg_resources_1/package/__init__.py'
p70
S'3'
sS'astroid/tests/unittest_helpers.py'
p71
S'0'
sS'astroid/brain/_qt.py'
p72
S'0'
sS'inference.py'
p73
S'4'
sS'astroid/tests/testdata/python3/data/path_pkgutil_2/package/bar.py'
p74
S'3'
sS'test/data2/suppliermodule_test.py'
p75
S'4'
sS'astroid/tests/testdata/python2/data/recursion.py'
p76
S'2'
sS'test/unittest_python3.py'
p77
S'4'
sS'astroid/tests/data_py3/module1abs/core.py'
p78
S'2'
sS'astroid/brain/_pytest.py'
p79
S'0'
sS'astroid/inference.py'
p80
S'0'
sS'astroid/tests/testdata/python3/data/foogle/fax/a.py'
p81
S'0'
sS'astroid/tests/data_py3/nonregr.py'
p82
S'2'
sS'astroid/tests/data/all.py'
p83
S'2'
sS'astroid/tests/testdata/python2/data/unicode_package/core/__init__.py'
p84
S'2'
sS'astroid/tests/unittest_utils.py'
p85
S'0'
sS'astroid/brain/brain_nose.py'
p86
S'0'
sS'astroid/tests/testdata/python2/data/email.py'
p87
S'2'
sS'test/data_py3/find_test/nonregr.py'
p88
S'1'
sS'astroid/brain/brain_uuid.py'
p89
S'0'
sS'astroid/tests/unittest_peephole.py'
p90
S'0'
sS'astroid/util.py'
p91
S'0'
sS'astroid/tests/testdata/python3/data/package/__init__.py'
p92
S'2'
sS'test/unittest_lookup.py'
p93
S'4'
sS'astroid/brain/brain_dateutil.py'
p94
S'0'
sS'test/runtests.py'
p95
S'4'
sS'astroid/tests/testdata/python3/data/find_test/__init__.py'
p96
S'2'
sS'astroid/tests/testdata/python3/data/path_pkg_resources_3/package/baz.py'
p97
S'3'
sS'test/data/ssl1/connection1.py'
p98
S'4'
sS'test/regrtest_data/package/absimport.py'
p99
S'4'
sS'astroid/tests/data_py3/notall.py'
p100
S'2'
sS'astroid/nodes.py'
p101
S'0'
sS'astroid/tests/testdata/python2/data/__init__.py'
p102
S'2'
sS'astroid/brain/py2qt4.py'
p103
S'1'
sS'brain/py2gi.py'
p104
S'1'
sS'astroid/interpreter/_import/__init__.py'
p105
S'5'
sS'astroid/tests/data_py3/all.py'
p106
S'2'
sS'as_string.py'
p107
S'4'
sS'test/data/find_test/module.py'
p108
S'1'
sS'astroid/tests/testdata/python2/data/lmfp/__init__.py'
p109
S'2'
sS'astroid/tests/testdata/python2/data/suppliermodule_test.py'
p110
S'2'
sS'astroid/tests/testdata/python3/data/path_pkg_resources_2/package/bar.py'
p111
S'3'
sS'astroid/tests/data/ssl1/connection1.py'
p112
S'2'
sS'astroid/decorators.py'
p113
S'0'
sS'astroid/tests/data2/suppliermodule_test.py'
p114
S'2'
sS'test/data_py3/lmfp/__init__.py'
p115
S'1'
sS'test/data_py3/find_test/noendingnewline.py'
p116
S'1'
sS'astroid/tests/testdata/python2/data/path_pkgutil_1/package/__init__.py'
p117
S'3'
sS'utils.py'
p118
S'4'
sS'astroid/builder.py'
p119
S'0'
sS'astroid/brain/_gi.py'
p120
S'0'
sS'astroid/tests/regrtest_data/unicode_package/core/__init__.py'
p121
S'2'
sS'test/data_py3/find_test/module2.py'
p122
S'1'
sS'astroid/tests/testdata/python3/data/unicode_package/core/__init__.py'
p123
S'2'
sS'test/data/find_test/__init__.py'
p124
S'1'
sS'astroid/tests/testdata/python3/data/path_pkgutil_3/package/__init__.py'
p125
S'3'
sS'astroid/tests/testdata/python2/data/tmp__init__.py'
p126
S'0'
sS'astroid/tests/testdata/python3/data/format.py'
p127
S'2'
sS'astroid/tests/testdata/python3/data/unicode_package/__init__.py'
p128
S'2'
sS'rebuilder.py'
p129
S'4'
sS'astroid/tests/testdata/python3/data/lmfp/__init__.py'
p130
S'2'
sS'test/test_encoding.py'
p131
S'4'
sS'astroid/transforms.py'
p132
S'0'
sS'test/data/module2.py'
p133
S'4'
sS'astroid/brain/_nose.py'
p134
S'0'
sS'test/data/appl/myconnection.py'
p135
S'4'
sS'test/data/module1abs/__init__.py'
p136
S'1'
sS'astroid/brain/_six.py'
p137
S'0'
sS'test_utils.py'
p138
S'1'
sS'astroid/tests/testdata/python3/data/suppliermodule_test.py'
p139
S'2'
sS'test/data/email.py'
p140
S'1'
sS'test/regrtest_data/descriptor_crash.py'
p141
S'4'
sS'astroid/tests/unittest_brain.py'
p142
S'0'
sS'test/data_py3/module2.py'
p143
S'1'
sS'test/regrtest.py'
p144
S'4'
sS'astroid/tests/data_py3/__init__.py'
p145
S'2'
sS'astroid/astpeephole.py'
p146
S'0'
sS'test/data/all.py'
p147
S'4'
sS'astroid/tests/testdata/python3/data/foogle/fax/__init__.py'
p148
S'0'
sS'test/data/find_test/module2.py'
p149
S'1'
sS'test/__init__.py'
p150
S'4'
sS'astroid/tests/testdata/python2/data/package/absimport.py'
p151
S'2'
sS'astroid/brain/brain_qt.py'
p152
S'0'
sS'astroid/helpers.py'
p153
S'0'
sS'astroid/brain/_stdlib.py'
p154
S'0'
sS'scoped_nodes.py'
p155
S'4'
sS'astroid/tests/testdata/python3/data/lmfp/foo.py'
p156
S'2'
sS'astroid/bases.py'
p157
S'0'
sS'astroid/tests/data_py3/ssl1/connection1.py'
p158
S'2'
sS'astroid/tests/testdata/python2/data/path_pkg_resources_2/package/bar.py'
p159
S'3'
sS'test/data_py3/nonregr.py'
p160
S'1'
sS'test/data_py3/module.py'
p161
S'1'
sS'astroid/brain/brain_hashlib.py'
p162
S'0'
sS'astroid/tests/regrtest_data/unicode_package/__init__.py'
p163
S'2'
sS'astroid/tests/testdata/python3/data/notall.py'
p164
S'2'
sS'astroid/tests/testdata/python2/data/appl/myconnection.py'
p165
S'2'
sS'astroid/tests/data/__init__.py'
p166
S'2'
sS'test/data/find_test/noendingnewline.py'
p167
S'1'
sS'test/data/module.py'
p168
S'4'
sS'astroid/objects.py'
p169
S'0'
sS'astroid/brain/pynose.py'
p170
S'0'
sS'astroid/tests/testdata/python2/data/path_pkg_resources_3/package/baz.py'
p171
S'3'
sS'test/unittest_raw_building.py'
p172
S'1'
sS'astroid/__pkginfo__.py'
p173
S'0'
sS'file_name'
p174
S'modularity_class'
p175
sS'astroid/tests/testdata/python3/data/clientmodule_test.py'
p176
S'2'
sS'astroid/tests/data2/clientmodule_test.py'
p177
S'2'
sS'astroid/tests/testdata/python3/data/contribute_to_namespace/namespace_pep_420/submodule.py'
p178
S'0'
sS'astroid/tests/testdata/python3/data/path_pkg_resources_2/package/__init__.py'
p179
S'3'
sS'astroid/tests/testdata/python2/data/path_pkgutil_3/package/baz.py'
p180
S'3'
sS'astroid/arguments.py'
p181
S'0'
sS'astroid/tests/data/find_test/module2.py'
p182
S'2'
sS'astroid/tests/testdata/python2/data/ssl1/connection1.py'
p183
S'2'
sS'test/data/__init__.py'
p184
S'4'
sS'test/data/lmfp/__init__.py'
p185
S'1'
sS'exceptions.py'
p186
S'4'
sS'astroid/tests/testdata/python3/data/package/subpackage/__init__.py'
p187
S'2'
sS'test/regrtest_data/recursion.py'
p188
S'1'
sS'astroid/tests/testdata/python2/data/package/__init__.py'
p189
S'2'
sS'astroid/tests/testdata/python3/data/package/absimport.py'
p190
S'2'
sS'astroid/tests/testdata/python2/data/package/subpackage/__init__.py'
p191
S'2'
sS'astroid/tests/data/appl/myconnection.py'
p192
S'2'
sS'test/unittest_nodes.py'
p193
S'4'
sS'astroid/interpreter/objectmodel.py'
p194
S'0'
sS'astroid/utils.py'
p195
S'1'
sS'nodes_as_string.py'
p196
S'4'
sS'__init__.py'
p197
S'4'
sS'test/regrtest_data/absimport.py'
p198
S'4'
sS'manager.py'
p199
S'4'
sS'test/data_py3/appl/myconnection.py'
p200
S'1'
sS'astroid/brain/py2pytest.py'
p201
S'1'
sS'test/regrtest_data/package/__init__.py'
p202
S'4'
sS'astroid/tests/testdata/python3/data/namespace_pep_420/module.py'
p203
S'0'
sS'astroid/tests/data_py3/find_test/module.py'
p204
S'2'
sS'test/unittest_inference.py'
p205
S'4'
sS'astroid/protocols.py'
p206
S'0'
sS'astroid/brain/brain_ssl.py'
p207
S'0'
sS'test/unittest_manager.py'
p208
S'4'
sS'astroid/tests/testdata/python3/data/find_test/module2.py'
p209
S'2'
sS'astroid/tests/data/module1abs/__init__.py'
p210
S'2'
sS'astroid/tests/unittest_protocols.py'
p211
S'0'
sS'astroid/tests/data/email.py'
p212
S'2'
sS'astroid/tests/testdata/python3/data/__init__.py'
p213
S'2'
sS'brain/py2qt4.py'
p214
S'1'
sS'setup.py'
p215
S'4'
sS'astroid/tests/testdata/python3/data/absimp/sidepackage/__init__.py'
p216
S'2'
sS'astroid/brain/brain_numpy.py'
p217
S'0'
sS'astroid/tests/testdata/python2/data/unicode_package/__init__.py'
p218
S'2'
sS'astroid/tests/testdata/python2/data/notamodule/file.py'
p219
S'0'
sS'astroid/tests/data/notall.py'
p220
S'2'
sS'astroid/brain/_dateutil.py'
p221
S'0'
sS'astroid/tests/testdata/python2/data/nonregr.py'
p222
S'2'
sS'brain/py2pytest.py'
p223
S'1'
sS'astroid/tests/regrtest_data/descriptor_crash.py'
p224
S'2'
sS'test/regrtest_data/absimp/__init__.py'
p225
S'1'
sS'astroid/brain/brain_fstrings.py'
p226
S'0'
sS'astroid/tests/testdata/python3/data/package/import_package_subpackage_module.py'
p227
S'2'
sS'test/data_py3/__init__.py'
p228
S'1'
sS'bases.py'
p229
S'4'
sS'astroid/tests/testdata/python2/data/absimp/string.py'
p230
S'2'
sS'astroid/tests/testdata/python3/data/absimp/string.py'
p231
S'2'
sS'__pkginfo__.py'
p232
S'4'
sS'astroid/brain/brain_mechanize.py'
p233
S'0'
sS'astroid/tests/regrtest_data/package/import_package_subpackage_module.py'
p234
S'2'
sS'astroid/tests/testdata/python2/data/noendingnewline.py'
p235
S'2'
sS'infutils.py'
p236
S'4'
sS'astroid/modutils.py'
p237
S'0'
sS'astroid/tests/testdata/python3/data/ssl1/__init__.py'
p238
S'2'
sS'astutils.py'
p239
S'4'
sS'astroid/brain/brain_six.py'
p240
S'0'
sS'astroid/tests/testdata/python3/data/ssl1/connection1.py'
p241
S'2'
sS'astroid/tests/regrtest_data/package/hello.py'
p242
S'2'
sS'test/regrtest_data/absimp/string.py'
p243
S'1'
sS'astroid/tests/testdata/python2/data/path_pkgutil_3/package/__init__.py'
p244
S'3'
sS'astroid/tests/data/absimport.py'
p245
S'2'
sS'astroid/brain/pysix_moves.py'
p246
S'0'
sS'astroid/tests/testdata/python2/data/lmfp/foo.py'
p247
S'2'
sS'astroid/tests/testdata/python2/data/absimp/__init__.py'
p248
S'2'
sS'test/regrtest_data/unicode_package/core/__init__.py'
p249
S'1'
sS'astroid/brain/brain_builtin_inference.py'
p250
S'0'
sS'astroid/tests/unittest_modutils.py'
p251
S'0'
sS'test/data_py3/noendingnewline.py'
p252
S'1'
sS'astroid/tests/data_py3/format.py'
p253
S'2'
sS'astroid/tests/testdata/python2/data/format.py'
p254
S'2'
sS'astroid/tests/unittest_nodes.py'
p255
S'0'
sS'test/regrtest_data/absimp/sidepackage/__init__.py'
p256
S'1'
sS'astroid/tests/regrtest_data/package/subpackage/module.py'
p257
S'2'
sS'astroid/tests/testdata/python3/data/module1abs/__init__.py'
p258
S'2'
sS'astroid/tests/testdata/python3/data/path_pkg_resources_3/package/__init__.py'
p259
S'3'
sS'test/data_py3/module1abs/__init__.py'
p260
S'1'
sS'astroid/tests/testdata/python3/data/absimp/__init__.py'
p261
S'2'
sS'brain/py2stdlib.py'
p262
S'4'
sS'astroid/tests/testdata/python3/data/module2.py'
p263
S'2'
sS'astroid/tests/data/lmfp/__init__.py'
p264
S'2'
sS'astroid/tests/data/module2.py'
p265
S'2'
sS'astroid/manager.py'
p266
S'0'
sS'modutils.py'
p267
S'1'
sS'astroid/as_string.py'
p268
S'0'
sS'test/data_py3/find_test/module.py'
p269
S'1'
sS'_inference_ast.py'
p270
S'4'
sS'astroid/brain/_numpy.py'
p271
S'0'
sS'astroid/tests/data/ssl1/__init__.py'
p272
S'2'
sS'astroid/tests/testdata/python3/data/package/subpackage/module.py'
p273
S'2'
sS'astroid/scoped_nodes.py'
p274
S'0'
sS'astroid/brain/brain_namedtuple_enum.py'
p275
S'0'
sS'astroid/tests/testdata/python2/data/package/import_package_subpackage_module.py'
p276
S'2'
sS'test/data/nonregr.py'
p277
S'4'
sS'protocols.py'
p278
S'4'
sS'astroid/tests/regrtest_data/package/__init__.py'
p279
S'2'
sS'doc/conf.py'
p280
S'0'
sS'test/regrtest_data/package/subpackage/__init__.py'
p281
S'4'
sS'astroid/brain/brain_gi.py'
p282
S'0'
sS'astroid/tests/data/find_test/noendingnewline.py'
p283
S'2'
sS'astroid/tests/data/noendingnewline.py'
p284
S'2'
sS'astroid/tests/data_py3/email.py'
p285
S'2'
sS'astroid/tests/data2/__init__.py'
p286
S'2'
sS'astroid/tests/testdata/python3/data/module1abs/core.py'
p287
S'2'
sS'astroid/tests/testdata/python3/data/path_pkg_resources_1/package/foo.py'
p288
S'3'
sS'test/data2/__init__.py'
p289
S'4'
sS'astroid/tests/testdata/python3/data/find_test/noendingnewline.py'
p290
S'2'
sS'astroid/test_utils.py'
p291
S'0'
sS'test/unittest_utils.py'
p292
S'4'
sS'astroid/tests/testdata/python3/data/find_test/module.py'
p293
S'2'
sS'astroid/tests/unittest_inspector.py'
p294
S'2'
sS'astroid/tests/data_py3/absimport.py'
p295
S'2'
sS'astroid/interpreter/_import/util.py'
p296
S'0'
sS'_exceptions.py'
p297
S'4'
sS'test/data_py3/ssl1/connection1.py'
p298
S'1'
sS'astroid/brain/py2mechanize.py'
p299
S'1'
sS'nodes.py'
p300
S'4'
sS'astroid/tests/data_py3/appl/__init__.py'
p301
S'2'
sS'astroid/brain/brain_threading.py'
p302
S'0'
sS'astroid/brain/brain_stdlib.py'
p303
S'0'
sS'astroid/tests/data/nonregr.py'
p304
S'2'
sS'astroid/tests/unittest_python3.py'
p305
S'0'
sS'astroid/tests/unittest_lookup.py'
p306
S'0'
sS'astroid/brain/brain_io.py'
p307
S'0'
sS'astroid/brain/brain_typing.py'
p308
S'0'
sS'mixins.py'
p309
S'4'
sS'test/data_py3/ssl1/__init__.py'
p310
S'1'
sS'astroid/tests/testdata/python3/data/absimport.py'
p311
S'2'
sS'astroid/tests/unittest_regrtest.py'
p312
S'0'
sS'test/data_py3/lmfp/foo.py'
p313
S'1'
sS'astroid/tests/testdata/python3/data/joined_strings.py'
p314
S'0'
sS'astroid/interpreter/dunder_lookup.py'
p315
S'0'
sS'astroid/tests/testdata/python3/data/notamodule/file.py'
p316
S'0'
sS'astroid/tests/testdata/python3/data/descriptor_crash.py'
p317
S'2'
sS'astroid/__init__.py'
p318
S'0'
sS'astroid/inspector.py'
p319
S'1'
sS'builder.py'
p320
S'4'
sS'astroid/tests/unittest_builder.py'
p321
S'0'
sS'test/data_py3/find_test/__init__.py'
p322
S'1'
sS'astroid/interpreter/__init__.py'
p323
S'0'
sS'astroid/brain/py2gi.py'
p324
S'1'
sS'lookup.py'
p325
S'4'
sS'astroid/brain/brain_pytest.py'
p326
S'0'
sS'patchcomptransformer.py'
p327
S'4'
sS'astroid/tests/data_py3/ssl1/__init__.py'
p328
S'2'
sS'astroid/tests/unittest_objects.py'
p329
S'0'
sS'astroid/tests/data_py3/find_test/nonregr.py'
p330
S'2'
sS'astroid/mixins.py'
p331
S'0'
sS'astroid/tests/data/module.py'
p332
S'2'
sS'astroid/tests/testdata/python2/data/path_pkgutil_2/package/bar.py'
p333
S'3'
sS'astroid/node_classes.py'
p334
S'0'
sS'brain/py2mechanize.py'
p335
S'1'
sS'astroid/tests/resources.py'
p336
S'0'
sS'astroid/brain/brain_multiprocessing.py'
p337
S'0'
sS'test/data/appl/__init__.py'
p338
S'4'
sS'test/data_py3/format.py'
p339
S'1'
sS'astroid/tests/testdata/python3/data/module.py'
p340
S'2'
sS'astroid/tests/testdata/python2/data/package/subpackage/module.py'
p341
S'2'
sS'test/unittest_inspector.py'
p342
S'4'
sS'test/unittest_builder.py'
p343
S'4'
sS'astroid/tests/data/find_test/module.py'
p344
S'2'
sS'astroid/tests/testdata/python2/data/absimp/sidepackage/__init__.py'
p345
S'2'
sS'test/data/absimport.py'
p346
S'1'
sS'astroid/tests/testdata/python3/data/invalid_encoding.py'
p347
S'0'
sS'test/regrtest_data/package/hello.py'
p348
S'1'
sS'astroid/tests/testdata/python2/data/ssl1/__init__.py'
p349
S'2'
sS'test/unittest_brain.py'
p350
S'1'
sS'test/unittest_regrtest.py'
p351
S'4'
sS'astroid/tests/data_py3/find_test/module2.py'
p352
S'2'
sS'astroid/tests/testdata/python2/data/module1abs/core.py'
p353
S'2'
sS'test/data_py3/notall.py'
p354
S'1'
sS'astroid/brain/brain_subprocess.py'
p355
S'0'
sS'astroid/tests/unittest_inference.py'
p356
S'0'
sS'astroid/brain/brain_collections.py'
p357
S'0'
sS'astroid/tests/testdata/python3/data/path_pkgutil_1/package/foo.py'
p358
S'3'
sS'astroid/tests/regrtest_data/absimp/string.py'
p359
S'2'
sS'astroid/tests/testdata/python2/data/joined_strings.py'
p360
S'0'
sS'test/regrtest_data/package/import_package_subpackage_module.py'
p361
S'4'
sS'astroid/tests/testdata/python2/data/find_test/module.py'
p362
S'2'
sS'astroid/tests/unittest_scoped_nodes.py'
p363
S'0'
sS'test/data/lmfp/foo.py'
p364
S'1'
sS'astroid/tests/testdata/python3/data/appl/myconnection.py'
p365
S'2'
sS'astroid/brain/brain_re.py'
p366
S'0'
sS'astroid/tests/data_py3/module2.py'
p367
S'2'
sS'astroid/tests/testdata/python3/data/appl/__init__.py'
p368
S'2'
sS'astroid/tests/testdata/python3/data/package/hello.py'
p369
S'2'
sS'astroid/brain/brain_curses.py'
p370
S'6'
sS'test/data_py3/email.py'
p371
S'1'
sS'astroid/tests/regrtest_data/absimp/__init__.py'
p372
S'2'
sS'astroid/tests/testdata/python2/data/clientmodule_test.py'
p373
S'2'
sS'astroid/brain/_mechanize.py'
p374
S'0'
sS'astroid/tests/testdata/python2/data/notall.py'
p375
S'2'
sS'astroid/tests/testdata/python2/data/descriptor_crash.py'
p376
S'2'
sS'astroid/brain/builtin_inference.py'
p377
S'0'
sS'astroid/tests/regrtest_data/recursion.py'
p378
S'2'
sS'_inference_compiler.py'
p379
S'4'
sS'test/data/format.py'
p380
S'1'
sS'astroid/tests/testdata/python2/data/all.py'
p381
S'2'
sS'astroid/tests/data_py3/lmfp/__init__.py'
p382
S'2'
sS'test/data/notall.py'
p383
S'4'
sS'astroid/tests/regrtest_data/absimp/sidepackage/__init__.py'
p384
S'2'
sS'astroid/tests/testdata/python2/data/foogle/fax/__init__.py'
p385
S'0'
sS'astroid/tests/testdata/python2/data/package/hello.py'
p386
S'2'
sS'astroid/tests/data/appl/__init__.py'
p387
S'2'
sS'astroid/tests/__init__.py'
p388
S'0'
sS'test/unittest_scoped_nodes.py'
p389
S'4'
sS'astroid/rebuilder.py'
p390
S'0'
sS'astroid/brain/pyqt.py'
p391
S'0'
sS'test/data_py3/all.py'
p392
S'1'
sS'astroid/brain/_builtin_inference.py'
p393
S'0'
sS'astroid/tests/testdata/python2/data/module.py'
p394
S'2'
sS'test/data/find_test/nonregr.py'
p395
S'1'
sS'test/data_py3/absimport.py'
p396
S'1'
sS'astroid/tests/testdata/python3/data/all.py'
p397
S'2'
sS'astroid/tests/unittest_brain_numpy.py'
p398
S'0'
sS'astroid/tests/regrtest_data/package/subpackage/__init__.py'
p399
S'2'
sS'test/regrtest_data/import_package_subpackage_module.py'
p400
S'4'
sS'test/regrtest_data/unicode_package/__init__.py'
p401
S'1'
sS'test/data_py3/module1abs/core.py'
p402
S'1'
s.