(dp1
S'oauthlib/oauth2_draft25/tokens.py'
p2
S'0'
sS'oauthlib/oauth1/rfc5849/endpoints/resource.py'
p3
S'1'
sS'oauthlib/oauth.py'
p4
S'0'
sS'oauthlib/oauth2/draft25/parameters.py'
p5
S'0'
sS'oauthlib/oauth2/rfc6749/errors.py'
p6
S'2'
sS'tests/oauth2/rfc6749/endpoints/test_extra_credentials.py'
p7
S'2'
sS'tests/oauth2/rfc6749/endpoints/test_revocation_endpoint.py'
p8
S'2'
sS'oauthlib/oauth1/__init__.py'
p9
S'0'
sS'tests/oauth1/rfc5849/test_parameters.py'
p10
S'0'
sS'tests/oauth1/rfc5849/test_client.py'
p11
S'0'
sS'oauthlib/oauth2/draft25/utils.py'
p12
S'0'
sS'tests/oauth2/rfc6749/grant_types/test_authorization_code.py'
p13
S'2'
sS'oauthlib/oauth1/rfc5849/signature.py'
p14
S'0'
sS'setup.py'
p15
S'0'
sS'oauthlib/oauth1/rfc5849/endpoints/base.py'
p16
S'1'
sS'examples/skeleton_oauth2_web_application_server.py'
p17
S'2'
sS'tests/oauth2/rfc6749/test_utils.py'
p18
S'2'
sS'tests/oauth2_draft25/test_tokens.py'
p19
S'0'
sS'oauthlib/common.py'
p20
S'0'
sS'tests/test_common.py'
p21
S'0'
sS'oauthlib/oauth2/ext/auditor.py'
p22
S'0'
sS'tests/oauth2/rfc6749/test_server.py'
p23
S'2'
sS'tests/oauth1/__init__.py'
p24
S'0'
sS'oauthlib/oauth2/rfc6749/clients/service_application.py'
p25
S'2'
sS'oauthlib/oauth2/rfc6749/clients/web_application.py'
p26
S'1'
sS'tests/oauth1/rfc5849/test_signatures.py'
p27
S'0'
sS'tests/oauth2/rfc6749/test_request_validator.py'
p28
S'2'
sS'tests/oauth2/rfc6749/clients/__init__.py'
p29
S'3'
sS'tests/oauth1/rfc5849/test_server.py'
p30
S'0'
sS'tests/test_parameters.py'
p31
S'0'
sS'oauthlib/oauth2/rfc6749/tokens.py'
p32
S'3'
sS'oauthlib/oauth2/rfc6749/endpoints/__init__.py'
p33
S'1'
sS'oauthlib/oauth2/rfc6749/utils.py'
p34
S'1'
sS'tests/oauth2/rfc6749/endpoints/test_error_responses.py'
p35
S'2'
sS'tests/unittest/__init__.py'
p36
S'0'
sS'tests/oauth2/rfc6749/test_servers.py'
p37
S'0'
sS'oauthlib/oauth2/rfc6749/parameters.py'
p38
S'1'
sS'oauthlib/parameters.py'
p39
S'0'
sS'docs/conf.py'
p40
S'2'
sS'oauthlib/oauth2/rfc6749/clients/mobile_application.py'
p41
S'1'
sS'tests/oauth1/rfc5849/endpoints/test_base.py'
p42
S'1'
sS'tests/oauth2/draft25/test_servers.py'
p43
S'0'
sS'oauthlib/oauth2/rfc6749/grant_types/base.py'
p44
S'2'
sS'tests/oauth2/__init__.py'
p45
S'0'
sS'tests/oauth2/draft25/__init__.py'
p46
S'0'
sS'tests/oauth2/rfc6749/clients/test_mobile_application.py'
p47
S'3'
sS'oauthlib/oauth2/rfc6749/__init__.py'
p48
S'1'
sS'tests/parameters.py'
p49
S'0'
sS'tests/test_signatures.py'
p50
S'0'
sS'tests/oauth2/draft25/test_server.py'
p51
S'0'
sS'tests/test_utils.py'
p52
S'0'
sS'tests/oauth2/draft25/test_grant_types.py'
p53
S'0'
sS'tests/oauth2/rfc6749/endpoints/__init__.py'
p54
S'2'
sS'tests/oauth2/draft25/test_client.py'
p55
S'0'
sS'oauthlib/oauth2/draft25/exceptions.py'
p56
S'0'
sS'tests/oauth2/rfc6749/clients/test_legacy_application.py'
p57
S'3'
sS'oauthlib/__init__.py'
p58
S'1'
sS'tests/oauth1/rfc5849/endpoints/test_resource.py'
p59
S'1'
sS'oauthlib/oauth2/rfc6749/clients/__init__.py'
p60
S'1'
sS'tests/oauth2/rfc6749/clients/test_service_application.py'
p61
S'2'
sS'tests/oauth2/rfc6749/endpoints/test_base_endpoint.py'
p62
S'2'
sS'oauthlib/oauth2/rfc6749/endpoints/pre_configured.py'
p63
S'1'
sS'oauthlib/oauth2/rfc6749/grant_types/refresh_token.py'
p64
S'2'
sS'oauthlib/oauth2/rfc6749/endpoints/base.py'
p65
S'1'
sS'tests/oauth2/draft25/test_parameters.py'
p66
S'0'
sS'oauthlib/oauth2/rfc6749/clients/backend_application.py'
p67
S'1'
sS'oauthlib/oauth1/rfc5849/parameters.py'
p68
S'0'
sS'tests/oauth1/rfc5849/__init__.py'
p69
S'0'
sS'oauthlib/oauth2/rfc6749/grant_types/implicit.py'
p70
S'2'
sS'oauthlib/oauth1/rfc5849/request_validator.py'
p71
S'1'
sS'tests/oauth1/rfc5849/test_request_validator.py'
p72
S'1'
sS'oauthlib/oauth2/ext/__init__.py'
p73
S'0'
sS'tests/oauth2/rfc6749/test_grant_types.py'
p74
S'0'
sS'oauthlib/oauth2/rfc6749/grant_types/resource_owner_password_credentials.py'
p75
S'2'
sS'tests/oauth2/rfc6749/endpoints/test_client_authentication.py'
p76
S'2'
sS'oauthlib/oauth2/rfc6749/grant_types.py'
p77
S'0'
sS'oauthlib/signals.py'
p78
S'3'
sS'tests/oauth2/rfc6749/grant_types/test_openid_connect.py'
p79
S'2'
sS'oauthlib/oauth2/ext/flask.py'
p80
S'0'
sS'tests/oauth2/rfc6749/endpoints/test_credentials_preservation.py'
p81
S'2'
sS'oauthlib/oauth1/rfc5849/endpoints/access_token.py'
p82
S'1'
sS'oauthlib/oauth2/rfc6749/endpoints/token.py'
p83
S'1'
sS'oauthlib/oauth2/rfc6749/endpoints/authorization.py'
p84
S'1'
sS'tests/oauth1/rfc5849/endpoints/test_signature_only.py'
p85
S'2'
sS'tests/oauth2_draft25/__init__.py'
p86
S'0'
sS'oauthlib/oauth2/rfc6749/clients/legacy_application.py'
p87
S'1'
sS'tests/oauth1/rfc5849/endpoints/test_request_token.py'
p88
S'1'
sS'oauthlib/oauth2_draft25/__init__.py'
p89
S'0'
sS'tests/oauth2/rfc6749/endpoints/test_prompt_handling.py'
p90
S'2'
sS'tests/oauth2/rfc6749/clients/test_base.py'
p91
S'2'
sS'oauthlib/oauth1/rfc5849/endpoints/pre_configured.py'
p92
S'1'
sS'oauthlib/utils.py'
p93
S'0'
sS'tests/oauth2/draft25/test_utils.py'
p94
S'0'
sS'tests/oauth2/rfc6749/grant_types/test_implicit.py'
p95
S'2'
sS'tests/oauth2_draft25/test_utils.py'
p96
S'0'
sS'oauthlib/oauth2/rfc6749/request_validator.py'
p97
S'2'
sS'tests/oauth1/rfc5849/endpoints/test_authorization.py'
p98
S'1'
sS'oauthlib/oauth2/rfc6749/grant_types/openid_connect.py'
p99
S'2'
sS'oauthlib/oauth2/draft25/errors.py'
p100
S'0'
sS'tests/oauth2/rfc6749/grant_types/__init__.py'
p101
S'2'
sS'tests/oauth2/rfc6749/grant_types/test_refresh_token.py'
p102
S'2'
sS'file_name'
p103
S'modularity_class'
p104
sS'oauthlib/oauth2/draft25/grant_types.py'
p105
S'0'
sS'tests/oauth2/rfc6749/test_client.py'
p106
S'0'
sS'oauthlib/oauth1/rfc5849/__init__.py'
p107
S'0'
sS'oauthlib/oauth1/rfc5849/endpoints/authorization.py'
p108
S'1'
sS'oauthlib/uri_validate.py'
p109
S'1'
sS'tests/oauth2/rfc6749/clients/test_web_application.py'
p110
S'3'
sS'tests/oauth2/rfc6749/test_tokens.py'
p111
S'2'
sS'tests/oauth2/rfc6749/grant_types/test_client_credentials.py'
p112
S'2'
sS'tests/oauth2/rfc6749/grant_types/test_resource_owner_password.py'
p113
S'2'
sS'tests/oauth1/rfc5849/endpoints/test_access_token.py'
p114
S'1'
sS'tests/__init__.py'
p115
S'0'
sS'tests/oauth2/rfc6749/__init__.py'
p116
S'0'
sS'oauthlib/oauth2_draft25/utils.py'
p117
S'0'
sS'oauthlib/oauth2/__init__.py'
p118
S'0'
sS'tests/oauth2/rfc6749/test_parameters.py'
p119
S'3'
sS'oauthlib/oauth2/draft25/__init__.py'
p120
S'0'
sS'oauthlib/oauth2/rfc6749/grant_types/authorization_code.py'
p121
S'2'
sS'tests/oauth2/draft25/test_tokens.py'
p122
S'0'
sS'oauthlib/oauth2/rfc6749/clients/base.py'
p123
S'1'
sS'oauthlib/oauth2/rfc6749/endpoints/revocation.py'
p124
S'1'
sS'oauthlib/oauth1/rfc5849/endpoints/request_token.py'
p125
S'1'
sS'oauthlib/oauth2/rfc6749/grant_types/client_credentials.py'
p126
S'2'
sS'tests/oauth2/rfc6749/endpoints/test_resource_owner_association.py'
p127
S'2'
sS'oauthlib/oauth2/rfc6749/exceptions.py'
p128
S'0'
sS'oauthlib/oauth2/ext/django/__init__.py'
p129
S'0'
sS'oauthlib/signature.py'
p130
S'0'
sS'tests/oauth2/rfc6749/endpoints/test_openid_connect_params_handling.py'
p131
S'2'
sS'tests/oauth2/rfc6749/clients/test_backend_application.py'
p132
S'3'
sS'oauthlib/oauth1/rfc5849/endpoints/__init__.py'
p133
S'1'
sS'tests/oauth2/rfc6749/endpoints/test_utils.py'
p134
S'2'
sS'oauthlib/oauth1/rfc5849/utils.py'
p135
S'0'
sS'tests/oauth1/rfc5849/test_utils.py'
p136
S'0'
sS'tests/oauth1/rfc5849/endpoints/__init__.py'
p137
S'1'
sS'.travis_install.py'
p138
S'2'
sS'oauthlib/oauth1/rfc5849/endpoints/signature_only.py'
p139
S'1'
sS'tests/oauth2/rfc6749/endpoints/test_scope_handling.py'
p140
S'2'
sS'oauthlib/oauth1/rfc5849/errors.py'
p141
S'2'
sS'oauthlib/oauth2/rfc6749/grant_types/__init__.py'
p142
S'2'
sS'oauthlib/oauth2/rfc6749/endpoints/resource.py'
p143
S'1'
sS'oauthlib/oauth2/ext/django.py'
p144
S'0'
sS'oauthlib/oauth2/draft25/tokens.py'
p145
S'0'
sS'tests/oauth2/rfc6749/endpoints/test_claims_handling.py'
p146
S'2'
s.