(dp1
S'aioredis/errors.py'
p2
S'0'
sS'examples/python_3.5_pool.py'
p3
S'1'
sS'aioredis/sentinel/__init__.py'
p4
S'0'
sS'aioredis/pool.py'
p5
S'0'
sS'aioredis/log.py'
p6
S'0'
sS'examples/py34/pubsub.py'
p7
S'1'
sS'tests/channel_test.py'
p8
S'0'
sS'tests/coerced_keys_dict_test.py'
p9
S'2'
sS'setup.py'
p10
S'0'
sS'aioredis/commands/hash.py'
p11
S'2'
sS'aioredis/sentinel/parser.py'
p12
S'0'
sS'tests/set_commands_test.py'
p13
S'2'
sS'aioredis/commands/cluster.py'
p14
S'2'
sS'examples/py34/pool_pubsub.py'
p15
S'1'
sS'examples/transaction2.py'
p16
S'1'
sS'examples/iscan.py'
p17
S'1'
sS'tests/pubsub_receiver_test.py'
p18
S'0'
sS'aioredis/__init__.py'
p19
S'0'
sS'examples/connection.py'
p20
S'1'
sS'examples/py34/transaction.py'
p21
S'1'
sS'aioredis/commands/server.py'
p22
S'2'
sS'tests/geo_commands_test.py'
p23
S'0'
sS'tests/multi_exec_test.py'
p24
S'2'
sS'examples/pool.py'
p25
S'1'
sS'tests/list_commands_test.py'
p26
S'2'
sS'aioredis/commands/set.py'
p27
S'2'
sS'aioredis/commands/string.py'
p28
S'2'
sS'aioredis/commands/list.py'
p29
S'2'
sS'tests/__init__.py'
p30
S'2'
sS'tests/_testutil.py'
p31
S'2'
sS'aioredis/protocol.py'
p32
S'0'
sS'docs/conf.py'
p33
S'0'
sS'aioredis/commands/sorted_set.py'
p34
S'2'
sS'aioredis/commands/hyperloglog.py'
p35
S'2'
sS'aioredis/commands/keys.py'
p36
S'0'
sS'examples/py34/commands.py'
p37
S'1'
sS'tests/server_commands_test.py'
p38
S'2'
sS'aioredis/commands/__init__.py'
p39
S'0'
sS'tests/ssl_test.py'
p40
S'2'
sS'tests/protocol_test.py'
p41
S'0'
sS'tests/sentinel_pubsub_commands_test.py'
p42
S'0'
sS'runtests.py'
p43
S'0'
sS'tests/scripting_commands_test.py'
p44
S'2'
sS'examples/pipeline.py'
p45
S'1'
sS'tests/py35_generic_commands_test.py'
p46
S'2'
sS'tests/py35_pool_test.py'
p47
S'2'
sS'examples/pubsub.py'
p48
S'1'
sS'tests/string_commands_test.py'
p49
S'2'
sS'tests/py35_set_commands_test.py'
p50
S'2'
sS'aioredis/sentinel/sentinel_old.py'
p51
S'0'
sS'examples/transaction.py'
p52
S'1'
sS'aioredis/connection.py'
p53
S'0'
sS'examples/sentinel.py'
p54
S'1'
sS'aioredis/abc.py'
p55
S'0'
sS'tests/encode_command_test.py'
p56
S'2'
sS'aioredis/pubsub.py'
p57
S'0'
sS'examples/pubsub2.py'
p58
S'1'
sS'aioredis/sentinel/commands.py'
p59
S'0'
sS'aioredis/commands/geo.py'
p60
S'0'
sS'tests/sentinel2_test.py'
p61
S'0'
sS'tests/py35_hash_commands_test.py'
p62
S'2'
sS'examples/pool_pubsub.py'
p63
S'1'
sS'aioredis/commands/scripting.py'
p64
S'2'
sS'aioredis/sentinel/pool.py'
p65
S'0'
sS'examples/commands.py'
p66
S'1'
sS'tests/hash_commands_test.py'
p67
S'2'
sS'examples/py34/transaction2.py'
p68
S'1'
sS'tests/py35_pubsub_receiver_test.py'
p69
S'0'
sS'tests/hyperloglog_commands_test.py'
p70
S'2'
sS'aioredis/_testutil.py'
p71
S'0'
sS'tests/task_cancellation_test.py'
p72
S'2'
sS'tests/connection_commands_test.py'
p73
S'2'
sS'tests/pubsub_listener_test.py'
p74
S'0'
sS'tests/py35_sorted_set_commands_test.py'
p75
S'2'
sS'aioredis/commands/transaction.py'
p76
S'0'
sS'examples/py34/connection.py'
p77
S'1'
sS'examples/pool2.py'
p78
S'1'
sS'tests/connection_test.py'
p79
S'0'
sS'aioredis/commands/pubsub.py'
p80
S'0'
sS'tests/pubsub_commands_test.py'
p81
S'2'
sS'tests/pool_test.py'
p82
S'0'
sS'examples/py34/pool.py'
p83
S'1'
sS'examples/py34/pipeline.py'
p84
S'1'
sS'file_name'
p85
S'modularity_class'
p86
sS'tests/reconnect_test.py'
p87
S'2'
sS'aioredis/sentinel.py'
p88
S'0'
sS'tests/conftest.py'
p89
S'0'
sS'tests/sentinel_test.py'
p90
S'0'
sS'tests/py35_pubsub_commands_test.py'
p91
S'2'
sS'examples/py34/pubsub2.py'
p92
S'1'
sS'examples/py34/scan.py'
p93
S'1'
sS'tests/sentinel_commands_test.py'
p94
S'0'
sS'aioredis/commands/sentinel.py'
p95
S'0'
sS'tests/generic_commands_test.py'
p96
S'2'
sS'tests/sorted_set_commands_test.py'
p97
S'2'
sS'aioredis/commands/generic.py'
p98
S'2'
sS'examples/python_3.5_iscan.py'
p99
S'1'
sS'aioredis/util.py'
p100
S'0'
sS'tests/sentinel_failover_test.py'
p101
S'0'
sS'tests/transaction_commands_test.py'
p102
S'2'
sS'examples/scan.py'
p103
S'1'
s.